ARM GAS  C:\Users\Legend\AppData\Local\Temp\cccCGJHr.s 			page 1


   1              		.cpu cortex-m7
   2              		.eabi_attribute 28, 1
   3              		.eabi_attribute 20, 1
   4              		.eabi_attribute 21, 1
   5              		.eabi_attribute 23, 3
   6              		.eabi_attribute 24, 1
   7              		.eabi_attribute 25, 1
   8              		.eabi_attribute 26, 1
   9              		.eabi_attribute 30, 1
  10              		.eabi_attribute 34, 1
  11              		.eabi_attribute 18, 4
  12              		.file	"attitude.c"
  13              		.text
  14              	.Ltext0:
  15              		.cfi_sections	.debug_frame
  16              		.section	.text.Bulid_euler_angles,"ax",%progbits
  17              		.align	1
  18              		.arch armv7e-m
  19              		.syntax unified
  20              		.thumb
  21              		.thumb_func
  22              		.fpu fpv5-d16
  24              	Bulid_euler_angles:
  25              	.LVL0:
  26              	.LFB145:
  27              		.file 1 "task/attitude/src/attitude.c"
   1:task/attitude/src/attitude.c **** #include "attitude.h"
   2:task/attitude/src/attitude.c **** 
   3:task/attitude/src/attitude.c **** static int Bulid_euler_angles(attitude *self)
   4:task/attitude/src/attitude.c **** {
  28              		.loc 1 4 1 view -0
  29              		.cfi_startproc
  30              		@ args = 0, pretend = 0, frame = 0
  31              		@ frame_needed = 0, uses_anonymous_args = 0
  32              		.loc 1 4 1 is_stmt 0 view .LVU1
  33 0000 38B5     		push	{r3, r4, r5, lr}
  34              	.LCFI0:
  35              		.cfi_def_cfa_offset 16
  36              		.cfi_offset 3, -16
  37              		.cfi_offset 4, -12
  38              		.cfi_offset 5, -8
  39              		.cfi_offset 14, -4
  40 0002 2DED0E8B 		vpush.64	{d8, d9, d10, d11, d12, d13, d14}
  41              	.LCFI1:
  42              		.cfi_def_cfa_offset 72
  43              		.cfi_offset 80, -72
  44              		.cfi_offset 81, -68
  45              		.cfi_offset 82, -64
  46              		.cfi_offset 83, -60
  47              		.cfi_offset 84, -56
  48              		.cfi_offset 85, -52
  49              		.cfi_offset 86, -48
  50              		.cfi_offset 87, -44
  51              		.cfi_offset 88, -40
  52              		.cfi_offset 89, -36
  53              		.cfi_offset 90, -32
  54              		.cfi_offset 91, -28
ARM GAS  C:\Users\Legend\AppData\Local\Temp\cccCGJHr.s 			page 2


  55              		.cfi_offset 92, -24
  56              		.cfi_offset 93, -20
  57 0006 0446     		mov	r4, r0
   5:task/attitude/src/attitude.c ****     int status;
  58              		.loc 1 5 5 is_stmt 1 view .LVU2
   6:task/attitude/src/attitude.c ****     double q0, q1, q2, q3;
  59              		.loc 1 6 5 view .LVU3
   7:task/attitude/src/attitude.c ****     status = self->mpu6050self->mpuFunList->ReadData(self->mpu6050self);
  60              		.loc 1 7 5 view .LVU4
  61              		.loc 1 7 18 is_stmt 0 view .LVU5
  62 0008 0068     		ldr	r0, [r0]
  63              	.LVL1:
  64              		.loc 1 7 31 view .LVU6
  65 000a 0368     		ldr	r3, [r0]
  66              		.loc 1 7 43 view .LVU7
  67 000c 5B68     		ldr	r3, [r3, #4]
  68              		.loc 1 7 14 view .LVU8
  69 000e 9847     		blx	r3
  70              	.LVL2:
   8:task/attitude/src/attitude.c ****     if (status)
  71              		.loc 1 8 5 is_stmt 1 view .LVU9
  72              		.loc 1 8 8 is_stmt 0 view .LVU10
  73 0010 0028     		cmp	r0, #0
  74 0012 47D1     		bne	.L3
  75 0014 0546     		mov	r5, r0
   9:task/attitude/src/attitude.c ****         return -1;
  10:task/attitude/src/attitude.c **** 
  11:task/attitude/src/attitude.c ****     q0 = self->mpu6050self->quat[0];
  76              		.loc 1 11 5 is_stmt 1 view .LVU11
  77              		.loc 1 11 14 is_stmt 0 view .LVU12
  78 0016 2368     		ldr	r3, [r4]
  79              		.loc 1 11 8 view .LVU13
  80 0018 93ED06BB 		vldr.64	d11, [r3, #24]
  81              	.LVL3:
  12:task/attitude/src/attitude.c ****     q1 = self->mpu6050self->quat[1];
  82              		.loc 1 12 5 is_stmt 1 view .LVU14
  83              		.loc 1 12 8 is_stmt 0 view .LVU15
  84 001c 93ED088B 		vldr.64	d8, [r3, #32]
  85              	.LVL4:
  13:task/attitude/src/attitude.c ****     q2 = self->mpu6050self->quat[2];
  86              		.loc 1 13 5 is_stmt 1 view .LVU16
  87              		.loc 1 13 8 is_stmt 0 view .LVU17
  88 0020 93ED0A9B 		vldr.64	d9, [r3, #40]
  89              	.LVL5:
  14:task/attitude/src/attitude.c ****     q3 = self->mpu6050self->quat[3];
  90              		.loc 1 14 5 is_stmt 1 view .LVU18
  91              		.loc 1 14 8 is_stmt 0 view .LVU19
  92 0024 93ED0CAB 		vldr.64	d10, [r3, #48]
  93              	.LVL6:
  15:task/attitude/src/attitude.c **** 
  16:task/attitude/src/attitude.c ****     self->pitch = asin(-2 * q1 * q3 + 2 * q0 * q2) * 57.3; //ä¿¯ä»°è§’
  94              		.loc 1 16 5 is_stmt 1 view .LVU20
  95              		.loc 1 16 27 is_stmt 0 view .LVU21
  96 0028 B8EE00EB 		vmov.f64	d14, #-2.0e+0
  97 002c 28EE0EEB 		vmul.f64	d14, d8, d14
  98              		.loc 1 16 41 view .LVU22
  99 0030 3BEE0BDB 		vadd.f64	d13, d11, d11
ARM GAS  C:\Users\Legend\AppData\Local\Temp\cccCGJHr.s 			page 3


 100              		.loc 1 16 46 view .LVU23
 101 0034 2DEE090B 		vmul.f64	d0, d13, d9
 102              		.loc 1 16 19 view .LVU24
 103 0038 0EEE0A0B 		vmla.f64	d0, d14, d10
 104 003c FFF7FEFF 		bl	asin
 105              	.LVL7:
 106              		.loc 1 16 52 view .LVU25
 107 0040 9FED1BCB 		vldr.64	d12, .L5
 108 0044 20EE0C0B 		vmul.f64	d0, d0, d12
 109              		.loc 1 16 17 view .LVU26
 110 0048 84ED020B 		vstr.64	d0, [r4, #8]
  17:task/attitude/src/attitude.c **** 
  18:task/attitude/src/attitude.c ****     self->roll = atan2(2 * q2 * q3 + 2 * q0 * q1, -2 * q1 * q1 - 2 * q2 * q2 + 1) * 57.3; //æ¨ªæ»šè
 111              		.loc 1 18 5 is_stmt 1 view .LVU27
 112              		.loc 1 18 26 is_stmt 0 view .LVU28
 113 004c 39EE097B 		vadd.f64	d7, d9, d9
 114              		.loc 1 18 45 view .LVU29
 115 0050 2DEE080B 		vmul.f64	d0, d13, d8
 116              		.loc 1 18 73 view .LVU30
 117 0054 27EE091B 		vmul.f64	d1, d7, d9
 118              		.loc 1 18 64 view .LVU31
 119 0058 1EEE081B 		vnmls.f64	d1, d14, d8
 120              		.loc 1 18 18 view .LVU32
 121 005c B7EE006B 		vmov.f64	d6, #1.0e+0
 122 0060 31EE061B 		vadd.f64	d1, d1, d6
 123 0064 07EE0A0B 		vmla.f64	d0, d7, d10
 124 0068 FFF7FEFF 		bl	atan2
 125              	.LVL8:
 126              		.loc 1 18 83 view .LVU33
 127 006c 20EE0C0B 		vmul.f64	d0, d0, d12
 128              		.loc 1 18 16 view .LVU34
 129 0070 84ED040B 		vstr.64	d0, [r4, #16]
  19:task/attitude/src/attitude.c **** 
  20:task/attitude/src/attitude.c ****     self->yaw = atan2(2 * (q1 * q2 + q0 * q3), q0 * q0 + q1 * q1 - q2 * q2 - q3 * q3) * 57.3; //èˆª
 130              		.loc 1 20 5 is_stmt 1 view .LVU35
 131              		.loc 1 20 41 is_stmt 0 view .LVU36
 132 0074 2BEE0A0B 		vmul.f64	d0, d11, d10
 133              		.loc 1 20 36 view .LVU37
 134 0078 08EE090B 		vmla.f64	d0, d8, d9
 135              		.loc 1 20 61 view .LVU38
 136 007c 28EE081B 		vmul.f64	d1, d8, d8
 137              		.loc 1 20 56 view .LVU39
 138 0080 0BEE0B1B 		vmla.f64	d1, d11, d11
 139              		.loc 1 20 66 view .LVU40
 140 0084 09EE491B 		vmls.f64	d1, d9, d9
 141              		.loc 1 20 17 view .LVU41
 142 0088 0AEE4A1B 		vmls.f64	d1, d10, d10
 143 008c 30EE000B 		vadd.f64	d0, d0, d0
 144 0090 FFF7FEFF 		bl	atan2
 145              	.LVL9:
 146              		.loc 1 20 87 view .LVU42
 147 0094 20EE0CCB 		vmul.f64	d12, d0, d12
 148              		.loc 1 20 15 view .LVU43
 149 0098 84ED06CB 		vstr.64	d12, [r4, #24]
  21:task/attitude/src/attitude.c ****     return status;
 150              		.loc 1 21 5 is_stmt 1 view .LVU44
 151              	.LVL10:
ARM GAS  C:\Users\Legend\AppData\Local\Temp\cccCGJHr.s 			page 4


 152              	.L1:
  22:task/attitude/src/attitude.c **** }
 153              		.loc 1 22 1 is_stmt 0 view .LVU45
 154 009c 2846     		mov	r0, r5
 155 009e BDEC0E8B 		vldm	sp!, {d8-d14}
 156              	.LCFI2:
 157              		.cfi_remember_state
 158              		.cfi_restore 92
 159              		.cfi_restore 93
 160              		.cfi_restore 90
 161              		.cfi_restore 91
 162              		.cfi_restore 88
 163              		.cfi_restore 89
 164              		.cfi_restore 86
 165              		.cfi_restore 87
 166              		.cfi_restore 84
 167              		.cfi_restore 85
 168              		.cfi_restore 82
 169              		.cfi_restore 83
 170              		.cfi_restore 80
 171              		.cfi_restore 81
 172              		.cfi_def_cfa_offset 16
 173 00a2 38BD     		pop	{r3, r4, r5, pc}
 174              	.LVL11:
 175              	.L3:
 176              	.LCFI3:
 177              		.cfi_restore_state
   9:task/attitude/src/attitude.c **** 
 178              		.loc 1 9 16 view .LVU46
 179 00a4 4FF0FF35 		mov	r5, #-1
 180 00a8 F8E7     		b	.L1
 181              	.L6:
 182 00aa 00BFAFF3 		.align	3
 182      0080
 183              	.L5:
 184 00b0 66666666 		.word	1717986918
 185 00b4 66A64C40 		.word	1078765158
 186              		.cfi_endproc
 187              	.LFE145:
 189              		.section	.text.attitude_self_Creat,"ax",%progbits
 190              		.align	1
 191              		.global	attitude_self_Creat
 192              		.syntax unified
 193              		.thumb
 194              		.thumb_func
 195              		.fpu fpv5-d16
 197              	attitude_self_Creat:
 198              	.LFB146:
  23:task/attitude/src/attitude.c **** 
  24:task/attitude/src/attitude.c **** //å§¿æ€çš„è™šå‡½æ•°è¡¨
  25:task/attitude/src/attitude.c **** static struct attitudeVtbl _attitudeFunList = {
  26:task/attitude/src/attitude.c ****     .bulid_euler_angles = Bulid_euler_angles};
  27:task/attitude/src/attitude.c **** 
  28:task/attitude/src/attitude.c **** //æŽ¥å£å‡½æ•°
  29:task/attitude/src/attitude.c **** attitude *attitude_self_Creat()
  30:task/attitude/src/attitude.c **** {
 199              		.loc 1 30 1 is_stmt 1 view -0
ARM GAS  C:\Users\Legend\AppData\Local\Temp\cccCGJHr.s 			page 5


 200              		.cfi_startproc
 201              		@ args = 0, pretend = 0, frame = 0
 202              		@ frame_needed = 0, uses_anonymous_args = 0
 203 0000 10B5     		push	{r4, lr}
 204              	.LCFI4:
 205              		.cfi_def_cfa_offset 8
 206              		.cfi_offset 4, -8
 207              		.cfi_offset 14, -4
  31:task/attitude/src/attitude.c ****     attitude *self;
 208              		.loc 1 31 5 view .LVU48
  32:task/attitude/src/attitude.c ****     self = pvPortMalloc(sizeof(attitude));
 209              		.loc 1 32 5 view .LVU49
 210              		.loc 1 32 12 is_stmt 0 view .LVU50
 211 0002 2020     		movs	r0, #32
 212 0004 FFF7FEFF 		bl	pvPortMalloc
 213              	.LVL12:
 214 0008 0446     		mov	r4, r0
 215              	.LVL13:
  33:task/attitude/src/attitude.c **** 
  34:task/attitude/src/attitude.c ****     self->mpu6050self = MPU6050_Self_Creat(0x68, 1);
 216              		.loc 1 34 5 is_stmt 1 view .LVU51
 217              		.loc 1 34 25 is_stmt 0 view .LVU52
 218 000a 0121     		movs	r1, #1
 219 000c 6820     		movs	r0, #104
 220              	.LVL14:
 221              		.loc 1 34 25 view .LVU53
 222 000e FFF7FEFF 		bl	MPU6050_Self_Creat
 223              	.LVL15:
 224              		.loc 1 34 23 view .LVU54
 225 0012 2060     		str	r0, [r4]
  35:task/attitude/src/attitude.c ****     self->FunList = &_attitudeFunList;
 226              		.loc 1 35 5 is_stmt 1 view .LVU55
 227              		.loc 1 35 19 is_stmt 0 view .LVU56
 228 0014 014B     		ldr	r3, .L9
 229 0016 6360     		str	r3, [r4, #4]
  36:task/attitude/src/attitude.c ****     return self;
 230              		.loc 1 36 5 is_stmt 1 view .LVU57
  37:task/attitude/src/attitude.c **** }
 231              		.loc 1 37 1 is_stmt 0 view .LVU58
 232 0018 2046     		mov	r0, r4
 233 001a 10BD     		pop	{r4, pc}
 234              	.LVL16:
 235              	.L10:
 236              		.loc 1 37 1 view .LVU59
 237              		.align	2
 238              	.L9:
 239 001c 00000000 		.word	.LANCHOR0
 240              		.cfi_endproc
 241              	.LFE146:
 243              		.section	.text.attitude_self_delete,"ax",%progbits
 244              		.align	1
 245              		.global	attitude_self_delete
 246              		.syntax unified
 247              		.thumb
 248              		.thumb_func
 249              		.fpu fpv5-d16
 251              	attitude_self_delete:
ARM GAS  C:\Users\Legend\AppData\Local\Temp\cccCGJHr.s 			page 6


 252              	.LVL17:
 253              	.LFB147:
  38:task/attitude/src/attitude.c **** 
  39:task/attitude/src/attitude.c **** void attitude_self_delete(attitude *self)
  40:task/attitude/src/attitude.c **** {
 254              		.loc 1 40 1 is_stmt 1 view -0
 255              		.cfi_startproc
 256              		@ args = 0, pretend = 0, frame = 0
 257              		@ frame_needed = 0, uses_anonymous_args = 0
 258              		.loc 1 40 1 is_stmt 0 view .LVU61
 259 0000 08B5     		push	{r3, lr}
 260              	.LCFI5:
 261              		.cfi_def_cfa_offset 8
 262              		.cfi_offset 3, -8
 263              		.cfi_offset 14, -4
  41:task/attitude/src/attitude.c ****     vPortFree(self);
 264              		.loc 1 41 5 is_stmt 1 view .LVU62
 265 0002 FFF7FEFF 		bl	vPortFree
 266              	.LVL18:
  42:task/attitude/src/attitude.c **** }
 267              		.loc 1 42 1 is_stmt 0 view .LVU63
 268 0006 08BD     		pop	{r3, pc}
 269              		.cfi_endproc
 270              	.LFE147:
 272              		.section	.data._attitudeFunList,"aw"
 273              		.align	2
 274              		.set	.LANCHOR0,. + 0
 277              	_attitudeFunList:
 278 0000 00000000 		.word	Bulid_euler_angles
 279              		.text
 280              	.Letext0:
 281              		.file 2 "f:\\prosoft\\gcc_arm_none\\2019q4\\9 2019-q4-major\\arm-none-eabi\\include\\machine\\_def
 282              		.file 3 "f:\\prosoft\\gcc_arm_none\\2019q4\\9 2019-q4-major\\arm-none-eabi\\include\\sys\\_stdint.
 283              		.file 4 "Drivers/CMSIS/Include/core_cm7.h"
 284              		.file 5 "Drivers/CMSIS/Device/ST/STM32F7xx/Include/system_stm32f7xx.h"
 285              		.file 6 "Drivers/CMSIS/Device/ST/STM32F7xx/Include/stm32f767xx.h"
 286              		.file 7 "Drivers/STM32F7xx_HAL_Driver/Inc/stm32f7xx_hal_def.h"
 287              		.file 8 "Drivers/STM32F7xx_HAL_Driver/Inc/stm32f7xx_hal_dma.h"
 288              		.file 9 "Drivers/STM32F7xx_HAL_Driver/Inc/stm32f7xx_hal_i2c.h"
 289              		.file 10 "Drivers/STM32F7xx_HAL_Driver/Inc/stm32f7xx_hal.h"
 290              		.file 11 "Inc/i2c.h"
 291              		.file 12 "task/attitude/inc/mpu6050.h"
 292              		.file 13 "f:\\prosoft\\gcc_arm_none\\2019q4\\9 2019-q4-major\\arm-none-eabi\\include\\sys\\lock.h"
 293              		.file 14 "f:\\prosoft\\gcc_arm_none\\2019q4\\9 2019-q4-major\\arm-none-eabi\\include\\sys\\_types.
 294              		.file 15 "f:\\prosoft\\gcc_arm_none\\2019q4\\9 2019-q4-major\\lib\\gcc\\arm-none-eabi\\9.2.1\\incl
 295              		.file 16 "f:\\prosoft\\gcc_arm_none\\2019q4\\9 2019-q4-major\\arm-none-eabi\\include\\sys\\reent.h
 296              		.file 17 "f:\\prosoft\\gcc_arm_none\\2019q4\\9 2019-q4-major\\arm-none-eabi\\include\\math.h"
 297              		.file 18 "task/attitude/inc/attitude.h"
 298              		.file 19 "Middlewares/Third_Party/FreeRTOS/Source/include/portable.h"
ARM GAS  C:\Users\Legend\AppData\Local\Temp\cccCGJHr.s 			page 7

