ARM GAS  C:\Users\Legend\AppData\Local\Temp\ccE6DPio.s 			page 1


   1              		.cpu cortex-m7
   2              		.eabi_attribute 28, 1
   3              		.eabi_attribute 20, 1
   4              		.eabi_attribute 21, 1
   5              		.eabi_attribute 23, 3
   6              		.eabi_attribute 24, 1
   7              		.eabi_attribute 25, 1
   8              		.eabi_attribute 26, 1
   9              		.eabi_attribute 30, 1
  10              		.eabi_attribute 34, 1
  11              		.eabi_attribute 18, 4
  12              		.file	"bsp_i2c.c"
  13              		.text
  14              	.Ltext0:
  15              		.cfi_sections	.debug_frame
  16              		.section	.text.Sensors_I2C_WriteRegister,"ax",%progbits
  17              		.align	1
  18              		.global	Sensors_I2C_WriteRegister
  19              		.arch armv7e-m
  20              		.syntax unified
  21              		.thumb
  22              		.thumb_func
  23              		.fpu fpv5-d16
  25              	Sensors_I2C_WriteRegister:
  26              	.LVL0:
  27              	.LFB145:
  28              		.file 1 "task/attitude/src/bsp_i2c.c"
   1:task/attitude/src/bsp_i2c.c **** #include "bsp_i2c.h"
   2:task/attitude/src/bsp_i2c.c **** 
   3:task/attitude/src/bsp_i2c.c **** /**********************************************************
   4:task/attitude/src/bsp_i2c.c **** 以下部分用于MPU6050官方库的移植
   5:task/attitude/src/bsp_i2c.c **** ***********************************************************/
   6:task/attitude/src/bsp_i2c.c **** /*
   7:task/attitude/src/bsp_i2c.c ****  *写数据
   8:task/attitude/src/bsp_i2c.c ****  */
   9:task/attitude/src/bsp_i2c.c **** int Sensors_I2C_WriteRegister(unsigned char slave_addr,
  10:task/attitude/src/bsp_i2c.c ****                               unsigned char reg_addr,
  11:task/attitude/src/bsp_i2c.c ****                               unsigned short len,
  12:task/attitude/src/bsp_i2c.c ****                               unsigned char *data_ptr)
  13:task/attitude/src/bsp_i2c.c **** {
  29              		.loc 1 13 1 view -0
  30              		.cfi_startproc
  31              		@ args = 0, pretend = 0, frame = 0
  32              		@ frame_needed = 0, uses_anonymous_args = 0
  33              		.loc 1 13 1 is_stmt 0 view .LVU1
  34 0000 2DE9F041 		push	{r4, r5, r6, r7, r8, lr}
  35              	.LCFI0:
  36              		.cfi_def_cfa_offset 24
  37              		.cfi_offset 4, -24
  38              		.cfi_offset 5, -20
  39              		.cfi_offset 6, -16
  40              		.cfi_offset 7, -12
  41              		.cfi_offset 8, -8
  42              		.cfi_offset 14, -4
  43 0004 84B0     		sub	sp, sp, #16
  44              	.LCFI1:
  45              		.cfi_def_cfa_offset 40
ARM GAS  C:\Users\Legend\AppData\Local\Temp\ccE6DPio.s 			page 2


  46 0006 8046     		mov	r8, r0
  47 0008 0F46     		mov	r7, r1
  48 000a 1646     		mov	r6, r2
  49 000c 1D46     		mov	r5, r3
  14:task/attitude/src/bsp_i2c.c ****     int iic_status = HAL_ERROR;
  50              		.loc 1 14 5 is_stmt 1 view .LVU2
  51              	.LVL1:
  15:task/attitude/src/bsp_i2c.c ****     while (iic_status != HAL_OK)
  52              		.loc 1 15 5 view .LVU3
  14:task/attitude/src/bsp_i2c.c ****     int iic_status = HAL_ERROR;
  53              		.loc 1 14 9 is_stmt 0 view .LVU4
  54 000e 0124     		movs	r4, #1
  55              		.loc 1 15 11 view .LVU5
  56 0010 07E0     		b	.L2
  57              	.LVL2:
  58              	.L7:
  16:task/attitude/src/bsp_i2c.c ****     {
  17:task/attitude/src/bsp_i2c.c ****         iic_status = HAL_I2C_Mem_Write(&hi2c4,
  18:task/attitude/src/bsp_i2c.c ****                                        slave_addr << 1,
  19:task/attitude/src/bsp_i2c.c ****                                        reg_addr,
  20:task/attitude/src/bsp_i2c.c ****                                        I2C_MEMADD_SIZE_8BIT,
  21:task/attitude/src/bsp_i2c.c ****                                        data_ptr,
  22:task/attitude/src/bsp_i2c.c ****                                        len,
  23:task/attitude/src/bsp_i2c.c ****                                        1000);
  24:task/attitude/src/bsp_i2c.c ****         //检查通讯状态
  25:task/attitude/src/bsp_i2c.c ****         if (iic_status != HAL_OK)
  26:task/attitude/src/bsp_i2c.c ****         {
  27:task/attitude/src/bsp_i2c.c ****             //出错处理
  28:task/attitude/src/bsp_i2c.c ****             HAL_I2C_DeInit(&hi2c4);
  59              		.loc 1 28 13 is_stmt 1 view .LVU6
  60 0012 0E48     		ldr	r0, .L8
  61              	.LVL3:
  62              		.loc 1 28 13 is_stmt 0 view .LVU7
  63 0014 FFF7FEFF 		bl	HAL_I2C_DeInit
  64              	.LVL4:
  29:task/attitude/src/bsp_i2c.c ****             MX_I2C4_Init();
  65              		.loc 1 29 13 is_stmt 1 view .LVU8
  66 0018 FFF7FEFF 		bl	MX_I2C4_Init
  67              	.LVL5:
  30:task/attitude/src/bsp_i2c.c ****             bsp_i2c_Delay(1);
  68              		.loc 1 30 13 view .LVU9
  69 001c 0120     		movs	r0, #1
  70 001e FFF7FEFF 		bl	vTaskDelay
  71              	.LVL6:
  72              	.L2:
  15:task/attitude/src/bsp_i2c.c ****     {
  73              		.loc 1 15 11 view .LVU10
  74 0022 7CB1     		cbz	r4, .L6
  17:task/attitude/src/bsp_i2c.c ****                                        slave_addr << 1,
  75              		.loc 1 17 9 view .LVU11
  17:task/attitude/src/bsp_i2c.c ****                                        slave_addr << 1,
  76              		.loc 1 17 22 is_stmt 0 view .LVU12
  77 0024 4FF47A74 		mov	r4, #1000
  78              	.LVL7:
  17:task/attitude/src/bsp_i2c.c ****                                        slave_addr << 1,
  79              		.loc 1 17 22 view .LVU13
  80 0028 0294     		str	r4, [sp, #8]
ARM GAS  C:\Users\Legend\AppData\Local\Temp\ccE6DPio.s 			page 3


  81 002a 0196     		str	r6, [sp, #4]
  82 002c 0095     		str	r5, [sp]
  83 002e 0123     		movs	r3, #1
  84 0030 3A46     		mov	r2, r7
  85 0032 08FA03F1 		lsl	r1, r8, r3
  86 0036 0548     		ldr	r0, .L8
  87 0038 FFF7FEFF 		bl	HAL_I2C_Mem_Write
  88              	.LVL8:
  17:task/attitude/src/bsp_i2c.c ****                                        slave_addr << 1,
  89              		.loc 1 17 20 view .LVU14
  90 003c 0446     		mov	r4, r0
  91              	.LVL9:
  25:task/attitude/src/bsp_i2c.c ****         {
  92              		.loc 1 25 9 is_stmt 1 view .LVU15
  25:task/attitude/src/bsp_i2c.c ****         {
  93              		.loc 1 25 12 is_stmt 0 view .LVU16
  94 003e 0028     		cmp	r0, #0
  95 0040 EFD0     		beq	.L2
  96 0042 E6E7     		b	.L7
  97              	.LVL10:
  98              	.L6:
  31:task/attitude/src/bsp_i2c.c ****         }
  32:task/attitude/src/bsp_i2c.c ****     }
  33:task/attitude/src/bsp_i2c.c ****     return iic_status;
  99              		.loc 1 33 5 is_stmt 1 view .LVU17
  34:task/attitude/src/bsp_i2c.c **** }
 100              		.loc 1 34 1 is_stmt 0 view .LVU18
 101 0044 2046     		mov	r0, r4
 102 0046 04B0     		add	sp, sp, #16
 103              	.LCFI2:
 104              		.cfi_def_cfa_offset 24
 105              		@ sp needed
 106 0048 BDE8F081 		pop	{r4, r5, r6, r7, r8, pc}
 107              	.LVL11:
 108              	.L9:
 109              		.loc 1 34 1 view .LVU19
 110              		.align	2
 111              	.L8:
 112 004c 00000000 		.word	hi2c4
 113              		.cfi_endproc
 114              	.LFE145:
 116              		.section	.text.Sensors_I2C_ReadRegister,"ax",%progbits
 117              		.align	1
 118              		.global	Sensors_I2C_ReadRegister
 119              		.syntax unified
 120              		.thumb
 121              		.thumb_func
 122              		.fpu fpv5-d16
 124              	Sensors_I2C_ReadRegister:
 125              	.LVL12:
 126              	.LFB146:
  35:task/attitude/src/bsp_i2c.c **** 
  36:task/attitude/src/bsp_i2c.c **** /*
  37:task/attitude/src/bsp_i2c.c ****  *读数据
  38:task/attitude/src/bsp_i2c.c ****  */
  39:task/attitude/src/bsp_i2c.c **** int Sensors_I2C_ReadRegister(unsigned char slave_addr,
  40:task/attitude/src/bsp_i2c.c ****                              unsigned char reg_addr,
ARM GAS  C:\Users\Legend\AppData\Local\Temp\ccE6DPio.s 			page 4


  41:task/attitude/src/bsp_i2c.c ****                              unsigned short len,
  42:task/attitude/src/bsp_i2c.c ****                              unsigned char *data_ptr)
  43:task/attitude/src/bsp_i2c.c **** {
 127              		.loc 1 43 1 is_stmt 1 view -0
 128              		.cfi_startproc
 129              		@ args = 0, pretend = 0, frame = 0
 130              		@ frame_needed = 0, uses_anonymous_args = 0
 131              		.loc 1 43 1 is_stmt 0 view .LVU21
 132 0000 2DE9F041 		push	{r4, r5, r6, r7, r8, lr}
 133              	.LCFI3:
 134              		.cfi_def_cfa_offset 24
 135              		.cfi_offset 4, -24
 136              		.cfi_offset 5, -20
 137              		.cfi_offset 6, -16
 138              		.cfi_offset 7, -12
 139              		.cfi_offset 8, -8
 140              		.cfi_offset 14, -4
 141 0004 84B0     		sub	sp, sp, #16
 142              	.LCFI4:
 143              		.cfi_def_cfa_offset 40
 144 0006 0746     		mov	r7, r0
 145 0008 0E46     		mov	r6, r1
 146 000a 1546     		mov	r5, r2
 147 000c 1C46     		mov	r4, r3
  44:task/attitude/src/bsp_i2c.c ****     int iic_status = HAL_ERROR;
 148              		.loc 1 44 5 is_stmt 1 view .LVU22
 149              	.LVL13:
  45:task/attitude/src/bsp_i2c.c ****     while (iic_status != HAL_OK)
 150              		.loc 1 45 5 view .LVU23
  44:task/attitude/src/bsp_i2c.c ****     int iic_status = HAL_ERROR;
 151              		.loc 1 44 9 is_stmt 0 view .LVU24
 152 000e 4FF00108 		mov	r8, #1
 153              		.loc 1 45 11 view .LVU25
 154 0012 07E0     		b	.L11
 155              	.LVL14:
 156              	.L16:
  46:task/attitude/src/bsp_i2c.c ****     {
  47:task/attitude/src/bsp_i2c.c ****         iic_status = HAL_I2C_Mem_Read(&hi2c4,
  48:task/attitude/src/bsp_i2c.c ****                                       (slave_addr << 1) + 1,
  49:task/attitude/src/bsp_i2c.c ****                                       reg_addr,
  50:task/attitude/src/bsp_i2c.c ****                                       I2C_MEMADD_SIZE_8BIT,
  51:task/attitude/src/bsp_i2c.c ****                                       data_ptr,
  52:task/attitude/src/bsp_i2c.c ****                                       len,
  53:task/attitude/src/bsp_i2c.c ****                                       1000);
  54:task/attitude/src/bsp_i2c.c ****         //检查通讯状态
  55:task/attitude/src/bsp_i2c.c ****         if (iic_status != HAL_OK)
  56:task/attitude/src/bsp_i2c.c ****         {
  57:task/attitude/src/bsp_i2c.c ****             //出错处理
  58:task/attitude/src/bsp_i2c.c ****             HAL_I2C_DeInit(&hi2c4);
 157              		.loc 1 58 13 is_stmt 1 view .LVU26
 158 0014 0F48     		ldr	r0, .L17
 159              	.LVL15:
 160              		.loc 1 58 13 is_stmt 0 view .LVU27
 161 0016 FFF7FEFF 		bl	HAL_I2C_DeInit
 162              	.LVL16:
  59:task/attitude/src/bsp_i2c.c ****             MX_I2C4_Init();
 163              		.loc 1 59 13 is_stmt 1 view .LVU28
ARM GAS  C:\Users\Legend\AppData\Local\Temp\ccE6DPio.s 			page 5


 164 001a FFF7FEFF 		bl	MX_I2C4_Init
 165              	.LVL17:
  60:task/attitude/src/bsp_i2c.c ****             bsp_i2c_Delay(1);
 166              		.loc 1 60 13 view .LVU29
 167 001e 0120     		movs	r0, #1
 168 0020 FFF7FEFF 		bl	vTaskDelay
 169              	.LVL18:
 170              	.L11:
  45:task/attitude/src/bsp_i2c.c ****     {
 171              		.loc 1 45 11 view .LVU30
 172 0024 B8F1000F 		cmp	r8, #0
 173 0028 0FD0     		beq	.L15
  47:task/attitude/src/bsp_i2c.c ****                                       (slave_addr << 1) + 1,
 174              		.loc 1 47 9 view .LVU31
  48:task/attitude/src/bsp_i2c.c ****                                       reg_addr,
 175              		.loc 1 48 51 is_stmt 0 view .LVU32
 176 002a 7900     		lsls	r1, r7, #1
  47:task/attitude/src/bsp_i2c.c ****                                       (slave_addr << 1) + 1,
 177              		.loc 1 47 22 view .LVU33
 178 002c 4FF47A73 		mov	r3, #1000
 179 0030 0293     		str	r3, [sp, #8]
 180 0032 0195     		str	r5, [sp, #4]
 181 0034 0094     		str	r4, [sp]
 182 0036 0123     		movs	r3, #1
 183 0038 3246     		mov	r2, r6
 184 003a 1944     		add	r1, r1, r3
 185 003c 0548     		ldr	r0, .L17
 186 003e FFF7FEFF 		bl	HAL_I2C_Mem_Read
 187              	.LVL19:
  47:task/attitude/src/bsp_i2c.c ****                                       (slave_addr << 1) + 1,
 188              		.loc 1 47 20 view .LVU34
 189 0042 8046     		mov	r8, r0
 190              	.LVL20:
  55:task/attitude/src/bsp_i2c.c ****         {
 191              		.loc 1 55 9 is_stmt 1 view .LVU35
  55:task/attitude/src/bsp_i2c.c ****         {
 192              		.loc 1 55 12 is_stmt 0 view .LVU36
 193 0044 0028     		cmp	r0, #0
 194 0046 EDD0     		beq	.L11
 195 0048 E4E7     		b	.L16
 196              	.LVL21:
 197              	.L15:
  61:task/attitude/src/bsp_i2c.c ****         }
  62:task/attitude/src/bsp_i2c.c ****     }
  63:task/attitude/src/bsp_i2c.c ****     return iic_status;
 198              		.loc 1 63 5 is_stmt 1 view .LVU37
  64:task/attitude/src/bsp_i2c.c **** }
 199              		.loc 1 64 1 is_stmt 0 view .LVU38
 200 004a 4046     		mov	r0, r8
 201 004c 04B0     		add	sp, sp, #16
 202              	.LCFI5:
 203              		.cfi_def_cfa_offset 24
 204              		@ sp needed
 205 004e BDE8F081 		pop	{r4, r5, r6, r7, r8, pc}
 206              	.LVL22:
 207              	.L18:
 208              		.loc 1 64 1 view .LVU39
ARM GAS  C:\Users\Legend\AppData\Local\Temp\ccE6DPio.s 			page 6


 209 0052 00BF     		.align	2
 210              	.L17:
 211 0054 00000000 		.word	hi2c4
 212              		.cfi_endproc
 213              	.LFE146:
 215              		.section	.text.get_tick_count,"ax",%progbits
 216              		.align	1
 217              		.global	get_tick_count
 218              		.syntax unified
 219              		.thumb
 220              		.thumb_func
 221              		.fpu fpv5-d16
 223              	get_tick_count:
 224              	.LVL23:
 225              	.LFB147:
  65:task/attitude/src/bsp_i2c.c **** 
  66:task/attitude/src/bsp_i2c.c **** /**
  67:task/attitude/src/bsp_i2c.c ****   * @brief  获取当前毫秒值
  68:task/attitude/src/bsp_i2c.c ****   * @param  存储最新毫秒值的变量
  69:task/attitude/src/bsp_i2c.c ****   * @retval 无
  70:task/attitude/src/bsp_i2c.c ****   */
  71:task/attitude/src/bsp_i2c.c **** int get_tick_count(unsigned long *count)
  72:task/attitude/src/bsp_i2c.c **** {
 226              		.loc 1 72 1 is_stmt 1 view -0
 227              		.cfi_startproc
 228              		@ args = 0, pretend = 0, frame = 0
 229              		@ frame_needed = 0, uses_anonymous_args = 0
 230              		.loc 1 72 1 is_stmt 0 view .LVU41
 231 0000 10B5     		push	{r4, lr}
 232              	.LCFI6:
 233              		.cfi_def_cfa_offset 8
 234              		.cfi_offset 4, -8
 235              		.cfi_offset 14, -4
 236 0002 0446     		mov	r4, r0
  73:task/attitude/src/bsp_i2c.c ****     count[0] = xTaskGetTickCount();
 237              		.loc 1 73 5 is_stmt 1 view .LVU42
 238              		.loc 1 73 16 is_stmt 0 view .LVU43
 239 0004 FFF7FEFF 		bl	xTaskGetTickCount
 240              	.LVL24:
 241              		.loc 1 73 14 view .LVU44
 242 0008 2060     		str	r0, [r4]
  74:task/attitude/src/bsp_i2c.c ****     //count[0] = HAL_GetTick();
  75:task/attitude/src/bsp_i2c.c ****     return count[0];
 243              		.loc 1 75 5 is_stmt 1 view .LVU45
  76:task/attitude/src/bsp_i2c.c **** }
 244              		.loc 1 76 1 is_stmt 0 view .LVU46
 245 000a 10BD     		pop	{r4, pc}
 246              		.loc 1 76 1 view .LVU47
 247              		.cfi_endproc
 248              	.LFE147:
 250              		.text
 251              	.Letext0:
 252              		.file 2 "f:\\prosoft\\gcc_arm_none\\2019q4\\9 2019-q4-major\\arm-none-eabi\\include\\machine\\_def
 253              		.file 3 "f:\\prosoft\\gcc_arm_none\\2019q4\\9 2019-q4-major\\arm-none-eabi\\include\\sys\\_stdint.
 254              		.file 4 "Drivers/CMSIS/Include/core_cm7.h"
 255              		.file 5 "Drivers/CMSIS/Device/ST/STM32F7xx/Include/system_stm32f7xx.h"
 256              		.file 6 "Drivers/CMSIS/Device/ST/STM32F7xx/Include/stm32f767xx.h"
ARM GAS  C:\Users\Legend\AppData\Local\Temp\ccE6DPio.s 			page 7


 257              		.file 7 "Drivers/STM32F7xx_HAL_Driver/Inc/stm32f7xx_hal_def.h"
 258              		.file 8 "Drivers/STM32F7xx_HAL_Driver/Inc/stm32f7xx_hal_dma.h"
 259              		.file 9 "Drivers/STM32F7xx_HAL_Driver/Inc/stm32f7xx_hal_i2c.h"
 260              		.file 10 "Drivers/STM32F7xx_HAL_Driver/Inc/stm32f7xx_hal.h"
 261              		.file 11 "Inc/i2c.h"
 262              		.file 12 "Middlewares/Third_Party/FreeRTOS/Source/include/task.h"
ARM GAS  C:\Users\Legend\AppData\Local\Temp\ccE6DPio.s 			page 8

