Archive member included to satisfy reference by file (symbol)

f:/prosoft/gcc_arm_none/2019q4/9 2019-q4-major/bin/../lib/gcc/arm-none-eabi/9.2.1/../../../../arm-none-eabi/lib/thumb/v7e-m+dp/hard\libc_nano.a(lib_a-exit.o)
                              f:/prosoft/gcc_arm_none/2019q4/9 2019-q4-major/bin/../lib/gcc/arm-none-eabi/9.2.1/../../../../arm-none-eabi/lib/thumb/v7e-m+dp/hard/crt0.o (exit)
f:/prosoft/gcc_arm_none/2019q4/9 2019-q4-major/bin/../lib/gcc/arm-none-eabi/9.2.1/../../../../arm-none-eabi/lib/thumb/v7e-m+dp/hard\libc_nano.a(lib_a-impure.o)
                              f:/prosoft/gcc_arm_none/2019q4/9 2019-q4-major/bin/../lib/gcc/arm-none-eabi/9.2.1/../../../../arm-none-eabi/lib/thumb/v7e-m+dp/hard\libc_nano.a(lib_a-exit.o) (_global_impure_ptr)
f:/prosoft/gcc_arm_none/2019q4/9 2019-q4-major/bin/../lib/gcc/arm-none-eabi/9.2.1/../../../../arm-none-eabi/lib/thumb/v7e-m+dp/hard\libc_nano.a(lib_a-init.o)
                              f:/prosoft/gcc_arm_none/2019q4/9 2019-q4-major/bin/../lib/gcc/arm-none-eabi/9.2.1/../../../../arm-none-eabi/lib/thumb/v7e-m+dp/hard/crt0.o (__libc_init_array)
f:/prosoft/gcc_arm_none/2019q4/9 2019-q4-major/bin/../lib/gcc/arm-none-eabi/9.2.1/../../../../arm-none-eabi/lib/thumb/v7e-m+dp/hard\libc_nano.a(lib_a-memcpy-stub.o)
                              build/queue.o (memcpy)
f:/prosoft/gcc_arm_none/2019q4/9 2019-q4-major/bin/../lib/gcc/arm-none-eabi/9.2.1/../../../../arm-none-eabi/lib/thumb/v7e-m+dp/hard\libc_nano.a(lib_a-memset.o)
                              f:/prosoft/gcc_arm_none/2019q4/9 2019-q4-major/bin/../lib/gcc/arm-none-eabi/9.2.1/../../../../arm-none-eabi/lib/thumb/v7e-m+dp/hard/crt0.o (memset)
f:/prosoft/gcc_arm_none/2019q4/9 2019-q4-major/bin/../lib/gcc/arm-none-eabi/9.2.1/../../../../arm-none-eabi/lib/thumb/v7e-m+dp/hard\libc_nano.a(lib_a-nano-vfprintf_float.o)
                              (_printf_float)
f:/prosoft/gcc_arm_none/2019q4/9 2019-q4-major/bin/../lib/gcc/arm-none-eabi/9.2.1/../../../../arm-none-eabi/lib/thumb/v7e-m+dp/hard\libc_nano.a(lib_a-nano-vfprintf_i.o)
                              f:/prosoft/gcc_arm_none/2019q4/9 2019-q4-major/bin/../lib/gcc/arm-none-eabi/9.2.1/../../../../arm-none-eabi/lib/thumb/v7e-m+dp/hard\libc_nano.a(lib_a-nano-vfprintf_float.o) (_printf_common)
f:/prosoft/gcc_arm_none/2019q4/9 2019-q4-major/bin/../lib/gcc/arm-none-eabi/9.2.1/../../../../arm-none-eabi/lib/thumb/v7e-m+dp/hard\libc_nano.a(lib_a-printf.o)
                              build/inv_mpu.o (printf)
f:/prosoft/gcc_arm_none/2019q4/9 2019-q4-major/bin/../lib/gcc/arm-none-eabi/9.2.1/../../../../arm-none-eabi/lib/thumb/v7e-m+dp/hard\libc_nano.a(lib_a-strlen.o)
                              f:/prosoft/gcc_arm_none/2019q4/9 2019-q4-major/bin/../lib/gcc/arm-none-eabi/9.2.1/../../../../arm-none-eabi/lib/thumb/v7e-m+dp/hard\libc_nano.a(lib_a-nano-vfprintf_float.o) (strlen)
f:/prosoft/gcc_arm_none/2019q4/9 2019-q4-major/bin/../lib/gcc/arm-none-eabi/9.2.1/../../../../arm-none-eabi/lib/thumb/v7e-m+dp/hard\libc_nano.a(lib_a-dtoa.o)
                              f:/prosoft/gcc_arm_none/2019q4/9 2019-q4-major/bin/../lib/gcc/arm-none-eabi/9.2.1/../../../../arm-none-eabi/lib/thumb/v7e-m+dp/hard\libc_nano.a(lib_a-nano-vfprintf_float.o) (_dtoa_r)
f:/prosoft/gcc_arm_none/2019q4/9 2019-q4-major/bin/../lib/gcc/arm-none-eabi/9.2.1/../../../../arm-none-eabi/lib/thumb/v7e-m+dp/hard\libc_nano.a(lib_a-findfp.o)
                              f:/prosoft/gcc_arm_none/2019q4/9 2019-q4-major/bin/../lib/gcc/arm-none-eabi/9.2.1/../../../../arm-none-eabi/lib/thumb/v7e-m+dp/hard\libc_nano.a(lib_a-printf.o) (__sinit)
f:/prosoft/gcc_arm_none/2019q4/9 2019-q4-major/bin/../lib/gcc/arm-none-eabi/9.2.1/../../../../arm-none-eabi/lib/thumb/v7e-m+dp/hard\libc_nano.a(lib_a-fwalk.o)
                              f:/prosoft/gcc_arm_none/2019q4/9 2019-q4-major/bin/../lib/gcc/arm-none-eabi/9.2.1/../../../../arm-none-eabi/lib/thumb/v7e-m+dp/hard\libc_nano.a(lib_a-findfp.o) (_fwalk)
f:/prosoft/gcc_arm_none/2019q4/9 2019-q4-major/bin/../lib/gcc/arm-none-eabi/9.2.1/../../../../arm-none-eabi/lib/thumb/v7e-m+dp/hard\libc_nano.a(lib_a-localeconv.o)
                              f:/prosoft/gcc_arm_none/2019q4/9 2019-q4-major/bin/../lib/gcc/arm-none-eabi/9.2.1/../../../../arm-none-eabi/lib/thumb/v7e-m+dp/hard\libc_nano.a(lib_a-nano-vfprintf_float.o) (_localeconv_r)
f:/prosoft/gcc_arm_none/2019q4/9 2019-q4-major/bin/../lib/gcc/arm-none-eabi/9.2.1/../../../../arm-none-eabi/lib/thumb/v7e-m+dp/hard\libc_nano.a(lib_a-lock.o)
                              f:/prosoft/gcc_arm_none/2019q4/9 2019-q4-major/bin/../lib/gcc/arm-none-eabi/9.2.1/../../../../arm-none-eabi/lib/thumb/v7e-m+dp/hard\libc_nano.a(lib_a-findfp.o) (__retarget_lock_init_recursive)
f:/prosoft/gcc_arm_none/2019q4/9 2019-q4-major/bin/../lib/gcc/arm-none-eabi/9.2.1/../../../../arm-none-eabi/lib/thumb/v7e-m+dp/hard\libc_nano.a(lib_a-malloc.o)
                              f:/prosoft/gcc_arm_none/2019q4/9 2019-q4-major/bin/../lib/gcc/arm-none-eabi/9.2.1/../../../../arm-none-eabi/lib/thumb/v7e-m+dp/hard\libc_nano.a(lib_a-dtoa.o) (malloc)
f:/prosoft/gcc_arm_none/2019q4/9 2019-q4-major/bin/../lib/gcc/arm-none-eabi/9.2.1/../../../../arm-none-eabi/lib/thumb/v7e-m+dp/hard\libc_nano.a(lib_a-memchr.o)
                              f:/prosoft/gcc_arm_none/2019q4/9 2019-q4-major/bin/../lib/gcc/arm-none-eabi/9.2.1/../../../../arm-none-eabi/lib/thumb/v7e-m+dp/hard\libc_nano.a(lib_a-nano-vfprintf_i.o) (memchr)
f:/prosoft/gcc_arm_none/2019q4/9 2019-q4-major/bin/../lib/gcc/arm-none-eabi/9.2.1/../../../../arm-none-eabi/lib/thumb/v7e-m+dp/hard\libc_nano.a(lib_a-mprec.o)
                              f:/prosoft/gcc_arm_none/2019q4/9 2019-q4-major/bin/../lib/gcc/arm-none-eabi/9.2.1/../../../../arm-none-eabi/lib/thumb/v7e-m+dp/hard\libc_nano.a(lib_a-dtoa.o) (_Balloc)
f:/prosoft/gcc_arm_none/2019q4/9 2019-q4-major/bin/../lib/gcc/arm-none-eabi/9.2.1/../../../../arm-none-eabi/lib/thumb/v7e-m+dp/hard\libc_nano.a(lib_a-nano-callocr.o)
                              f:/prosoft/gcc_arm_none/2019q4/9 2019-q4-major/bin/../lib/gcc/arm-none-eabi/9.2.1/../../../../arm-none-eabi/lib/thumb/v7e-m+dp/hard\libc_nano.a(lib_a-mprec.o) (_calloc_r)
f:/prosoft/gcc_arm_none/2019q4/9 2019-q4-major/bin/../lib/gcc/arm-none-eabi/9.2.1/../../../../arm-none-eabi/lib/thumb/v7e-m+dp/hard\libc_nano.a(lib_a-nano-freer.o)
                              f:/prosoft/gcc_arm_none/2019q4/9 2019-q4-major/bin/../lib/gcc/arm-none-eabi/9.2.1/../../../../arm-none-eabi/lib/thumb/v7e-m+dp/hard\libc_nano.a(lib_a-malloc.o) (_free_r)
f:/prosoft/gcc_arm_none/2019q4/9 2019-q4-major/bin/../lib/gcc/arm-none-eabi/9.2.1/../../../../arm-none-eabi/lib/thumb/v7e-m+dp/hard\libc_nano.a(lib_a-nano-mallocr.o)
                              f:/prosoft/gcc_arm_none/2019q4/9 2019-q4-major/bin/../lib/gcc/arm-none-eabi/9.2.1/../../../../arm-none-eabi/lib/thumb/v7e-m+dp/hard\libc_nano.a(lib_a-findfp.o) (_malloc_r)
f:/prosoft/gcc_arm_none/2019q4/9 2019-q4-major/bin/../lib/gcc/arm-none-eabi/9.2.1/../../../../arm-none-eabi/lib/thumb/v7e-m+dp/hard\libc_nano.a(lib_a-nano-vfprintf.o)
                              f:/prosoft/gcc_arm_none/2019q4/9 2019-q4-major/bin/../lib/gcc/arm-none-eabi/9.2.1/../../../../arm-none-eabi/lib/thumb/v7e-m+dp/hard\libc_nano.a(lib_a-printf.o) (_vfprintf_r)
f:/prosoft/gcc_arm_none/2019q4/9 2019-q4-major/bin/../lib/gcc/arm-none-eabi/9.2.1/../../../../arm-none-eabi/lib/thumb/v7e-m+dp/hard\libc_nano.a(lib_a-sbrkr.o)
                              f:/prosoft/gcc_arm_none/2019q4/9 2019-q4-major/bin/../lib/gcc/arm-none-eabi/9.2.1/../../../../arm-none-eabi/lib/thumb/v7e-m+dp/hard\libc_nano.a(lib_a-nano-mallocr.o) (_sbrk_r)
f:/prosoft/gcc_arm_none/2019q4/9 2019-q4-major/bin/../lib/gcc/arm-none-eabi/9.2.1/../../../../arm-none-eabi/lib/thumb/v7e-m+dp/hard\libc_nano.a(lib_a-stdio.o)
                              f:/prosoft/gcc_arm_none/2019q4/9 2019-q4-major/bin/../lib/gcc/arm-none-eabi/9.2.1/../../../../arm-none-eabi/lib/thumb/v7e-m+dp/hard\libc_nano.a(lib_a-findfp.o) (__sread)
f:/prosoft/gcc_arm_none/2019q4/9 2019-q4-major/bin/../lib/gcc/arm-none-eabi/9.2.1/../../../../arm-none-eabi/lib/thumb/v7e-m+dp/hard\libc_nano.a(lib_a-wbuf.o)
                              f:/prosoft/gcc_arm_none/2019q4/9 2019-q4-major/bin/../lib/gcc/arm-none-eabi/9.2.1/../../../../arm-none-eabi/lib/thumb/v7e-m+dp/hard\libc_nano.a(lib_a-nano-vfprintf.o) (__swbuf_r)
f:/prosoft/gcc_arm_none/2019q4/9 2019-q4-major/bin/../lib/gcc/arm-none-eabi/9.2.1/../../../../arm-none-eabi/lib/thumb/v7e-m+dp/hard\libc_nano.a(lib_a-writer.o)
                              f:/prosoft/gcc_arm_none/2019q4/9 2019-q4-major/bin/../lib/gcc/arm-none-eabi/9.2.1/../../../../arm-none-eabi/lib/thumb/v7e-m+dp/hard\libc_nano.a(lib_a-stdio.o) (_write_r)
f:/prosoft/gcc_arm_none/2019q4/9 2019-q4-major/bin/../lib/gcc/arm-none-eabi/9.2.1/../../../../arm-none-eabi/lib/thumb/v7e-m+dp/hard\libc_nano.a(lib_a-wsetup.o)
                              f:/prosoft/gcc_arm_none/2019q4/9 2019-q4-major/bin/../lib/gcc/arm-none-eabi/9.2.1/../../../../arm-none-eabi/lib/thumb/v7e-m+dp/hard\libc_nano.a(lib_a-nano-vfprintf.o) (__swsetup_r)
f:/prosoft/gcc_arm_none/2019q4/9 2019-q4-major/bin/../lib/gcc/arm-none-eabi/9.2.1/../../../../arm-none-eabi/lib/thumb/v7e-m+dp/hard\libc_nano.a(lib_a-closer.o)
                              f:/prosoft/gcc_arm_none/2019q4/9 2019-q4-major/bin/../lib/gcc/arm-none-eabi/9.2.1/../../../../arm-none-eabi/lib/thumb/v7e-m+dp/hard\libc_nano.a(lib_a-stdio.o) (_close_r)
f:/prosoft/gcc_arm_none/2019q4/9 2019-q4-major/bin/../lib/gcc/arm-none-eabi/9.2.1/../../../../arm-none-eabi/lib/thumb/v7e-m+dp/hard\libc_nano.a(lib_a-fflush.o)
                              f:/prosoft/gcc_arm_none/2019q4/9 2019-q4-major/bin/../lib/gcc/arm-none-eabi/9.2.1/../../../../arm-none-eabi/lib/thumb/v7e-m+dp/hard\libc_nano.a(lib_a-findfp.o) (_fflush_r)
f:/prosoft/gcc_arm_none/2019q4/9 2019-q4-major/bin/../lib/gcc/arm-none-eabi/9.2.1/../../../../arm-none-eabi/lib/thumb/v7e-m+dp/hard\libc_nano.a(lib_a-fvwrite.o)
                              f:/prosoft/gcc_arm_none/2019q4/9 2019-q4-major/bin/../lib/gcc/arm-none-eabi/9.2.1/../../../../arm-none-eabi/lib/thumb/v7e-m+dp/hard\libc_nano.a(lib_a-nano-vfprintf.o) (__sfvwrite_r)
f:/prosoft/gcc_arm_none/2019q4/9 2019-q4-major/bin/../lib/gcc/arm-none-eabi/9.2.1/../../../../arm-none-eabi/lib/thumb/v7e-m+dp/hard\libc_nano.a(lib_a-locale.o)
                              f:/prosoft/gcc_arm_none/2019q4/9 2019-q4-major/bin/../lib/gcc/arm-none-eabi/9.2.1/../../../../arm-none-eabi/lib/thumb/v7e-m+dp/hard\libc_nano.a(lib_a-localeconv.o) (__global_locale)
f:/prosoft/gcc_arm_none/2019q4/9 2019-q4-major/bin/../lib/gcc/arm-none-eabi/9.2.1/../../../../arm-none-eabi/lib/thumb/v7e-m+dp/hard\libc_nano.a(lib_a-lseekr.o)
                              f:/prosoft/gcc_arm_none/2019q4/9 2019-q4-major/bin/../lib/gcc/arm-none-eabi/9.2.1/../../../../arm-none-eabi/lib/thumb/v7e-m+dp/hard\libc_nano.a(lib_a-stdio.o) (_lseek_r)
f:/prosoft/gcc_arm_none/2019q4/9 2019-q4-major/bin/../lib/gcc/arm-none-eabi/9.2.1/../../../../arm-none-eabi/lib/thumb/v7e-m+dp/hard\libc_nano.a(lib_a-makebuf.o)
                              f:/prosoft/gcc_arm_none/2019q4/9 2019-q4-major/bin/../lib/gcc/arm-none-eabi/9.2.1/../../../../arm-none-eabi/lib/thumb/v7e-m+dp/hard\libc_nano.a(lib_a-wsetup.o) (__smakebuf_r)
f:/prosoft/gcc_arm_none/2019q4/9 2019-q4-major/bin/../lib/gcc/arm-none-eabi/9.2.1/../../../../arm-none-eabi/lib/thumb/v7e-m+dp/hard\libc_nano.a(lib_a-mbtowc_r.o)
                              f:/prosoft/gcc_arm_none/2019q4/9 2019-q4-major/bin/../lib/gcc/arm-none-eabi/9.2.1/../../../../arm-none-eabi/lib/thumb/v7e-m+dp/hard\libc_nano.a(lib_a-locale.o) (__ascii_mbtowc)
f:/prosoft/gcc_arm_none/2019q4/9 2019-q4-major/bin/../lib/gcc/arm-none-eabi/9.2.1/../../../../arm-none-eabi/lib/thumb/v7e-m+dp/hard\libc_nano.a(lib_a-memmove.o)
                              f:/prosoft/gcc_arm_none/2019q4/9 2019-q4-major/bin/../lib/gcc/arm-none-eabi/9.2.1/../../../../arm-none-eabi/lib/thumb/v7e-m+dp/hard\libc_nano.a(lib_a-fvwrite.o) (memmove)
f:/prosoft/gcc_arm_none/2019q4/9 2019-q4-major/bin/../lib/gcc/arm-none-eabi/9.2.1/../../../../arm-none-eabi/lib/thumb/v7e-m+dp/hard\libc_nano.a(lib_a-mlock.o)
                              f:/prosoft/gcc_arm_none/2019q4/9 2019-q4-major/bin/../lib/gcc/arm-none-eabi/9.2.1/../../../../arm-none-eabi/lib/thumb/v7e-m+dp/hard\libc_nano.a(lib_a-nano-freer.o) (__malloc_lock)
f:/prosoft/gcc_arm_none/2019q4/9 2019-q4-major/bin/../lib/gcc/arm-none-eabi/9.2.1/../../../../arm-none-eabi/lib/thumb/v7e-m+dp/hard\libc_nano.a(lib_a-nano-reallocr.o)
                              f:/prosoft/gcc_arm_none/2019q4/9 2019-q4-major/bin/../lib/gcc/arm-none-eabi/9.2.1/../../../../arm-none-eabi/lib/thumb/v7e-m+dp/hard\libc_nano.a(lib_a-fvwrite.o) (_realloc_r)
f:/prosoft/gcc_arm_none/2019q4/9 2019-q4-major/bin/../lib/gcc/arm-none-eabi/9.2.1/../../../../arm-none-eabi/lib/thumb/v7e-m+dp/hard\libc_nano.a(lib_a-readr.o)
                              f:/prosoft/gcc_arm_none/2019q4/9 2019-q4-major/bin/../lib/gcc/arm-none-eabi/9.2.1/../../../../arm-none-eabi/lib/thumb/v7e-m+dp/hard\libc_nano.a(lib_a-stdio.o) (_read_r)
f:/prosoft/gcc_arm_none/2019q4/9 2019-q4-major/bin/../lib/gcc/arm-none-eabi/9.2.1/../../../../arm-none-eabi/lib/thumb/v7e-m+dp/hard\libc_nano.a(lib_a-reent.o)
                              f:/prosoft/gcc_arm_none/2019q4/9 2019-q4-major/bin/../lib/gcc/arm-none-eabi/9.2.1/../../../../arm-none-eabi/lib/thumb/v7e-m+dp/hard\libc_nano.a(lib_a-sbrkr.o) (errno)
f:/prosoft/gcc_arm_none/2019q4/9 2019-q4-major/bin/../lib/gcc/arm-none-eabi/9.2.1/../../../../arm-none-eabi/lib/thumb/v7e-m+dp/hard\libc_nano.a(lib_a-strcmp.o)
                              f:/prosoft/gcc_arm_none/2019q4/9 2019-q4-major/bin/../lib/gcc/arm-none-eabi/9.2.1/../../../../arm-none-eabi/lib/thumb/v7e-m+dp/hard\libc_nano.a(lib_a-locale.o) (strcmp)
f:/prosoft/gcc_arm_none/2019q4/9 2019-q4-major/bin/../lib/gcc/arm-none-eabi/9.2.1/../../../../arm-none-eabi/lib/thumb/v7e-m+dp/hard\libc_nano.a(lib_a-wctomb_r.o)
                              f:/prosoft/gcc_arm_none/2019q4/9 2019-q4-major/bin/../lib/gcc/arm-none-eabi/9.2.1/../../../../arm-none-eabi/lib/thumb/v7e-m+dp/hard\libc_nano.a(lib_a-locale.o) (__ascii_wctomb)
f:/prosoft/gcc_arm_none/2019q4/9 2019-q4-major/bin/../lib/gcc/arm-none-eabi/9.2.1/../../../../arm-none-eabi/lib/thumb/v7e-m+dp/hard\libc_nano.a(lib_a-ctype_.o)
                              f:/prosoft/gcc_arm_none/2019q4/9 2019-q4-major/bin/../lib/gcc/arm-none-eabi/9.2.1/../../../../arm-none-eabi/lib/thumb/v7e-m+dp/hard\libc_nano.a(lib_a-locale.o) (_ctype_)
f:/prosoft/gcc_arm_none/2019q4/9 2019-q4-major/bin/../lib/gcc/arm-none-eabi/9.2.1/../../../../arm-none-eabi/lib/thumb/v7e-m+dp/hard\libc_nano.a(lib_a-fstatr.o)
                              f:/prosoft/gcc_arm_none/2019q4/9 2019-q4-major/bin/../lib/gcc/arm-none-eabi/9.2.1/../../../../arm-none-eabi/lib/thumb/v7e-m+dp/hard\libc_nano.a(lib_a-makebuf.o) (_fstat_r)
f:/prosoft/gcc_arm_none/2019q4/9 2019-q4-major/bin/../lib/gcc/arm-none-eabi/9.2.1/../../../../arm-none-eabi/lib/thumb/v7e-m+dp/hard\libc_nano.a(lib_a-isattyr.o)
                              f:/prosoft/gcc_arm_none/2019q4/9 2019-q4-major/bin/../lib/gcc/arm-none-eabi/9.2.1/../../../../arm-none-eabi/lib/thumb/v7e-m+dp/hard\libc_nano.a(lib_a-makebuf.o) (_isatty_r)
f:/prosoft/gcc_arm_none/2019q4/9 2019-q4-major/bin/../lib/gcc/arm-none-eabi/9.2.1/../../../../arm-none-eabi/lib/thumb/v7e-m+dp/hard\libc_nano.a(lib_a-nano-msizer.o)
                              f:/prosoft/gcc_arm_none/2019q4/9 2019-q4-major/bin/../lib/gcc/arm-none-eabi/9.2.1/../../../../arm-none-eabi/lib/thumb/v7e-m+dp/hard\libc_nano.a(lib_a-nano-reallocr.o) (_malloc_usable_size_r)
f:/prosoft/gcc_arm_none/2019q4/9 2019-q4-major/bin/../lib/gcc/arm-none-eabi/9.2.1/../../../../arm-none-eabi/lib/thumb/v7e-m+dp/hard\libm.a(lib_a-w_asin.o)
                              build/attitude.o (asin)
f:/prosoft/gcc_arm_none/2019q4/9 2019-q4-major/bin/../lib/gcc/arm-none-eabi/9.2.1/../../../../arm-none-eabi/lib/thumb/v7e-m+dp/hard\libm.a(lib_a-w_atan2.o)
                              build/attitude.o (atan2)
f:/prosoft/gcc_arm_none/2019q4/9 2019-q4-major/bin/../lib/gcc/arm-none-eabi/9.2.1/../../../../arm-none-eabi/lib/thumb/v7e-m+dp/hard\libm.a(lib_a-e_asin.o)
                              f:/prosoft/gcc_arm_none/2019q4/9 2019-q4-major/bin/../lib/gcc/arm-none-eabi/9.2.1/../../../../arm-none-eabi/lib/thumb/v7e-m+dp/hard\libm.a(lib_a-w_asin.o) (__ieee754_asin)
f:/prosoft/gcc_arm_none/2019q4/9 2019-q4-major/bin/../lib/gcc/arm-none-eabi/9.2.1/../../../../arm-none-eabi/lib/thumb/v7e-m+dp/hard\libm.a(lib_a-e_atan2.o)
                              f:/prosoft/gcc_arm_none/2019q4/9 2019-q4-major/bin/../lib/gcc/arm-none-eabi/9.2.1/../../../../arm-none-eabi/lib/thumb/v7e-m+dp/hard\libm.a(lib_a-w_atan2.o) (__ieee754_atan2)
f:/prosoft/gcc_arm_none/2019q4/9 2019-q4-major/bin/../lib/gcc/arm-none-eabi/9.2.1/../../../../arm-none-eabi/lib/thumb/v7e-m+dp/hard\libm.a(lib_a-e_sqrt.o)
                              f:/prosoft/gcc_arm_none/2019q4/9 2019-q4-major/bin/../lib/gcc/arm-none-eabi/9.2.1/../../../../arm-none-eabi/lib/thumb/v7e-m+dp/hard\libm.a(lib_a-e_asin.o) (__ieee754_sqrt)
f:/prosoft/gcc_arm_none/2019q4/9 2019-q4-major/bin/../lib/gcc/arm-none-eabi/9.2.1/../../../../arm-none-eabi/lib/thumb/v7e-m+dp/hard\libm.a(lib_a-s_atan.o)
                              f:/prosoft/gcc_arm_none/2019q4/9 2019-q4-major/bin/../lib/gcc/arm-none-eabi/9.2.1/../../../../arm-none-eabi/lib/thumb/v7e-m+dp/hard\libm.a(lib_a-e_atan2.o) (atan)
f:/prosoft/gcc_arm_none/2019q4/9 2019-q4-major/bin/../lib/gcc/arm-none-eabi/9.2.1/../../../../arm-none-eabi/lib/thumb/v7e-m+dp/hard\libm.a(lib_a-s_fabs.o)
                              f:/prosoft/gcc_arm_none/2019q4/9 2019-q4-major/bin/../lib/gcc/arm-none-eabi/9.2.1/../../../../arm-none-eabi/lib/thumb/v7e-m+dp/hard\libm.a(lib_a-w_asin.o) (fabs)
f:/prosoft/gcc_arm_none/2019q4/9 2019-q4-major/bin/../lib/gcc/arm-none-eabi/9.2.1/../../../../arm-none-eabi/lib/thumb/v7e-m+dp/hard\libm.a(lib_a-s_lib_ver.o)
                              f:/prosoft/gcc_arm_none/2019q4/9 2019-q4-major/bin/../lib/gcc/arm-none-eabi/9.2.1/../../../../arm-none-eabi/lib/thumb/v7e-m+dp/hard\libm.a(lib_a-w_asin.o) (__fdlib_version)
f:/prosoft/gcc_arm_none/2019q4/9 2019-q4-major/bin/../lib/gcc/arm-none-eabi/9.2.1/../../../../arm-none-eabi/lib/thumb/v7e-m+dp/hard\libm.a(lib_a-s_matherr.o)
                              f:/prosoft/gcc_arm_none/2019q4/9 2019-q4-major/bin/../lib/gcc/arm-none-eabi/9.2.1/../../../../arm-none-eabi/lib/thumb/v7e-m+dp/hard\libm.a(lib_a-w_asin.o) (matherr)
f:/prosoft/gcc_arm_none/2019q4/9 2019-q4-major/bin/../lib/gcc/arm-none-eabi/9.2.1/../../../../arm-none-eabi/lib/thumb/v7e-m+dp/hard\libm.a(lib_a-s_nan.o)
                              f:/prosoft/gcc_arm_none/2019q4/9 2019-q4-major/bin/../lib/gcc/arm-none-eabi/9.2.1/../../../../arm-none-eabi/lib/thumb/v7e-m+dp/hard\libm.a(lib_a-w_asin.o) (nan)
f:/prosoft/gcc_arm_none/2019q4/9 2019-q4-major/bin/../lib/gcc/arm-none-eabi/9.2.1/../../../../arm-none-eabi/lib/thumb/v7e-m+dp/hard\libnosys.a(close.o)
                              f:/prosoft/gcc_arm_none/2019q4/9 2019-q4-major/bin/../lib/gcc/arm-none-eabi/9.2.1/../../../../arm-none-eabi/lib/thumb/v7e-m+dp/hard\libc_nano.a(lib_a-closer.o) (_close)
f:/prosoft/gcc_arm_none/2019q4/9 2019-q4-major/bin/../lib/gcc/arm-none-eabi/9.2.1/../../../../arm-none-eabi/lib/thumb/v7e-m+dp/hard\libnosys.a(fstat.o)
                              f:/prosoft/gcc_arm_none/2019q4/9 2019-q4-major/bin/../lib/gcc/arm-none-eabi/9.2.1/../../../../arm-none-eabi/lib/thumb/v7e-m+dp/hard\libc_nano.a(lib_a-fstatr.o) (_fstat)
f:/prosoft/gcc_arm_none/2019q4/9 2019-q4-major/bin/../lib/gcc/arm-none-eabi/9.2.1/../../../../arm-none-eabi/lib/thumb/v7e-m+dp/hard\libnosys.a(isatty.o)
                              f:/prosoft/gcc_arm_none/2019q4/9 2019-q4-major/bin/../lib/gcc/arm-none-eabi/9.2.1/../../../../arm-none-eabi/lib/thumb/v7e-m+dp/hard\libc_nano.a(lib_a-isattyr.o) (_isatty)
f:/prosoft/gcc_arm_none/2019q4/9 2019-q4-major/bin/../lib/gcc/arm-none-eabi/9.2.1/../../../../arm-none-eabi/lib/thumb/v7e-m+dp/hard\libnosys.a(lseek.o)
                              f:/prosoft/gcc_arm_none/2019q4/9 2019-q4-major/bin/../lib/gcc/arm-none-eabi/9.2.1/../../../../arm-none-eabi/lib/thumb/v7e-m+dp/hard\libc_nano.a(lib_a-lseekr.o) (_lseek)
f:/prosoft/gcc_arm_none/2019q4/9 2019-q4-major/bin/../lib/gcc/arm-none-eabi/9.2.1/../../../../arm-none-eabi/lib/thumb/v7e-m+dp/hard\libnosys.a(read.o)
                              f:/prosoft/gcc_arm_none/2019q4/9 2019-q4-major/bin/../lib/gcc/arm-none-eabi/9.2.1/../../../../arm-none-eabi/lib/thumb/v7e-m+dp/hard\libc_nano.a(lib_a-readr.o) (_read)
f:/prosoft/gcc_arm_none/2019q4/9 2019-q4-major/bin/../lib/gcc/arm-none-eabi/9.2.1/../../../../arm-none-eabi/lib/thumb/v7e-m+dp/hard\libnosys.a(sbrk.o)
                              f:/prosoft/gcc_arm_none/2019q4/9 2019-q4-major/bin/../lib/gcc/arm-none-eabi/9.2.1/../../../../arm-none-eabi/lib/thumb/v7e-m+dp/hard\libc_nano.a(lib_a-sbrkr.o) (_sbrk)
f:/prosoft/gcc_arm_none/2019q4/9 2019-q4-major/bin/../lib/gcc/arm-none-eabi/9.2.1/../../../../arm-none-eabi/lib/thumb/v7e-m+dp/hard\libnosys.a(_exit.o)
                              f:/prosoft/gcc_arm_none/2019q4/9 2019-q4-major/bin/../lib/gcc/arm-none-eabi/9.2.1/../../../../arm-none-eabi/lib/thumb/v7e-m+dp/hard\libc_nano.a(lib_a-exit.o) (_exit)
f:/prosoft/gcc_arm_none/2019q4/9 2019-q4-major/bin/../lib/gcc/arm-none-eabi/9.2.1/thumb/v7e-m+dp/hard\libgcc.a(_aeabi_ldivmod.o)
                              build/inv_mpu.o (__aeabi_ldivmod)
f:/prosoft/gcc_arm_none/2019q4/9 2019-q4-major/bin/../lib/gcc/arm-none-eabi/9.2.1/thumb/v7e-m+dp/hard\libgcc.a(_aeabi_uldivmod.o)
                              build/stm32f7xx_hal_rcc.o (__aeabi_uldivmod)
f:/prosoft/gcc_arm_none/2019q4/9 2019-q4-major/bin/../lib/gcc/arm-none-eabi/9.2.1/thumb/v7e-m+dp/hard\libgcc.a(_udivmoddi4.o)
                              f:/prosoft/gcc_arm_none/2019q4/9 2019-q4-major/bin/../lib/gcc/arm-none-eabi/9.2.1/thumb/v7e-m+dp/hard\libgcc.a(_aeabi_ldivmod.o) (__udivmoddi4)
f:/prosoft/gcc_arm_none/2019q4/9 2019-q4-major/bin/../lib/gcc/arm-none-eabi/9.2.1/thumb/v7e-m+dp/hard\libgcc.a(_dvmd_tls.o)
                              f:/prosoft/gcc_arm_none/2019q4/9 2019-q4-major/bin/../lib/gcc/arm-none-eabi/9.2.1/thumb/v7e-m+dp/hard\libgcc.a(_aeabi_ldivmod.o) (__aeabi_ldiv0)
f:/prosoft/gcc_arm_none/2019q4/9 2019-q4-major/bin/../lib/gcc/arm-none-eabi/9.2.1/../../../../arm-none-eabi/lib/thumb/v7e-m+dp/hard\libc_nano.a(lib_a-errno.o)
                              f:/prosoft/gcc_arm_none/2019q4/9 2019-q4-major/bin/../lib/gcc/arm-none-eabi/9.2.1/../../../../arm-none-eabi/lib/thumb/v7e-m+dp/hard\libm.a(lib_a-w_asin.o) (__errno)

Allocating common symbols
Common symbol       size              file

__lock___atexit_recursive_mutex
                    0x1               f:/prosoft/gcc_arm_none/2019q4/9 2019-q4-major/bin/../lib/gcc/arm-none-eabi/9.2.1/../../../../arm-none-eabi/lib/thumb/v7e-m+dp/hard\libc_nano.a(lib_a-lock.o)
defaultTaskHandle   0x4               build/freertos.o
hi2c4               0x4c              build/i2c.o
__lock___arc4random_mutex
                    0x1               f:/prosoft/gcc_arm_none/2019q4/9 2019-q4-major/bin/../lib/gcc/arm-none-eabi/9.2.1/../../../../arm-none-eabi/lib/thumb/v7e-m+dp/hard\libc_nano.a(lib_a-lock.o)
errno               0x4               f:/prosoft/gcc_arm_none/2019q4/9 2019-q4-major/bin/../lib/gcc/arm-none-eabi/9.2.1/../../../../arm-none-eabi/lib/thumb/v7e-m+dp/hard\libc_nano.a(lib_a-reent.o)
AttitudeTaskHandle  0x4               build/attitude_task.o
uwTick              0x4               build/stm32f7xx_hal.o
xQueueRegistry      0x40              build/queue.o
pFlash              0x1c              build/stm32f7xx_hal_flash.o
__lock___env_recursive_mutex
                    0x1               f:/prosoft/gcc_arm_none/2019q4/9 2019-q4-major/bin/../lib/gcc/arm-none-eabi/9.2.1/../../../../arm-none-eabi/lib/thumb/v7e-m+dp/hard\libc_nano.a(lib_a-lock.o)
__lock___sinit_recursive_mutex
                    0x1               f:/prosoft/gcc_arm_none/2019q4/9 2019-q4-major/bin/../lib/gcc/arm-none-eabi/9.2.1/../../../../arm-none-eabi/lib/thumb/v7e-m+dp/hard\libc_nano.a(lib_a-lock.o)
__lock___malloc_recursive_mutex
                    0x1               f:/prosoft/gcc_arm_none/2019q4/9 2019-q4-major/bin/../lib/gcc/arm-none-eabi/9.2.1/../../../../arm-none-eabi/lib/thumb/v7e-m+dp/hard\libc_nano.a(lib_a-lock.o)
huart5              0x80              build/usart.o
htim1               0x40              build/stm32f7xx_hal_timebase_tim.o
__lock___at_quick_exit_mutex
                    0x1               f:/prosoft/gcc_arm_none/2019q4/9 2019-q4-major/bin/../lib/gcc/arm-none-eabi/9.2.1/../../../../arm-none-eabi/lib/thumb/v7e-m+dp/hard\libc_nano.a(lib_a-lock.o)
__lock___dd_hash_mutex
                    0x1               f:/prosoft/gcc_arm_none/2019q4/9 2019-q4-major/bin/../lib/gcc/arm-none-eabi/9.2.1/../../../../arm-none-eabi/lib/thumb/v7e-m+dp/hard\libc_nano.a(lib_a-lock.o)
__lock___tz_mutex   0x1               f:/prosoft/gcc_arm_none/2019q4/9 2019-q4-major/bin/../lib/gcc/arm-none-eabi/9.2.1/../../../../arm-none-eabi/lib/thumb/v7e-m+dp/hard\libc_nano.a(lib_a-lock.o)
__lock___sfp_recursive_mutex
                    0x1               f:/prosoft/gcc_arm_none/2019q4/9 2019-q4-major/bin/../lib/gcc/arm-none-eabi/9.2.1/../../../../arm-none-eabi/lib/thumb/v7e-m+dp/hard\libc_nano.a(lib_a-lock.o)

Discarded input sections

 .text          0x00000000        0x0 f:/prosoft/gcc_arm_none/2019q4/9 2019-q4-major/bin/../lib/gcc/arm-none-eabi/9.2.1/thumb/v7e-m+dp/hard/crti.o
 .data          0x00000000        0x0 f:/prosoft/gcc_arm_none/2019q4/9 2019-q4-major/bin/../lib/gcc/arm-none-eabi/9.2.1/thumb/v7e-m+dp/hard/crti.o
 .bss           0x00000000        0x0 f:/prosoft/gcc_arm_none/2019q4/9 2019-q4-major/bin/../lib/gcc/arm-none-eabi/9.2.1/thumb/v7e-m+dp/hard/crti.o
 .data          0x00000000        0x4 f:/prosoft/gcc_arm_none/2019q4/9 2019-q4-major/bin/../lib/gcc/arm-none-eabi/9.2.1/thumb/v7e-m+dp/hard/crtbegin.o
 .text          0x00000000       0x74 f:/prosoft/gcc_arm_none/2019q4/9 2019-q4-major/bin/../lib/gcc/arm-none-eabi/9.2.1/../../../../arm-none-eabi/lib/thumb/v7e-m+dp/hard/crt0.o
 .data          0x00000000        0x0 f:/prosoft/gcc_arm_none/2019q4/9 2019-q4-major/bin/../lib/gcc/arm-none-eabi/9.2.1/../../../../arm-none-eabi/lib/thumb/v7e-m+dp/hard/crt0.o
 .bss           0x00000000        0x0 f:/prosoft/gcc_arm_none/2019q4/9 2019-q4-major/bin/../lib/gcc/arm-none-eabi/9.2.1/../../../../arm-none-eabi/lib/thumb/v7e-m+dp/hard/crt0.o
 .ARM.extab     0x00000000        0x0 f:/prosoft/gcc_arm_none/2019q4/9 2019-q4-major/bin/../lib/gcc/arm-none-eabi/9.2.1/../../../../arm-none-eabi/lib/thumb/v7e-m+dp/hard/crt0.o
 .ARM.exidx     0x00000000        0x8 f:/prosoft/gcc_arm_none/2019q4/9 2019-q4-major/bin/../lib/gcc/arm-none-eabi/9.2.1/../../../../arm-none-eabi/lib/thumb/v7e-m+dp/hard/crt0.o
 .ARM.attributes
                0x00000000       0x1c f:/prosoft/gcc_arm_none/2019q4/9 2019-q4-major/bin/../lib/gcc/arm-none-eabi/9.2.1/../../../../arm-none-eabi/lib/thumb/v7e-m+dp/hard/crt0.o
 .text          0x00000000        0x0 build/bsp_i2c.o
 .data          0x00000000        0x0 build/bsp_i2c.o
 .bss           0x00000000        0x0 build/bsp_i2c.o
 .text          0x00000000        0x0 build/inv_mpu_dmp_motion_driver.o
 .data          0x00000000        0x0 build/inv_mpu_dmp_motion_driver.o
 .bss           0x00000000        0x0 build/inv_mpu_dmp_motion_driver.o
 .text.dmp_set_gyro_bias
                0x00000000      0x10c build/inv_mpu_dmp_motion_driver.o
 .text.dmp_set_accel_bias
                0x00000000       0xf0 build/inv_mpu_dmp_motion_driver.o
 .text.dmp_get_fifo_rate
                0x00000000       0x10 build/inv_mpu_dmp_motion_driver.o
 .text.dmp_get_pedometer_step_count
                0x00000000       0x44 build/inv_mpu_dmp_motion_driver.o
 .text.dmp_set_pedometer_step_count
                0x00000000       0x30 build/inv_mpu_dmp_motion_driver.o
 .text.dmp_get_pedometer_walk_time
                0x00000000       0x4a build/inv_mpu_dmp_motion_driver.o
 .text.dmp_set_pedometer_walk_time
                0x00000000       0x40 build/inv_mpu_dmp_motion_driver.o
 .text.dmp_get_enabled_features
                0x00000000       0x10 build/inv_mpu_dmp_motion_driver.o
 .rodata.dmp_set_interrupt_mode.str1.4
                0x00000000       0x18 build/inv_mpu_dmp_motion_driver.o
 .text.dmp_set_interrupt_mode
                0x00000000       0x5c build/inv_mpu_dmp_motion_driver.o
 .text.dmp_register_tap_cb
                0x00000000        0xc build/inv_mpu_dmp_motion_driver.o
 .text.dmp_register_android_orient_cb
                0x00000000        0xc build/inv_mpu_dmp_motion_driver.o
 .text          0x00000000        0x0 build/inv_mpu.o
 .data          0x00000000        0x0 build/inv_mpu.o
 .bss           0x00000000        0x0 build/inv_mpu.o
 .text.get_accel_prod_shift
                0x00000000       0xc0 build/inv_mpu.o
 .text.accel_self_test
                0x00000000       0xac build/inv_mpu.o
 .text.gyro_self_test
                0x00000000       0xfc build/inv_mpu.o
 .text.get_st_biases
                0x00000000      0x44c build/inv_mpu.o
 .rodata.mpu_reg_dump.str1.4
                0x00000000        0xd build/inv_mpu.o
 .text.mpu_reg_dump
                0x00000000       0x58 build/inv_mpu.o
 .text.mpu_read_reg
                0x00000000       0x40 build/inv_mpu.o
 .text.mpu_get_gyro_reg
                0x00000000       0x70 build/inv_mpu.o
 .text.mpu_get_accel_reg
                0x00000000       0x70 build/inv_mpu.o
 .text.mpu_get_temperature
                0x00000000       0x90 build/inv_mpu.o
 .text.mpu_read_6500_accel_bias
                0x00000000       0x84 build/inv_mpu.o
 .text.mpu_read_6050_accel_bias
                0x00000000       0x84 build/inv_mpu.o
 .text.mpu_read_6500_gyro_bias
                0x00000000       0x84 build/inv_mpu.o
 .text.mpu_set_gyro_bias_reg
                0x00000000       0x90 build/inv_mpu.o
 .text.mpu_set_accel_bias_6050_reg
                0x00000000       0xc4 build/inv_mpu.o
 .text.mpu_set_accel_bias_6500_reg
                0x00000000       0xc4 build/inv_mpu.o
 .text.mpu_get_gyro_fsr
                0x00000000       0x3c build/inv_mpu.o
 .text.mpu_get_lpf
                0x00000000       0x44 build/inv_mpu.o
 .text.mpu_get_sample_rate
                0x00000000       0x1c build/inv_mpu.o
 .text.mpu_get_compass_sample_rate
                0x00000000        0xa build/inv_mpu.o
 .text.mpu_set_compass_sample_rate
                0x00000000        0x6 build/inv_mpu.o
 .text.mpu_get_gyro_sens
                0x00000000       0x4c build/inv_mpu.o
 .text.mpu_get_accel_sens
                0x00000000       0x4c build/inv_mpu.o
 .text.mpu_get_fifo_config
                0x00000000       0x10 build/inv_mpu.o
 .text.mpu_get_power_state
                0x00000000       0x18 build/inv_mpu.o
 .text.mpu_get_int_status
                0x00000000       0x44 build/inv_mpu.o
 .text.mpu_read_fifo
                0x00000000      0x1f8 build/inv_mpu.o
 .text.mpu_set_int_level
                0x00000000       0x10 build/inv_mpu.o
 .text.mpu_read_mem
                0x00000000       0x74 build/inv_mpu.o
 .text.mpu_run_self_test
                0x00000000      0x108 build/inv_mpu.o
 .text.mpu_get_dmp_state
                0x00000000       0x10 build/inv_mpu.o
 .text.mpu_get_compass_reg
                0x00000000        0x6 build/inv_mpu.o
 .text.mpu_get_compass_fsr
                0x00000000        0x6 build/inv_mpu.o
 .text.mpu_lp_motion_interrupt
                0x00000000       0xcc build/inv_mpu.o
 .rodata        0x00000000        0x6 build/inv_mpu.o
 .text          0x00000000        0x0 build/mpu6050.o
 .data          0x00000000        0x0 build/mpu6050.o
 .bss           0x00000000        0x0 build/mpu6050.o
 .text.MPU6050_Self_Delete
                0x00000000        0x8 build/mpu6050.o
 .text          0x00000000        0x0 build/attitude.o
 .data          0x00000000        0x0 build/attitude.o
 .bss           0x00000000        0x0 build/attitude.o
 .text.attitude_self_delete
                0x00000000        0x8 build/attitude.o
 .text          0x00000000        0x0 build/attitude_task.o
 .data          0x00000000        0x0 build/attitude_task.o
 .bss           0x00000000        0x0 build/attitude_task.o
 .text          0x00000000        0x0 build/printf_redefine.o
 .data          0x00000000        0x0 build/printf_redefine.o
 .bss           0x00000000        0x0 build/printf_redefine.o
 .text          0x00000000        0x0 build/main.o
 .data          0x00000000        0x0 build/main.o
 .bss           0x00000000        0x0 build/main.o
 .text          0x00000000        0x0 build/gpio.o
 .data          0x00000000        0x0 build/gpio.o
 .bss           0x00000000        0x0 build/gpio.o
 .text          0x00000000        0x0 build/freertos.o
 .data          0x00000000        0x0 build/freertos.o
 .bss           0x00000000        0x0 build/freertos.o
 .text          0x00000000        0x0 build/i2c.o
 .data          0x00000000        0x0 build/i2c.o
 .bss           0x00000000        0x0 build/i2c.o
 .text          0x00000000        0x0 build/usart.o
 .data          0x00000000        0x0 build/usart.o
 .bss           0x00000000        0x0 build/usart.o
 .text.HAL_UART_MspDeInit
                0x00000000       0x3c build/usart.o
 .text          0x00000000        0x0 build/stm32f7xx_it.o
 .data          0x00000000        0x0 build/stm32f7xx_it.o
 .bss           0x00000000        0x0 build/stm32f7xx_it.o
 .text          0x00000000        0x0 build/stm32f7xx_hal_msp.o
 .data          0x00000000        0x0 build/stm32f7xx_hal_msp.o
 .bss           0x00000000        0x0 build/stm32f7xx_hal_msp.o
 .text          0x00000000        0x0 build/stm32f7xx_hal_timebase_tim.o
 .data          0x00000000        0x0 build/stm32f7xx_hal_timebase_tim.o
 .bss           0x00000000        0x0 build/stm32f7xx_hal_timebase_tim.o
 .text.HAL_SuspendTick
                0x00000000       0x14 build/stm32f7xx_hal_timebase_tim.o
 .text.HAL_ResumeTick
                0x00000000       0x14 build/stm32f7xx_hal_timebase_tim.o
 .text          0x00000000        0x0 build/stm32f7xx_hal_cortex.o
 .data          0x00000000        0x0 build/stm32f7xx_hal_cortex.o
 .bss           0x00000000        0x0 build/stm32f7xx_hal_cortex.o
 .text.HAL_NVIC_DisableIRQ
                0x00000000       0x24 build/stm32f7xx_hal_cortex.o
 .text.HAL_NVIC_SystemReset
                0x00000000       0x24 build/stm32f7xx_hal_cortex.o
 .text.HAL_SYSTICK_Config
                0x00000000       0x2c build/stm32f7xx_hal_cortex.o
 .text.HAL_MPU_Disable
                0x00000000       0x20 build/stm32f7xx_hal_cortex.o
 .text.HAL_MPU_Enable
                0x00000000       0x24 build/stm32f7xx_hal_cortex.o
 .text.HAL_MPU_ConfigRegion
                0x00000000       0x54 build/stm32f7xx_hal_cortex.o
 .text.HAL_NVIC_GetPriorityGrouping
                0x00000000       0x10 build/stm32f7xx_hal_cortex.o
 .text.HAL_NVIC_GetPriority
                0x00000000       0x5c build/stm32f7xx_hal_cortex.o
 .text.HAL_NVIC_SetPendingIRQ
                0x00000000       0x1c build/stm32f7xx_hal_cortex.o
 .text.HAL_NVIC_GetPendingIRQ
                0x00000000       0x24 build/stm32f7xx_hal_cortex.o
 .text.HAL_NVIC_ClearPendingIRQ
                0x00000000       0x1c build/stm32f7xx_hal_cortex.o
 .text.HAL_NVIC_GetActive
                0x00000000       0x24 build/stm32f7xx_hal_cortex.o
 .text.HAL_SYSTICK_CLKSourceConfig
                0x00000000       0x20 build/stm32f7xx_hal_cortex.o
 .text.HAL_SYSTICK_Callback
                0x00000000        0x2 build/stm32f7xx_hal_cortex.o
 .text.HAL_SYSTICK_IRQHandler
                0x00000000        0x8 build/stm32f7xx_hal_cortex.o
 .text          0x00000000        0x0 build/stm32f7xx_hal_rcc.o
 .data          0x00000000        0x0 build/stm32f7xx_hal_rcc.o
 .bss           0x00000000        0x0 build/stm32f7xx_hal_rcc.o
 .text.HAL_RCC_DeInit
                0x00000000      0x158 build/stm32f7xx_hal_rcc.o
 .text.HAL_RCC_MCOConfig
                0x00000000       0x98 build/stm32f7xx_hal_rcc.o
 .text.HAL_RCC_EnableCSS
                0x00000000       0x10 build/stm32f7xx_hal_rcc.o
 .text.HAL_RCC_DisableCSS
                0x00000000       0x10 build/stm32f7xx_hal_rcc.o
 .text.HAL_RCC_GetOscConfig
                0x00000000       0xe0 build/stm32f7xx_hal_rcc.o
 .text.HAL_RCC_CSSCallback
                0x00000000        0x2 build/stm32f7xx_hal_rcc.o
 .text.HAL_RCC_NMI_IRQHandler
                0x00000000       0x24 build/stm32f7xx_hal_rcc.o
 .text          0x00000000        0x0 build/stm32f7xx_hal_rcc_ex.o
 .data          0x00000000        0x0 build/stm32f7xx_hal_rcc_ex.o
 .bss           0x00000000        0x0 build/stm32f7xx_hal_rcc_ex.o
 .text.HAL_RCCEx_GetPeriphCLKConfig
                0x00000000      0x188 build/stm32f7xx_hal_rcc_ex.o
 .text.HAL_RCCEx_GetPeriphCLKFreq
                0x00000000      0x1e8 build/stm32f7xx_hal_rcc_ex.o
 .text.HAL_RCCEx_EnablePLLI2S
                0x00000000       0x78 build/stm32f7xx_hal_rcc_ex.o
 .text.HAL_RCCEx_DisablePLLI2S
                0x00000000       0x34 build/stm32f7xx_hal_rcc_ex.o
 .text.HAL_RCCEx_EnablePLLSAI
                0x00000000       0x78 build/stm32f7xx_hal_rcc_ex.o
 .text.HAL_RCCEx_DisablePLLSAI
                0x00000000       0x34 build/stm32f7xx_hal_rcc_ex.o
 .text          0x00000000        0x0 build/stm32f7xx_hal_flash.o
 .data          0x00000000        0x0 build/stm32f7xx_hal_flash.o
 .bss           0x00000000        0x0 build/stm32f7xx_hal_flash.o
 .text.FLASH_Program_DoubleWord
                0x00000000       0x30 build/stm32f7xx_hal_flash.o
 .text.FLASH_Program_Word
                0x00000000       0x28 build/stm32f7xx_hal_flash.o
 .text.FLASH_Program_HalfWord
                0x00000000       0x28 build/stm32f7xx_hal_flash.o
 .text.FLASH_Program_Byte
                0x00000000       0x24 build/stm32f7xx_hal_flash.o
 .text.FLASH_SetErrorCode
                0x00000000       0x74 build/stm32f7xx_hal_flash.o
 .text.HAL_FLASH_Program_IT
                0x00000000       0x74 build/stm32f7xx_hal_flash.o
 .text.HAL_FLASH_EndOfOperationCallback
                0x00000000        0x2 build/stm32f7xx_hal_flash.o
 .text.HAL_FLASH_OperationErrorCallback
                0x00000000        0x2 build/stm32f7xx_hal_flash.o
 .text.HAL_FLASH_IRQHandler
                0x00000000      0x10c build/stm32f7xx_hal_flash.o
 .text.HAL_FLASH_Unlock
                0x00000000       0x30 build/stm32f7xx_hal_flash.o
 .text.HAL_FLASH_Lock
                0x00000000       0x14 build/stm32f7xx_hal_flash.o
 .text.HAL_FLASH_OB_Unlock
                0x00000000       0x28 build/stm32f7xx_hal_flash.o
 .text.HAL_FLASH_OB_Lock
                0x00000000       0x14 build/stm32f7xx_hal_flash.o
 .text.HAL_FLASH_GetError
                0x00000000        0xc build/stm32f7xx_hal_flash.o
 .text.FLASH_WaitForLastOperation
                0x00000000       0x64 build/stm32f7xx_hal_flash.o
 .text.HAL_FLASH_Program
                0x00000000       0x7c build/stm32f7xx_hal_flash.o
 .text.HAL_FLASH_OB_Launch
                0x00000000       0x1c build/stm32f7xx_hal_flash.o
 .debug_info    0x00000000      0x8b8 build/stm32f7xx_hal_flash.o
 .debug_abbrev  0x00000000      0x303 build/stm32f7xx_hal_flash.o
 .debug_loc     0x00000000      0x4c4 build/stm32f7xx_hal_flash.o
 .debug_aranges
                0x00000000       0xa0 build/stm32f7xx_hal_flash.o
 .debug_ranges  0x00000000       0x90 build/stm32f7xx_hal_flash.o
 .debug_line    0x00000000      0x7cc build/stm32f7xx_hal_flash.o
 .debug_str     0x00000000      0x5f7 build/stm32f7xx_hal_flash.o
 .comment       0x00000000       0x7a build/stm32f7xx_hal_flash.o
 .debug_frame   0x00000000      0x188 build/stm32f7xx_hal_flash.o
 .ARM.attributes
                0x00000000       0x32 build/stm32f7xx_hal_flash.o
 COMMON         0x00000000       0x1c build/stm32f7xx_hal_flash.o
 .text          0x00000000        0x0 build/stm32f7xx_hal_flash_ex.o
 .data          0x00000000        0x0 build/stm32f7xx_hal_flash_ex.o
 .bss           0x00000000        0x0 build/stm32f7xx_hal_flash_ex.o
 .text.FLASH_MassErase
                0x00000000       0x4c build/stm32f7xx_hal_flash_ex.o
 .text.FLASH_OB_GetWRP
                0x00000000       0x14 build/stm32f7xx_hal_flash_ex.o
 .text.FLASH_OB_GetUser
                0x00000000       0x14 build/stm32f7xx_hal_flash_ex.o
 .text.FLASH_OB_BOR_LevelConfig
                0x00000000       0x14 build/stm32f7xx_hal_flash_ex.o
 .text.FLASH_OB_GetRDP
                0x00000000       0x1c build/stm32f7xx_hal_flash_ex.o
 .text.FLASH_OB_GetBOR
                0x00000000       0x10 build/stm32f7xx_hal_flash_ex.o
 .text.FLASH_OB_GetBootAddress
                0x00000000       0x18 build/stm32f7xx_hal_flash_ex.o
 .text.FLASH_OB_EnableWRP
                0x00000000       0x20 build/stm32f7xx_hal_flash_ex.o
 .text.FLASH_OB_DisableWRP
                0x00000000       0x1c build/stm32f7xx_hal_flash_ex.o
 .text.FLASH_OB_RDP_LevelConfig
                0x00000000       0x18 build/stm32f7xx_hal_flash_ex.o
 .text.FLASH_OB_UserConfig
                0x00000000       0x48 build/stm32f7xx_hal_flash_ex.o
 .text.FLASH_OB_BootAddressConfig
                0x00000000       0x38 build/stm32f7xx_hal_flash_ex.o
 .text.HAL_FLASHEx_OBProgram
                0x00000000       0xc4 build/stm32f7xx_hal_flash_ex.o
 .text.HAL_FLASHEx_OBGetConfig
                0x00000000       0x32 build/stm32f7xx_hal_flash_ex.o
 .text.FLASH_Erase_Sector
                0x00000000       0x60 build/stm32f7xx_hal_flash_ex.o
 .text.HAL_FLASHEx_Erase
                0x00000000       0x98 build/stm32f7xx_hal_flash_ex.o
 .text.HAL_FLASHEx_Erase_IT
                0x00000000       0x68 build/stm32f7xx_hal_flash_ex.o
 .debug_info    0x00000000      0xae6 build/stm32f7xx_hal_flash_ex.o
 .debug_abbrev  0x00000000      0x295 build/stm32f7xx_hal_flash_ex.o
 .debug_loc     0x00000000      0x934 build/stm32f7xx_hal_flash_ex.o
 .debug_aranges
                0x00000000       0xa0 build/stm32f7xx_hal_flash_ex.o
 .debug_ranges  0x00000000       0x90 build/stm32f7xx_hal_flash_ex.o
 .debug_line    0x00000000      0x804 build/stm32f7xx_hal_flash_ex.o
 .debug_str     0x00000000      0x6c6 build/stm32f7xx_hal_flash_ex.o
 .comment       0x00000000       0x7a build/stm32f7xx_hal_flash_ex.o
 .debug_frame   0x00000000      0x1cc build/stm32f7xx_hal_flash_ex.o
 .ARM.attributes
                0x00000000       0x32 build/stm32f7xx_hal_flash_ex.o
 .text          0x00000000        0x0 build/stm32f7xx_hal_gpio.o
 .data          0x00000000        0x0 build/stm32f7xx_hal_gpio.o
 .bss           0x00000000        0x0 build/stm32f7xx_hal_gpio.o
 .text.HAL_GPIO_ReadPin
                0x00000000        0xe build/stm32f7xx_hal_gpio.o
 .text.HAL_GPIO_TogglePin
                0x00000000       0x10 build/stm32f7xx_hal_gpio.o
 .text.HAL_GPIO_LockPin
                0x00000000       0x2e build/stm32f7xx_hal_gpio.o
 .text.HAL_GPIO_EXTI_Callback
                0x00000000        0x2 build/stm32f7xx_hal_gpio.o
 .text.HAL_GPIO_EXTI_IRQHandler
                0x00000000       0x1c build/stm32f7xx_hal_gpio.o
 .text          0x00000000        0x0 build/stm32f7xx_hal_dma.o
 .data          0x00000000        0x0 build/stm32f7xx_hal_dma.o
 .bss           0x00000000        0x0 build/stm32f7xx_hal_dma.o
 .text.DMA_SetConfig
                0x00000000       0x2c build/stm32f7xx_hal_dma.o
 .text.DMA_CalcBaseAndBitshift
                0x00000000       0x40 build/stm32f7xx_hal_dma.o
 .text.DMA_CheckFifoParam
                0x00000000       0x8e build/stm32f7xx_hal_dma.o
 .text.HAL_DMA_Init
                0x00000000       0xcc build/stm32f7xx_hal_dma.o
 .text.HAL_DMA_DeInit
                0x00000000       0x64 build/stm32f7xx_hal_dma.o
 .text.HAL_DMA_Start
                0x00000000       0x48 build/stm32f7xx_hal_dma.o
 .text.HAL_DMA_Start_IT
                0x00000000       0x74 build/stm32f7xx_hal_dma.o
 .text.HAL_DMA_Abort
                0x00000000       0x94 build/stm32f7xx_hal_dma.o
 .text.HAL_DMA_Abort_IT
                0x00000000       0x26 build/stm32f7xx_hal_dma.o
 .text.HAL_DMA_PollForTransfer
                0x00000000      0x128 build/stm32f7xx_hal_dma.o
 .text.HAL_DMA_IRQHandler
                0x00000000      0x1dc build/stm32f7xx_hal_dma.o
 .text.HAL_DMA_RegisterCallback
                0x00000000       0x58 build/stm32f7xx_hal_dma.o
 .text.HAL_DMA_UnRegisterCallback
                0x00000000       0x6e build/stm32f7xx_hal_dma.o
 .text.HAL_DMA_GetState
                0x00000000        0x6 build/stm32f7xx_hal_dma.o
 .text.HAL_DMA_GetError
                0x00000000        0x4 build/stm32f7xx_hal_dma.o
 .rodata.flagBitshiftOffset.9074
                0x00000000        0x8 build/stm32f7xx_hal_dma.o
 .debug_info    0x00000000      0xc8b build/stm32f7xx_hal_dma.o
 .debug_abbrev  0x00000000      0x312 build/stm32f7xx_hal_dma.o
 .debug_loc     0x00000000      0xd6d build/stm32f7xx_hal_dma.o
 .debug_aranges
                0x00000000       0x90 build/stm32f7xx_hal_dma.o
 .debug_ranges  0x00000000       0x80 build/stm32f7xx_hal_dma.o
 .debug_line    0x00000000      0xe2a build/stm32f7xx_hal_dma.o
 .debug_str     0x00000000      0x830 build/stm32f7xx_hal_dma.o
 .comment       0x00000000       0x7a build/stm32f7xx_hal_dma.o
 .debug_frame   0x00000000      0x1b8 build/stm32f7xx_hal_dma.o
 .ARM.attributes
                0x00000000       0x32 build/stm32f7xx_hal_dma.o
 .text          0x00000000        0x0 build/stm32f7xx_hal_dma_ex.o
 .data          0x00000000        0x0 build/stm32f7xx_hal_dma_ex.o
 .bss           0x00000000        0x0 build/stm32f7xx_hal_dma_ex.o
 .text.DMA_MultiBufferSetConfig
                0x00000000       0x24 build/stm32f7xx_hal_dma_ex.o
 .text.HAL_DMAEx_MultiBufferStart
                0x00000000       0x5e build/stm32f7xx_hal_dma_ex.o
 .text.HAL_DMAEx_MultiBufferStart_IT
                0x00000000      0xee8 build/stm32f7xx_hal_dma_ex.o
 .text.HAL_DMAEx_ChangeMemory
                0x00000000       0x10 build/stm32f7xx_hal_dma_ex.o
 .debug_info    0x00000000      0x705 build/stm32f7xx_hal_dma_ex.o
 .debug_abbrev  0x00000000      0x215 build/stm32f7xx_hal_dma_ex.o
 .debug_loc     0x00000000      0x46f build/stm32f7xx_hal_dma_ex.o
 .debug_aranges
                0x00000000       0x38 build/stm32f7xx_hal_dma_ex.o
 .debug_ranges  0x00000000       0x28 build/stm32f7xx_hal_dma_ex.o
 .debug_line    0x00000000      0x9ed build/stm32f7xx_hal_dma_ex.o
 .debug_str     0x00000000      0x625 build/stm32f7xx_hal_dma_ex.o
 .comment       0x00000000       0x7a build/stm32f7xx_hal_dma_ex.o
 .debug_frame   0x00000000       0x80 build/stm32f7xx_hal_dma_ex.o
 .ARM.attributes
                0x00000000       0x32 build/stm32f7xx_hal_dma_ex.o
 .text          0x00000000        0x0 build/stm32f7xx_hal_pwr.o
 .data          0x00000000        0x0 build/stm32f7xx_hal_pwr.o
 .bss           0x00000000        0x0 build/stm32f7xx_hal_pwr.o
 .text.HAL_PWR_DeInit
                0x00000000       0x18 build/stm32f7xx_hal_pwr.o
 .text.HAL_PWR_EnableBkUpAccess
                0x00000000       0x10 build/stm32f7xx_hal_pwr.o
 .text.HAL_PWR_DisableBkUpAccess
                0x00000000       0x10 build/stm32f7xx_hal_pwr.o
 .text.HAL_PWR_ConfigPVD
                0x00000000       0x84 build/stm32f7xx_hal_pwr.o
 .text.HAL_PWR_EnablePVD
                0x00000000       0x10 build/stm32f7xx_hal_pwr.o
 .text.HAL_PWR_DisablePVD
                0x00000000       0x10 build/stm32f7xx_hal_pwr.o
 .text.HAL_PWR_EnableWakeUpPin
                0x00000000       0x24 build/stm32f7xx_hal_pwr.o
 .text.HAL_PWR_DisableWakeUpPin
                0x00000000       0x10 build/stm32f7xx_hal_pwr.o
 .text.HAL_PWR_EnterSLEEPMode
                0x00000000       0x28 build/stm32f7xx_hal_pwr.o
 .text.HAL_PWR_EnterSTOPMode
                0x00000000       0x40 build/stm32f7xx_hal_pwr.o
 .text.HAL_PWR_EnterSTANDBYMode
                0x00000000       0x20 build/stm32f7xx_hal_pwr.o
 .text.HAL_PWR_PVDCallback
                0x00000000        0x2 build/stm32f7xx_hal_pwr.o
 .text.HAL_PWR_PVD_IRQHandler
                0x00000000       0x20 build/stm32f7xx_hal_pwr.o
 .text.HAL_PWR_EnableSleepOnExit
                0x00000000       0x10 build/stm32f7xx_hal_pwr.o
 .text.HAL_PWR_DisableSleepOnExit
                0x00000000       0x10 build/stm32f7xx_hal_pwr.o
 .text.HAL_PWR_EnableSEVOnPend
                0x00000000       0x10 build/stm32f7xx_hal_pwr.o
 .text.HAL_PWR_DisableSEVOnPend
                0x00000000       0x10 build/stm32f7xx_hal_pwr.o
 .debug_info    0x00000000      0xb8f build/stm32f7xx_hal_pwr.o
 .debug_abbrev  0x00000000      0x1f5 build/stm32f7xx_hal_pwr.o
 .debug_loc     0x00000000       0xa5 build/stm32f7xx_hal_pwr.o
 .debug_aranges
                0x00000000       0xa0 build/stm32f7xx_hal_pwr.o
 .debug_ranges  0x00000000       0x90 build/stm32f7xx_hal_pwr.o
 .debug_line    0x00000000      0x47d build/stm32f7xx_hal_pwr.o
 .debug_str     0x00000000      0x707 build/stm32f7xx_hal_pwr.o
 .comment       0x00000000       0x7a build/stm32f7xx_hal_pwr.o
 .debug_frame   0x00000000      0x138 build/stm32f7xx_hal_pwr.o
 .ARM.attributes
                0x00000000       0x32 build/stm32f7xx_hal_pwr.o
 .text          0x00000000        0x0 build/stm32f7xx_hal_pwr_ex.o
 .data          0x00000000        0x0 build/stm32f7xx_hal_pwr_ex.o
 .bss           0x00000000        0x0 build/stm32f7xx_hal_pwr_ex.o
 .text.HAL_PWREx_EnableBkUpReg
                0x00000000       0x3c build/stm32f7xx_hal_pwr_ex.o
 .text.HAL_PWREx_DisableBkUpReg
                0x00000000       0x3c build/stm32f7xx_hal_pwr_ex.o
 .text.HAL_PWREx_EnableFlashPowerDown
                0x00000000       0x10 build/stm32f7xx_hal_pwr_ex.o
 .text.HAL_PWREx_DisableFlashPowerDown
                0x00000000       0x10 build/stm32f7xx_hal_pwr_ex.o
 .text.HAL_PWREx_EnableMainRegulatorLowVoltage
                0x00000000       0x10 build/stm32f7xx_hal_pwr_ex.o
 .text.HAL_PWREx_DisableMainRegulatorLowVoltage
                0x00000000       0x10 build/stm32f7xx_hal_pwr_ex.o
 .text.HAL_PWREx_EnableLowRegulatorLowVoltage
                0x00000000       0x10 build/stm32f7xx_hal_pwr_ex.o
 .text.HAL_PWREx_DisableLowRegulatorLowVoltage
                0x00000000       0x10 build/stm32f7xx_hal_pwr_ex.o
 .text.HAL_PWREx_DisableOverDrive
                0x00000000       0x7c build/stm32f7xx_hal_pwr_ex.o
 .text.HAL_PWREx_EnterUnderDriveSTOPMode
                0x00000000       0x94 build/stm32f7xx_hal_pwr_ex.o
 .text.HAL_PWREx_GetVoltageRange
                0x00000000       0x10 build/stm32f7xx_hal_pwr_ex.o
 .text.HAL_PWREx_ControlVoltageScaling
                0x00000000       0xc0 build/stm32f7xx_hal_pwr_ex.o
 .text          0x00000000        0x0 build/stm32f7xx_hal.o
 .data          0x00000000        0x0 build/stm32f7xx_hal.o
 .bss           0x00000000        0x0 build/stm32f7xx_hal.o
 .text.HAL_MspInit
                0x00000000        0x2 build/stm32f7xx_hal.o
 .text.HAL_MspDeInit
                0x00000000        0x2 build/stm32f7xx_hal.o
 .text.HAL_DeInit
                0x00000000       0x2c build/stm32f7xx_hal.o
 .text.HAL_InitTick
                0x00000000       0x4c build/stm32f7xx_hal.o
 .text.HAL_GetTickPrio
                0x00000000        0xc build/stm32f7xx_hal.o
 .text.HAL_SetTickFreq
                0x00000000       0x2c build/stm32f7xx_hal.o
 .text.HAL_GetTickFreq
                0x00000000        0xc build/stm32f7xx_hal.o
 .text.HAL_Delay
                0x00000000       0x28 build/stm32f7xx_hal.o
 .text.HAL_SuspendTick
                0x00000000       0x10 build/stm32f7xx_hal.o
 .text.HAL_ResumeTick
                0x00000000       0x10 build/stm32f7xx_hal.o
 .text.HAL_GetHalVersion
                0x00000000        0x8 build/stm32f7xx_hal.o
 .text.HAL_GetREVID
                0x00000000        0xc build/stm32f7xx_hal.o
 .text.HAL_GetDEVID
                0x00000000       0x10 build/stm32f7xx_hal.o
 .text.HAL_GetUIDw0
                0x00000000        0xc build/stm32f7xx_hal.o
 .text.HAL_GetUIDw1
                0x00000000        0xc build/stm32f7xx_hal.o
 .text.HAL_GetUIDw2
                0x00000000        0xc build/stm32f7xx_hal.o
 .text.HAL_DBGMCU_EnableDBGSleepMode
                0x00000000       0x10 build/stm32f7xx_hal.o
 .text.HAL_DBGMCU_DisableDBGSleepMode
                0x00000000       0x10 build/stm32f7xx_hal.o
 .text.HAL_DBGMCU_EnableDBGStopMode
                0x00000000       0x10 build/stm32f7xx_hal.o
 .text.HAL_DBGMCU_DisableDBGStopMode
                0x00000000       0x10 build/stm32f7xx_hal.o
 .text.HAL_DBGMCU_EnableDBGStandbyMode
                0x00000000       0x10 build/stm32f7xx_hal.o
 .text.HAL_DBGMCU_DisableDBGStandbyMode
                0x00000000       0x10 build/stm32f7xx_hal.o
 .text.HAL_EnableCompensationCell
                0x00000000       0x10 build/stm32f7xx_hal.o
 .text.HAL_DisableCompensationCell
                0x00000000       0x10 build/stm32f7xx_hal.o
 .text.HAL_EnableFMCMemorySwapping
                0x00000000       0x10 build/stm32f7xx_hal.o
 .text.HAL_DisableFMCMemorySwapping
                0x00000000       0x10 build/stm32f7xx_hal.o
 .text.HAL_EnableMemorySwappingBank
                0x00000000       0x10 build/stm32f7xx_hal.o
 .text.HAL_DisableMemorySwappingBank
                0x00000000       0x10 build/stm32f7xx_hal.o
 .text          0x00000000        0x0 build/stm32f7xx_hal_i2c.o
 .data          0x00000000        0x0 build/stm32f7xx_hal_i2c.o
 .bss           0x00000000        0x0 build/stm32f7xx_hal_i2c.o
 .text.I2C_Enable_IRQ
                0x00000000       0x80 build/stm32f7xx_hal_i2c.o
 .text.I2C_Disable_IRQ
                0x00000000       0xb8 build/stm32f7xx_hal_i2c.o
 .text.I2C_ConvertOtherXferOptions
                0x00000000       0x1e build/stm32f7xx_hal_i2c.o
 .text.I2C_WaitOnRXNEFlagUntilTimeout
                0x00000000       0x98 build/stm32f7xx_hal_i2c.o
 .text.HAL_I2C_MspInit
                0x00000000        0x2 build/stm32f7xx_hal_i2c.o
 .text.HAL_I2C_MspDeInit
                0x00000000        0x2 build/stm32f7xx_hal_i2c.o
 .text.HAL_I2C_Master_Transmit
                0x00000000      0x17c build/stm32f7xx_hal_i2c.o
 .text.HAL_I2C_Master_Receive
                0x00000000      0x17c build/stm32f7xx_hal_i2c.o
 .text.HAL_I2C_Slave_Transmit
                0x00000000      0x18e build/stm32f7xx_hal_i2c.o
 .text.HAL_I2C_Slave_Receive
                0x00000000      0x170 build/stm32f7xx_hal_i2c.o
 .text.HAL_I2C_Master_Transmit_IT
                0x00000000       0x98 build/stm32f7xx_hal_i2c.o
 .text.HAL_I2C_Master_Receive_IT
                0x00000000       0x98 build/stm32f7xx_hal_i2c.o
 .text.HAL_I2C_Slave_Transmit_IT
                0x00000000       0x64 build/stm32f7xx_hal_i2c.o
 .text.HAL_I2C_Slave_Receive_IT
                0x00000000       0x64 build/stm32f7xx_hal_i2c.o
 .text.HAL_I2C_Master_Transmit_DMA
                0x00000000      0x154 build/stm32f7xx_hal_i2c.o
 .text.HAL_I2C_Master_Receive_DMA
                0x00000000      0x150 build/stm32f7xx_hal_i2c.o
 .text.HAL_I2C_Slave_Transmit_DMA
                0x00000000       0xf4 build/stm32f7xx_hal_i2c.o
 .text.HAL_I2C_Slave_Receive_DMA
                0x00000000       0xf8 build/stm32f7xx_hal_i2c.o
 .text.HAL_I2C_Mem_Write_IT
                0x00000000       0xe8 build/stm32f7xx_hal_i2c.o
 .text.HAL_I2C_Mem_Read_IT
                0x00000000       0xf0 build/stm32f7xx_hal_i2c.o
 .text.HAL_I2C_Mem_Write_DMA
                0x00000000      0x16c build/stm32f7xx_hal_i2c.o
 .text.HAL_I2C_Mem_Read_DMA
                0x00000000      0x174 build/stm32f7xx_hal_i2c.o
 .text.HAL_I2C_IsDeviceReady
                0x00000000      0x16c build/stm32f7xx_hal_i2c.o
 .text.HAL_I2C_Master_Seq_Transmit_IT
                0x00000000       0xb4 build/stm32f7xx_hal_i2c.o
 .text.HAL_I2C_Master_Seq_Transmit_DMA
                0x00000000      0x174 build/stm32f7xx_hal_i2c.o
 .text.HAL_I2C_Master_Seq_Receive_IT
                0x00000000       0xb4 build/stm32f7xx_hal_i2c.o
 .text.HAL_I2C_Master_Seq_Receive_DMA
                0x00000000      0x174 build/stm32f7xx_hal_i2c.o
 .text.HAL_I2C_Slave_Seq_Transmit_IT
                0x00000000       0xdc build/stm32f7xx_hal_i2c.o
 .text.HAL_I2C_Slave_Seq_Transmit_DMA
                0x00000000      0x1a8 build/stm32f7xx_hal_i2c.o
 .text.HAL_I2C_Slave_Seq_Receive_IT
                0x00000000       0xdc build/stm32f7xx_hal_i2c.o
 .text.HAL_I2C_Slave_Seq_Receive_DMA
                0x00000000      0x1a4 build/stm32f7xx_hal_i2c.o
 .text.HAL_I2C_EnableListen_IT
                0x00000000       0x28 build/stm32f7xx_hal_i2c.o
 .text.HAL_I2C_DisableListen_IT
                0x00000000       0x38 build/stm32f7xx_hal_i2c.o
 .text.HAL_I2C_Master_Abort_IT
                0x00000000       0x68 build/stm32f7xx_hal_i2c.o
 .text.HAL_I2C_EV_IRQHandler
                0x00000000       0x10 build/stm32f7xx_hal_i2c.o
 .text.HAL_I2C_MasterTxCpltCallback
                0x00000000        0x2 build/stm32f7xx_hal_i2c.o
 .text.HAL_I2C_MasterRxCpltCallback
                0x00000000        0x2 build/stm32f7xx_hal_i2c.o
 .text.I2C_ITMasterSeqCplt
                0x00000000       0x54 build/stm32f7xx_hal_i2c.o
 .text.HAL_I2C_SlaveTxCpltCallback
                0x00000000        0x2 build/stm32f7xx_hal_i2c.o
 .text.HAL_I2C_SlaveRxCpltCallback
                0x00000000        0x2 build/stm32f7xx_hal_i2c.o
 .text.I2C_ITSlaveSeqCplt
                0x00000000       0x5c build/stm32f7xx_hal_i2c.o
 .text.I2C_DMASlaveTransmitCplt
                0x00000000       0x22 build/stm32f7xx_hal_i2c.o
 .text.I2C_DMASlaveReceiveCplt
                0x00000000       0x26 build/stm32f7xx_hal_i2c.o
 .text.HAL_I2C_AddrCallback
                0x00000000        0x2 build/stm32f7xx_hal_i2c.o
 .text.I2C_ITAddrCplt
                0x00000000       0x9c build/stm32f7xx_hal_i2c.o
 .text.HAL_I2C_ListenCpltCallback
                0x00000000        0x2 build/stm32f7xx_hal_i2c.o
 .text.I2C_ITListenCplt
                0x00000000       0x68 build/stm32f7xx_hal_i2c.o
 .text.HAL_I2C_MemTxCpltCallback
                0x00000000        0x2 build/stm32f7xx_hal_i2c.o
 .text.HAL_I2C_MemRxCpltCallback
                0x00000000        0x2 build/stm32f7xx_hal_i2c.o
 .text.HAL_I2C_ErrorCallback
                0x00000000        0x2 build/stm32f7xx_hal_i2c.o
 .text.HAL_I2C_AbortCpltCallback
                0x00000000        0x2 build/stm32f7xx_hal_i2c.o
 .text.I2C_ITError
                0x00000000       0xf4 build/stm32f7xx_hal_i2c.o
 .text.I2C_ITSlaveCplt
                0x00000000      0x120 build/stm32f7xx_hal_i2c.o
 .text.I2C_Slave_ISR_IT
                0x00000000      0x15c build/stm32f7xx_hal_i2c.o
 .text.I2C_ITMasterCplt
                0x00000000       0xe2 build/stm32f7xx_hal_i2c.o
 .text.I2C_Master_ISR_IT
                0x00000000      0x180 build/stm32f7xx_hal_i2c.o
 .text.I2C_Slave_ISR_DMA
                0x00000000      0x10e build/stm32f7xx_hal_i2c.o
 .text.I2C_Master_ISR_DMA
                0x00000000      0x142 build/stm32f7xx_hal_i2c.o
 .text.I2C_DMAError
                0x00000000       0x44 build/stm32f7xx_hal_i2c.o
 .text.I2C_DMAMasterTransmitCplt
                0x00000000       0x5a build/stm32f7xx_hal_i2c.o
 .text.I2C_DMAMasterReceiveCplt
                0x00000000       0x5a build/stm32f7xx_hal_i2c.o
 .text.HAL_I2C_ER_IRQHandler
                0x00000000       0x6a build/stm32f7xx_hal_i2c.o
 .text.I2C_DMAAbort
                0x00000000       0x2a build/stm32f7xx_hal_i2c.o
 .text.HAL_I2C_GetState
                0x00000000        0x6 build/stm32f7xx_hal_i2c.o
 .text.HAL_I2C_GetMode
                0x00000000        0x6 build/stm32f7xx_hal_i2c.o
 .text.HAL_I2C_GetError
                0x00000000        0x4 build/stm32f7xx_hal_i2c.o
 .text          0x00000000        0x0 build/stm32f7xx_hal_i2c_ex.o
 .data          0x00000000        0x0 build/stm32f7xx_hal_i2c_ex.o
 .bss           0x00000000        0x0 build/stm32f7xx_hal_i2c_ex.o
 .text.HAL_I2CEx_EnableFastModePlus
                0x00000000       0x2c build/stm32f7xx_hal_i2c_ex.o
 .text.HAL_I2CEx_DisableFastModePlus
                0x00000000       0x2c build/stm32f7xx_hal_i2c_ex.o
 .text          0x00000000        0x0 build/stm32f7xx_hal_exti.o
 .data          0x00000000        0x0 build/stm32f7xx_hal_exti.o
 .bss           0x00000000        0x0 build/stm32f7xx_hal_exti.o
 .text.HAL_EXTI_SetConfigLine
                0x00000000       0xdc build/stm32f7xx_hal_exti.o
 .text.HAL_EXTI_GetConfigLine
                0x00000000       0xb0 build/stm32f7xx_hal_exti.o
 .text.HAL_EXTI_ClearConfigLine
                0x00000000       0x80 build/stm32f7xx_hal_exti.o
 .text.HAL_EXTI_RegisterCallback
                0x00000000        0xe build/stm32f7xx_hal_exti.o
 .text.HAL_EXTI_GetHandle
                0x00000000        0xc build/stm32f7xx_hal_exti.o
 .text.HAL_EXTI_IRQHandler
                0x00000000       0x24 build/stm32f7xx_hal_exti.o
 .text.HAL_EXTI_GetPending
                0x00000000       0x1c build/stm32f7xx_hal_exti.o
 .text.HAL_EXTI_ClearPending
                0x00000000       0x14 build/stm32f7xx_hal_exti.o
 .text.HAL_EXTI_GenerateSWI
                0x00000000       0x14 build/stm32f7xx_hal_exti.o
 .debug_info    0x00000000      0x719 build/stm32f7xx_hal_exti.o
 .debug_abbrev  0x00000000      0x21c build/stm32f7xx_hal_exti.o
 .debug_loc     0x00000000      0x5f9 build/stm32f7xx_hal_exti.o
 .debug_aranges
                0x00000000       0x60 build/stm32f7xx_hal_exti.o
 .debug_ranges  0x00000000       0x50 build/stm32f7xx_hal_exti.o
 .debug_line    0x00000000      0x636 build/stm32f7xx_hal_exti.o
 .debug_str     0x00000000      0x4bd build/stm32f7xx_hal_exti.o
 .comment       0x00000000       0x7a build/stm32f7xx_hal_exti.o
 .debug_frame   0x00000000      0x108 build/stm32f7xx_hal_exti.o
 .ARM.attributes
                0x00000000       0x32 build/stm32f7xx_hal_exti.o
 .text          0x00000000        0x0 build/stm32f7xx_hal_tim.o
 .data          0x00000000        0x0 build/stm32f7xx_hal_tim.o
 .bss           0x00000000        0x0 build/stm32f7xx_hal_tim.o
 .text.TIM_OC1_SetConfig
                0x00000000       0x68 build/stm32f7xx_hal_tim.o
 .text.TIM_OC3_SetConfig
                0x00000000       0x70 build/stm32f7xx_hal_tim.o
 .text.TIM_OC4_SetConfig
                0x00000000       0x54 build/stm32f7xx_hal_tim.o
 .text.TIM_OC5_SetConfig
                0x00000000       0x54 build/stm32f7xx_hal_tim.o
 .text.TIM_OC6_SetConfig
                0x00000000       0x54 build/stm32f7xx_hal_tim.o
 .text.TIM_TI1_ConfigInputStage
                0x00000000       0x24 build/stm32f7xx_hal_tim.o
 .text.TIM_TI2_SetConfig
                0x00000000       0x34 build/stm32f7xx_hal_tim.o
 .text.TIM_TI2_ConfigInputStage
                0x00000000       0x26 build/stm32f7xx_hal_tim.o
 .text.TIM_TI3_SetConfig
                0x00000000       0x32 build/stm32f7xx_hal_tim.o
 .text.TIM_TI4_SetConfig
                0x00000000       0x34 build/stm32f7xx_hal_tim.o
 .text.TIM_ITRx_SetConfig
                0x00000000       0x10 build/stm32f7xx_hal_tim.o
 .text.HAL_TIM_Base_MspDeInit
                0x00000000        0x2 build/stm32f7xx_hal_tim.o
 .text.HAL_TIM_Base_DeInit
                0x00000000       0x3a build/stm32f7xx_hal_tim.o
 .text.HAL_TIM_Base_Start
                0x00000000       0x30 build/stm32f7xx_hal_tim.o
 .text.HAL_TIM_Base_Stop
                0x00000000       0x2e build/stm32f7xx_hal_tim.o
 .text.HAL_TIM_Base_Stop_IT
                0x00000000       0x2c build/stm32f7xx_hal_tim.o
 .text.HAL_TIM_Base_Start_DMA
                0x00000000       0x88 build/stm32f7xx_hal_tim.o
 .text.HAL_TIM_Base_Stop_DMA
                0x00000000       0x3c build/stm32f7xx_hal_tim.o
 .text.HAL_TIM_OC_MspInit
                0x00000000        0x2 build/stm32f7xx_hal_tim.o
 .text.HAL_TIM_OC_MspDeInit
                0x00000000        0x2 build/stm32f7xx_hal_tim.o
 .text.HAL_TIM_OC_DeInit
                0x00000000       0x3a build/stm32f7xx_hal_tim.o
 .text.HAL_TIM_PWM_MspInit
                0x00000000        0x2 build/stm32f7xx_hal_tim.o
 .text.HAL_TIM_PWM_MspDeInit
                0x00000000        0x2 build/stm32f7xx_hal_tim.o
 .text.HAL_TIM_PWM_DeInit
                0x00000000       0x3a build/stm32f7xx_hal_tim.o
 .text.HAL_TIM_IC_MspInit
                0x00000000        0x2 build/stm32f7xx_hal_tim.o
 .text.HAL_TIM_IC_MspDeInit
                0x00000000        0x2 build/stm32f7xx_hal_tim.o
 .text.HAL_TIM_IC_DeInit
                0x00000000       0x3a build/stm32f7xx_hal_tim.o
 .text.HAL_TIM_OnePulse_MspInit
                0x00000000        0x2 build/stm32f7xx_hal_tim.o
 .text.HAL_TIM_OnePulse_MspDeInit
                0x00000000        0x2 build/stm32f7xx_hal_tim.o
 .text.HAL_TIM_OnePulse_DeInit
                0x00000000       0x3a build/stm32f7xx_hal_tim.o
 .text.HAL_TIM_Encoder_MspInit
                0x00000000        0x2 build/stm32f7xx_hal_tim.o
 .text.HAL_TIM_Encoder_MspDeInit
                0x00000000        0x2 build/stm32f7xx_hal_tim.o
 .text.HAL_TIM_Encoder_DeInit
                0x00000000       0x3a build/stm32f7xx_hal_tim.o
 .text.HAL_TIM_DMABurst_WriteStart
                0x00000000      0x1b8 build/stm32f7xx_hal_tim.o
 .text.HAL_TIM_DMABurst_WriteStop
                0x00000000       0x7e build/stm32f7xx_hal_tim.o
 .text.HAL_TIM_DMABurst_ReadStart
                0x00000000      0x1b8 build/stm32f7xx_hal_tim.o
 .text.HAL_TIM_DMABurst_ReadStop
                0x00000000       0x7e build/stm32f7xx_hal_tim.o
 .text.HAL_TIM_GenerateEvent
                0x00000000       0x26 build/stm32f7xx_hal_tim.o
 .text.HAL_TIM_ConfigTI1Input
                0x00000000       0x10 build/stm32f7xx_hal_tim.o
 .text.HAL_TIM_ReadCapturedValue
                0x00000000       0x32 build/stm32f7xx_hal_tim.o
 .text.HAL_TIM_PeriodElapsedCallback
                0x00000000        0x2 build/stm32f7xx_hal_tim.o
 .text.TIM_DMAPeriodElapsedCplt
                0x00000000       0x10 build/stm32f7xx_hal_tim.o
 .text.HAL_TIM_PeriodElapsedHalfCpltCallback
                0x00000000        0x2 build/stm32f7xx_hal_tim.o
 .text.TIM_DMAPeriodElapsedHalfCplt
                0x00000000       0x10 build/stm32f7xx_hal_tim.o
 .text.TIM_DMACaptureCplt
                0x00000000       0x44 build/stm32f7xx_hal_tim.o
 .text.HAL_TIM_IC_CaptureHalfCpltCallback
                0x00000000        0x2 build/stm32f7xx_hal_tim.o
 .text.TIM_DMACaptureHalfCplt
                0x00000000       0x44 build/stm32f7xx_hal_tim.o
 .text.TIM_DMADelayPulseCplt
                0x00000000       0x44 build/stm32f7xx_hal_tim.o
 .text.HAL_TIM_PWM_PulseFinishedHalfCpltCallback
                0x00000000        0x2 build/stm32f7xx_hal_tim.o
 .text.TIM_DMADelayPulseHalfCplt
                0x00000000       0x44 build/stm32f7xx_hal_tim.o
 .text.TIM_DMATriggerCplt
                0x00000000       0x10 build/stm32f7xx_hal_tim.o
 .text.HAL_TIM_TriggerHalfCpltCallback
                0x00000000        0x2 build/stm32f7xx_hal_tim.o
 .text.TIM_DMATriggerHalfCplt
                0x00000000       0x10 build/stm32f7xx_hal_tim.o
 .text.HAL_TIM_ErrorCallback
                0x00000000        0x2 build/stm32f7xx_hal_tim.o
 .text.TIM_DMAError
                0x00000000       0x10 build/stm32f7xx_hal_tim.o
 .text.HAL_TIM_Base_GetState
                0x00000000        0x6 build/stm32f7xx_hal_tim.o
 .text.HAL_TIM_OC_GetState
                0x00000000        0x6 build/stm32f7xx_hal_tim.o
 .text.HAL_TIM_PWM_GetState
                0x00000000        0x6 build/stm32f7xx_hal_tim.o
 .text.HAL_TIM_IC_GetState
                0x00000000        0x6 build/stm32f7xx_hal_tim.o
 .text.HAL_TIM_OnePulse_GetState
                0x00000000        0x6 build/stm32f7xx_hal_tim.o
 .text.HAL_TIM_Encoder_GetState
                0x00000000        0x6 build/stm32f7xx_hal_tim.o
 .text.HAL_TIM_OC_Init
                0x00000000       0x34 build/stm32f7xx_hal_tim.o
 .text.HAL_TIM_PWM_Init
                0x00000000       0x34 build/stm32f7xx_hal_tim.o
 .text.HAL_TIM_IC_Init
                0x00000000       0x34 build/stm32f7xx_hal_tim.o
 .text.HAL_TIM_OnePulse_Init
                0x00000000       0x48 build/stm32f7xx_hal_tim.o
 .text.HAL_TIM_Encoder_Init
                0x00000000       0x9c build/stm32f7xx_hal_tim.o
 .text.TIM_OC2_SetConfig
                0x00000000       0x70 build/stm32f7xx_hal_tim.o
 .text.HAL_TIM_OC_ConfigChannel
                0x00000000       0x76 build/stm32f7xx_hal_tim.o
 .text.HAL_TIM_PWM_ConfigChannel
                0x00000000      0x134 build/stm32f7xx_hal_tim.o
 .text.TIM_TI1_SetConfig
                0x00000000       0x90 build/stm32f7xx_hal_tim.o
 .text.HAL_TIM_IC_ConfigChannel
                0x00000000       0xc0 build/stm32f7xx_hal_tim.o
 .text.HAL_TIM_OnePulse_ConfigChannel
                0x00000000       0xf8 build/stm32f7xx_hal_tim.o
 .text.TIM_ETR_SetConfig
                0x00000000       0x18 build/stm32f7xx_hal_tim.o
 .text.HAL_TIM_ConfigOCrefClear
                0x00000000      0x126 build/stm32f7xx_hal_tim.o
 .text.HAL_TIM_ConfigClockSource
                0x00000000       0xdc build/stm32f7xx_hal_tim.o
 .text.TIM_SlaveTimer_SetConfig
                0x00000000       0x94 build/stm32f7xx_hal_tim.o
 .text.HAL_TIM_SlaveConfigSynchro
                0x00000000       0x52 build/stm32f7xx_hal_tim.o
 .text.HAL_TIM_SlaveConfigSynchro_IT
                0x00000000       0x52 build/stm32f7xx_hal_tim.o
 .text.TIM_CCxChannelCmd
                0x00000000       0x24 build/stm32f7xx_hal_tim.o
 .text.HAL_TIM_OC_Start
                0x00000000       0x4c build/stm32f7xx_hal_tim.o
 .text.HAL_TIM_OC_Stop
                0x00000000       0x60 build/stm32f7xx_hal_tim.o
 .text.HAL_TIM_OC_Start_IT
                0x00000000       0x90 build/stm32f7xx_hal_tim.o
 .text.HAL_TIM_OC_Stop_IT
                0x00000000       0xa4 build/stm32f7xx_hal_tim.o
 .text.HAL_TIM_OC_Start_DMA
                0x00000000      0x164 build/stm32f7xx_hal_tim.o
 .text.HAL_TIM_OC_Stop_DMA
                0x00000000       0xc8 build/stm32f7xx_hal_tim.o
 .text.HAL_TIM_PWM_Start
                0x00000000       0x4c build/stm32f7xx_hal_tim.o
 .text.HAL_TIM_PWM_Stop
                0x00000000       0x68 build/stm32f7xx_hal_tim.o
 .text.HAL_TIM_PWM_Start_IT
                0x00000000       0x90 build/stm32f7xx_hal_tim.o
 .text.HAL_TIM_PWM_Stop_IT
                0x00000000       0xa4 build/stm32f7xx_hal_tim.o
 .text.HAL_TIM_PWM_Start_DMA
                0x00000000      0x164 build/stm32f7xx_hal_tim.o
 .text.HAL_TIM_PWM_Stop_DMA
                0x00000000       0xc8 build/stm32f7xx_hal_tim.o
 .text.HAL_TIM_IC_Start
                0x00000000       0x30 build/stm32f7xx_hal_tim.o
 .text.HAL_TIM_IC_Stop
                0x00000000       0x2e build/stm32f7xx_hal_tim.o
 .text.HAL_TIM_IC_Start_IT
                0x00000000       0x74 build/stm32f7xx_hal_tim.o
 .text.HAL_TIM_IC_Stop_IT
                0x00000000       0x72 build/stm32f7xx_hal_tim.o
 .text.HAL_TIM_IC_Start_DMA
                0x00000000      0x140 build/stm32f7xx_hal_tim.o
 .text.HAL_TIM_IC_Stop_DMA
                0x00000000       0x94 build/stm32f7xx_hal_tim.o
 .text.HAL_TIM_OnePulse_Start
                0x00000000       0x3c build/stm32f7xx_hal_tim.o
 .text.HAL_TIM_OnePulse_Stop
                0x00000000       0x6c build/stm32f7xx_hal_tim.o
 .text.HAL_TIM_OnePulse_Start_IT
                0x00000000       0x50 build/stm32f7xx_hal_tim.o
 .text.HAL_TIM_OnePulse_Stop_IT
                0x00000000       0x80 build/stm32f7xx_hal_tim.o
 .text.HAL_TIM_Encoder_Start
                0x00000000       0x44 build/stm32f7xx_hal_tim.o
 .text.HAL_TIM_Encoder_Stop
                0x00000000       0x58 build/stm32f7xx_hal_tim.o
 .text.HAL_TIM_Encoder_Start_IT
                0x00000000       0x6c build/stm32f7xx_hal_tim.o
 .text.HAL_TIM_Encoder_Stop_IT
                0x00000000       0x86 build/stm32f7xx_hal_tim.o
 .text.HAL_TIM_Encoder_Start_DMA
                0x00000000      0x164 build/stm32f7xx_hal_tim.o
 .text.HAL_TIM_Encoder_Stop_DMA
                0x00000000       0xa0 build/stm32f7xx_hal_tim.o
 .text          0x00000000        0x0 build/stm32f7xx_hal_tim_ex.o
 .data          0x00000000        0x0 build/stm32f7xx_hal_tim_ex.o
 .bss           0x00000000        0x0 build/stm32f7xx_hal_tim_ex.o
 .text.TIM_CCxNChannelCmd
                0x00000000       0x24 build/stm32f7xx_hal_tim_ex.o
 .text.HAL_TIMEx_HallSensor_MspInit
                0x00000000        0x2 build/stm32f7xx_hal_tim_ex.o
 .text.HAL_TIMEx_HallSensor_Init
                0x00000000       0xc4 build/stm32f7xx_hal_tim_ex.o
 .text.HAL_TIMEx_HallSensor_MspDeInit
                0x00000000        0x2 build/stm32f7xx_hal_tim_ex.o
 .text.HAL_TIMEx_HallSensor_DeInit
                0x00000000       0x3a build/stm32f7xx_hal_tim_ex.o
 .text.HAL_TIMEx_HallSensor_Start
                0x00000000       0x30 build/stm32f7xx_hal_tim_ex.o
 .text.HAL_TIMEx_HallSensor_Stop
                0x00000000       0x30 build/stm32f7xx_hal_tim_ex.o
 .text.HAL_TIMEx_HallSensor_Start_IT
                0x00000000       0x3c build/stm32f7xx_hal_tim_ex.o
 .text.HAL_TIMEx_HallSensor_Stop_IT
                0x00000000       0x3a build/stm32f7xx_hal_tim_ex.o
 .text.HAL_TIMEx_HallSensor_Start_DMA
                0x00000000       0x98 build/stm32f7xx_hal_tim_ex.o
 .text.HAL_TIMEx_HallSensor_Stop_DMA
                0x00000000       0x40 build/stm32f7xx_hal_tim_ex.o
 .text.HAL_TIMEx_OCN_Start
                0x00000000       0x38 build/stm32f7xx_hal_tim_ex.o
 .text.HAL_TIMEx_OCN_Stop
                0x00000000       0x4c build/stm32f7xx_hal_tim_ex.o
 .text.HAL_TIMEx_OCN_Start_IT
                0x00000000       0x70 build/stm32f7xx_hal_tim_ex.o
 .text.HAL_TIMEx_OCN_Stop_IT
                0x00000000       0x90 build/stm32f7xx_hal_tim_ex.o
 .text.HAL_TIMEx_OCN_Start_DMA
                0x00000000      0x110 build/stm32f7xx_hal_tim_ex.o
 .text.HAL_TIMEx_OCN_Stop_DMA
                0x00000000       0x96 build/stm32f7xx_hal_tim_ex.o
 .text.HAL_TIMEx_PWMN_Start
                0x00000000       0x38 build/stm32f7xx_hal_tim_ex.o
 .text.HAL_TIMEx_PWMN_Stop
                0x00000000       0x4c build/stm32f7xx_hal_tim_ex.o
 .text.HAL_TIMEx_PWMN_Start_IT
                0x00000000       0x70 build/stm32f7xx_hal_tim_ex.o
 .text.HAL_TIMEx_PWMN_Stop_IT
                0x00000000       0x90 build/stm32f7xx_hal_tim_ex.o
 .text.HAL_TIMEx_PWMN_Start_DMA
                0x00000000      0x110 build/stm32f7xx_hal_tim_ex.o
 .text.HAL_TIMEx_PWMN_Stop_DMA
                0x00000000       0x96 build/stm32f7xx_hal_tim_ex.o
 .text.HAL_TIMEx_OnePulseN_Start
                0x00000000       0x1a build/stm32f7xx_hal_tim_ex.o
 .text.HAL_TIMEx_OnePulseN_Stop
                0x00000000       0x4c build/stm32f7xx_hal_tim_ex.o
 .text.HAL_TIMEx_OnePulseN_Start_IT
                0x00000000       0x2e build/stm32f7xx_hal_tim_ex.o
 .text.HAL_TIMEx_OnePulseN_Stop_IT
                0x00000000       0x60 build/stm32f7xx_hal_tim_ex.o
 .text.HAL_TIMEx_ConfigCommutEvent
                0x00000000       0x82 build/stm32f7xx_hal_tim_ex.o
 .text.HAL_TIMEx_ConfigCommutEvent_IT
                0x00000000       0x82 build/stm32f7xx_hal_tim_ex.o
 .text.HAL_TIMEx_ConfigCommutEvent_DMA
                0x00000000       0xa0 build/stm32f7xx_hal_tim_ex.o
 .text.HAL_TIMEx_MasterConfigSynchronization
                0x00000000       0xa0 build/stm32f7xx_hal_tim_ex.o
 .text.HAL_TIMEx_ConfigBreakDeadTime
                0x00000000       0x90 build/stm32f7xx_hal_tim_ex.o
 .text.HAL_TIMEx_ConfigBreakInput
                0x00000000       0x9e build/stm32f7xx_hal_tim_ex.o
 .text.HAL_TIMEx_RemapConfig
                0x00000000       0x20 build/stm32f7xx_hal_tim_ex.o
 .text.HAL_TIMEx_GroupChannel5
                0x00000000       0x3e build/stm32f7xx_hal_tim_ex.o
 .text.TIMEx_DMACommutationCplt
                0x00000000       0x10 build/stm32f7xx_hal_tim_ex.o
 .text.HAL_TIMEx_CommutHalfCpltCallback
                0x00000000        0x2 build/stm32f7xx_hal_tim_ex.o
 .text.TIMEx_DMACommutationHalfCplt
                0x00000000       0x10 build/stm32f7xx_hal_tim_ex.o
 .text.HAL_TIMEx_HallSensor_GetState
                0x00000000        0x6 build/stm32f7xx_hal_tim_ex.o
 .text          0x00000000        0x0 build/stm32f7xx_hal_uart.o
 .data          0x00000000        0x0 build/stm32f7xx_hal_uart.o
 .bss           0x00000000        0x0 build/stm32f7xx_hal_uart.o
 .text.UART_EndTxTransfer
                0x00000000       0x10 build/stm32f7xx_hal_uart.o
 .text.UART_EndRxTransfer
                0x00000000       0x1e build/stm32f7xx_hal_uart.o
 .text.UART_TxISR_8BIT
                0x00000000       0x44 build/stm32f7xx_hal_uart.o
 .text.UART_TxISR_16BIT
                0x00000000       0x48 build/stm32f7xx_hal_uart.o
 .text.HAL_UART_MspInit
                0x00000000        0x2 build/stm32f7xx_hal_uart.o
 .text.HAL_UART_MspDeInit
                0x00000000        0x2 build/stm32f7xx_hal_uart.o
 .text.HAL_UART_DeInit
                0x00000000       0x38 build/stm32f7xx_hal_uart.o
 .text.HAL_UART_Transmit_IT
                0x00000000       0x74 build/stm32f7xx_hal_uart.o
 .text.HAL_UART_Receive_IT
                0x00000000       0xd8 build/stm32f7xx_hal_uart.o
 .text.HAL_UART_Transmit_DMA
                0x00000000       0xa8 build/stm32f7xx_hal_uart.o
 .text.HAL_UART_Receive_DMA
                0x00000000       0xb0 build/stm32f7xx_hal_uart.o
 .text.HAL_UART_DMAPause
                0x00000000       0x6a build/stm32f7xx_hal_uart.o
 .text.HAL_UART_DMAResume
                0x00000000       0x5a build/stm32f7xx_hal_uart.o
 .text.HAL_UART_DMAStop
                0x00000000       0x86 build/stm32f7xx_hal_uart.o
 .text.HAL_UART_Abort
                0x00000000       0xa4 build/stm32f7xx_hal_uart.o
 .text.HAL_UART_AbortTransmit
                0x00000000       0x4e build/stm32f7xx_hal_uart.o
 .text.HAL_UART_AbortReceive
                0x00000000       0x68 build/stm32f7xx_hal_uart.o
 .text.HAL_UART_TxCpltCallback
                0x00000000        0x2 build/stm32f7xx_hal_uart.o
 .text.UART_DMATransmitCplt
                0x00000000       0x30 build/stm32f7xx_hal_uart.o
 .text.UART_EndTransmit_IT
                0x00000000       0x1a build/stm32f7xx_hal_uart.o
 .text.HAL_UART_TxHalfCpltCallback
                0x00000000        0x2 build/stm32f7xx_hal_uart.o
 .text.UART_DMATxHalfCplt
                0x00000000        0xa build/stm32f7xx_hal_uart.o
 .text.HAL_UART_RxCpltCallback
                0x00000000        0x2 build/stm32f7xx_hal_uart.o
 .text.UART_RxISR_8BIT
                0x00000000       0x64 build/stm32f7xx_hal_uart.o
 .text.UART_RxISR_16BIT
                0x00000000       0x62 build/stm32f7xx_hal_uart.o
 .text.UART_DMAReceiveCplt
                0x00000000       0x3c build/stm32f7xx_hal_uart.o
 .text.HAL_UART_RxHalfCpltCallback
                0x00000000        0x2 build/stm32f7xx_hal_uart.o
 .text.UART_DMARxHalfCplt
                0x00000000        0xa build/stm32f7xx_hal_uart.o
 .text.HAL_UART_ErrorCallback
                0x00000000        0x2 build/stm32f7xx_hal_uart.o
 .text.UART_DMAError
                0x00000000       0x50 build/stm32f7xx_hal_uart.o
 .text.UART_DMAAbortOnError
                0x00000000       0x14 build/stm32f7xx_hal_uart.o
 .text.HAL_UART_AbortCpltCallback
                0x00000000        0x2 build/stm32f7xx_hal_uart.o
 .text.HAL_UART_Abort_IT
                0x00000000       0xdc build/stm32f7xx_hal_uart.o
 .text.UART_DMARxAbortCallback
                0x00000000       0x3a build/stm32f7xx_hal_uart.o
 .text.UART_DMATxAbortCallback
                0x00000000       0x30 build/stm32f7xx_hal_uart.o
 .text.HAL_UART_AbortTransmitCpltCallback
                0x00000000        0x2 build/stm32f7xx_hal_uart.o
 .text.HAL_UART_AbortTransmit_IT
                0x00000000       0x64 build/stm32f7xx_hal_uart.o
 .text.UART_DMATxOnlyAbortCallback
                0x00000000       0x14 build/stm32f7xx_hal_uart.o
 .text.HAL_UART_AbortReceiveCpltCallback
                0x00000000        0x2 build/stm32f7xx_hal_uart.o
 .text.HAL_UART_AbortReceive_IT
                0x00000000       0x80 build/stm32f7xx_hal_uart.o
 .text.UART_DMARxOnlyAbortCallback
                0x00000000       0x24 build/stm32f7xx_hal_uart.o
 .text.HAL_UARTEx_WakeupCallback
                0x00000000        0x2 build/stm32f7xx_hal_uart.o
 .text.HAL_UART_IRQHandler
                0x00000000      0x180 build/stm32f7xx_hal_uart.o
 .text.HAL_UART_ReceiverTimeout_Config
                0x00000000        0xe build/stm32f7xx_hal_uart.o
 .text.HAL_UART_EnableReceiverTimeout
                0x00000000       0x38 build/stm32f7xx_hal_uart.o
 .text.HAL_UART_DisableReceiverTimeout
                0x00000000       0x38 build/stm32f7xx_hal_uart.o
 .text.HAL_MultiProcessor_EnterMuteMode
                0x00000000        0xc build/stm32f7xx_hal_uart.o
 .text.HAL_HalfDuplex_EnableTransmitter
                0x00000000       0x38 build/stm32f7xx_hal_uart.o
 .text.HAL_HalfDuplex_EnableReceiver
                0x00000000       0x38 build/stm32f7xx_hal_uart.o
 .text.HAL_LIN_SendBreak
                0x00000000       0x2e build/stm32f7xx_hal_uart.o
 .text.HAL_UART_GetState
                0x00000000        0x8 build/stm32f7xx_hal_uart.o
 .text.HAL_UART_GetError
                0x00000000        0x4 build/stm32f7xx_hal_uart.o
 .text.HAL_UART_Receive
                0x00000000      0x126 build/stm32f7xx_hal_uart.o
 .text.HAL_HalfDuplex_Init
                0x00000000       0x6e build/stm32f7xx_hal_uart.o
 .text.HAL_LIN_Init
                0x00000000       0x92 build/stm32f7xx_hal_uart.o
 .text.HAL_MultiProcessor_Init
                0x00000000       0x8a build/stm32f7xx_hal_uart.o
 .text.HAL_MultiProcessor_EnableMuteMode
                0x00000000       0x2c build/stm32f7xx_hal_uart.o
 .text.HAL_MultiProcessor_DisableMuteMode
                0x00000000       0x2c build/stm32f7xx_hal_uart.o
 .text          0x00000000        0x0 build/stm32f7xx_hal_uart_ex.o
 .data          0x00000000        0x0 build/stm32f7xx_hal_uart_ex.o
 .bss           0x00000000        0x0 build/stm32f7xx_hal_uart_ex.o
 .text.UARTEx_Wakeup_AddressConfig
                0x00000000       0x2e build/stm32f7xx_hal_uart_ex.o
 .text.HAL_RS485Ex_Init
                0x00000000       0x84 build/stm32f7xx_hal_uart_ex.o
 .text.HAL_UARTEx_EnableClockStopMode
                0x00000000       0x26 build/stm32f7xx_hal_uart_ex.o
 .text.HAL_UARTEx_DisableClockStopMode
                0x00000000       0x26 build/stm32f7xx_hal_uart_ex.o
 .text.HAL_MultiProcessorEx_AddressLength_Set
                0x00000000       0x36 build/stm32f7xx_hal_uart_ex.o
 .text.HAL_UARTEx_StopModeWakeUpSourceConfig
                0x00000000       0x7e build/stm32f7xx_hal_uart_ex.o
 .text.HAL_UARTEx_EnableStopMode
                0x00000000       0x26 build/stm32f7xx_hal_uart_ex.o
 .text.HAL_UARTEx_DisableStopMode
                0x00000000       0x26 build/stm32f7xx_hal_uart_ex.o
 .debug_info    0x00000000      0xb9f build/stm32f7xx_hal_uart_ex.o
 .debug_abbrev  0x00000000      0x263 build/stm32f7xx_hal_uart_ex.o
 .debug_loc     0x00000000      0x481 build/stm32f7xx_hal_uart_ex.o
 .debug_aranges
                0x00000000       0x58 build/stm32f7xx_hal_uart_ex.o
 .debug_ranges  0x00000000       0x48 build/stm32f7xx_hal_uart_ex.o
 .debug_line    0x00000000      0x4e4 build/stm32f7xx_hal_uart_ex.o
 .debug_str     0x00000000      0x906 build/stm32f7xx_hal_uart_ex.o
 .comment       0x00000000       0x7a build/stm32f7xx_hal_uart_ex.o
 .debug_frame   0x00000000       0xe0 build/stm32f7xx_hal_uart_ex.o
 .ARM.attributes
                0x00000000       0x32 build/stm32f7xx_hal_uart_ex.o
 .text          0x00000000        0x0 build/system_stm32f7xx.o
 .data          0x00000000        0x0 build/system_stm32f7xx.o
 .bss           0x00000000        0x0 build/system_stm32f7xx.o
 .text.SystemCoreClockUpdate
                0x00000000       0xa0 build/system_stm32f7xx.o
 .text          0x00000000        0x0 build/croutine.o
 .data          0x00000000        0x0 build/croutine.o
 .bss           0x00000000        0x0 build/croutine.o
 .debug_info    0x00000000       0x98 build/croutine.o
 .debug_abbrev  0x00000000       0x48 build/croutine.o
 .debug_aranges
                0x00000000       0x18 build/croutine.o
 .debug_line    0x00000000       0xec build/croutine.o
 .debug_str     0x00000000      0x1d5 build/croutine.o
 .comment       0x00000000       0x7a build/croutine.o
 .ARM.attributes
                0x00000000       0x37 build/croutine.o
 .text          0x00000000        0x0 build/event_groups.o
 .data          0x00000000        0x0 build/event_groups.o
 .bss           0x00000000        0x0 build/event_groups.o
 .text.prvTestWaitCondition
                0x00000000       0x1c build/event_groups.o
 .text.xEventGroupCreateStatic
                0x00000000       0x52 build/event_groups.o
 .text.xEventGroupCreate
                0x00000000       0x1c build/event_groups.o
 .text.xEventGroupWaitBits
                0x00000000      0x11c build/event_groups.o
 .text.xEventGroupClearBits
                0x00000000       0x4e build/event_groups.o
 .text.vEventGroupClearBitsCallback
                0x00000000        0x8 build/event_groups.o
 .text.xEventGroupClearBitsFromISR
                0x00000000       0x14 build/event_groups.o
 .text.xEventGroupGetBitsFromISR
                0x00000000       0x20 build/event_groups.o
 .text.xEventGroupSetBits
                0x00000000       0x94 build/event_groups.o
 .text.xEventGroupSync
                0x00000000       0xe4 build/event_groups.o
 .text.vEventGroupSetBitsCallback
                0x00000000        0x8 build/event_groups.o
 .text.vEventGroupDelete
                0x00000000       0x48 build/event_groups.o
 .text.xEventGroupSetBitsFromISR
                0x00000000       0x14 build/event_groups.o
 .text.uxEventGroupGetNumber
                0x00000000        0xa build/event_groups.o
 .text.vEventGroupSetNumber
                0x00000000        0x4 build/event_groups.o
 .debug_info    0x00000000     0x19a2 build/event_groups.o
 .debug_abbrev  0x00000000      0x3dd build/event_groups.o
 .debug_loc     0x00000000      0xd00 build/event_groups.o
 .debug_aranges
                0x00000000       0x90 build/event_groups.o
 .debug_ranges  0x00000000       0xb8 build/event_groups.o
 .debug_line    0x00000000      0xb83 build/event_groups.o
 .debug_str     0x00000000      0xc0e build/event_groups.o
 .comment       0x00000000       0x7a build/event_groups.o
 .debug_frame   0x00000000      0x1e8 build/event_groups.o
 .ARM.attributes
                0x00000000       0x32 build/event_groups.o
 .text          0x00000000        0x0 build/list.o
 .data          0x00000000        0x0 build/list.o
 .bss           0x00000000        0x0 build/list.o
 .text          0x00000000        0x0 build/queue.o
 .data          0x00000000        0x0 build/queue.o
 .bss           0x00000000        0x0 build/queue.o
 .text.prvGetDisinheritPriorityAfterTimeout
                0x00000000       0x10 build/queue.o
 .text.xQueueGetMutexHolder
                0x00000000       0x1a build/queue.o
 .text.xQueueGetMutexHolderFromISR
                0x00000000       0x24 build/queue.o
 .text.xQueueCreateCountingSemaphoreStatic
                0x00000000       0x52 build/queue.o
 .text.xQueueCreateCountingSemaphore
                0x00000000       0x48 build/queue.o
 .text.prvInitialiseMutex
                0x00000000       0x18 build/queue.o
 .text.xQueueCreateMutex
                0x00000000       0x16 build/queue.o
 .text.xQueueCreateMutexStatic
                0x00000000       0x1e build/queue.o
 .text.xQueueGiveMutexRecursive
                0x00000000       0x44 build/queue.o
 .text.xQueueGiveFromISR
                0x00000000       0xc2 build/queue.o
 .text.xQueueSemaphoreTake
                0x00000000      0x1b4 build/queue.o
 .text.xQueueTakeMutexRecursive
                0x00000000       0x48 build/queue.o
 .text.xQueuePeek
                0x00000000      0x168 build/queue.o
 .text.xQueueReceiveFromISR
                0x00000000       0xb8 build/queue.o
 .text.xQueuePeekFromISR
                0x00000000       0x8e build/queue.o
 .text.uxQueueMessagesWaiting
                0x00000000       0x2a build/queue.o
 .text.uxQueueSpacesAvailable
                0x00000000       0x2e build/queue.o
 .text.uxQueueMessagesWaitingFromISR
                0x00000000       0x1c build/queue.o
 .text.uxQueueGetQueueNumber
                0x00000000        0x4 build/queue.o
 .text.vQueueSetQueueNumber
                0x00000000        0x4 build/queue.o
 .text.ucQueueGetQueueType
                0x00000000        0x6 build/queue.o
 .text.xQueueIsQueueEmptyFromISR
                0x00000000       0x24 build/queue.o
 .text.xQueueIsQueueFullFromISR
                0x00000000       0x28 build/queue.o
 .text.pcQueueGetName
                0x00000000       0x28 build/queue.o
 .text.vQueueUnregisterQueue
                0x00000000       0x2c build/queue.o
 .text.vQueueDelete
                0x00000000       0x30 build/queue.o
 .text          0x00000000        0x0 build/stream_buffer.o
 .data          0x00000000        0x0 build/stream_buffer.o
 .bss           0x00000000        0x0 build/stream_buffer.o
 .text.prvBytesInBuffer
                0x00000000       0x12 build/stream_buffer.o
 .text.prvInitialiseNewStreamBuffer
                0x00000000       0x44 build/stream_buffer.o
 .text.prvWriteBytesToBuffer
                0x00000000       0x92 build/stream_buffer.o
 .text.prvWriteMessageToBuffer
                0x00000000       0x44 build/stream_buffer.o
 .text.prvReadBytesFromBuffer
                0x00000000       0xa0 build/stream_buffer.o
 .text.prvReadMessageFromBuffer
                0x00000000       0x4c build/stream_buffer.o
 .text.xStreamBufferGenericCreate
                0x00000000       0x80 build/stream_buffer.o
 .text.xStreamBufferGenericCreateStatic
                0x00000000       0xb6 build/stream_buffer.o
 .text.vStreamBufferDelete
                0x00000000       0x32 build/stream_buffer.o
 .text.xStreamBufferReset
                0x00000000       0x52 build/stream_buffer.o
 .text.xStreamBufferSetTriggerLevel
                0x00000000       0x2e build/stream_buffer.o
 .text.xStreamBufferSpacesAvailable
                0x00000000       0x2e build/stream_buffer.o
 .text.xStreamBufferBytesAvailable
                0x00000000       0x20 build/stream_buffer.o
 .text.xStreamBufferSend
                0x00000000      0x11c build/stream_buffer.o
 .text.xStreamBufferSendFromISR
                0x00000000       0xac build/stream_buffer.o
 .text.xStreamBufferReceive
                0x00000000       0xf0 build/stream_buffer.o
 .text.xStreamBufferNextMessageLengthBytes
                0x00000000       0x64 build/stream_buffer.o
 .text.xStreamBufferReceiveFromISR
                0x00000000       0xa8 build/stream_buffer.o
 .text.xStreamBufferIsEmpty
                0x00000000       0x28 build/stream_buffer.o
 .text.xStreamBufferIsFull
                0x00000000       0x3c build/stream_buffer.o
 .text.xStreamBufferSendCompletedFromISR
                0x00000000       0x5a build/stream_buffer.o
 .text.xStreamBufferReceiveCompletedFromISR
                0x00000000       0x5a build/stream_buffer.o
 .text.uxStreamBufferGetStreamBufferNumber
                0x00000000        0x4 build/stream_buffer.o
 .text.vStreamBufferSetStreamBufferNumber
                0x00000000        0x4 build/stream_buffer.o
 .text.ucStreamBufferGetStreamBufferType
                0x00000000        0x8 build/stream_buffer.o
 .debug_info    0x00000000     0x2639 build/stream_buffer.o
 .debug_abbrev  0x00000000      0x443 build/stream_buffer.o
 .debug_loc     0x00000000     0x1ccb build/stream_buffer.o
 .debug_aranges
                0x00000000       0xe0 build/stream_buffer.o
 .debug_ranges  0x00000000       0xd0 build/stream_buffer.o
 .debug_line    0x00000000     0x1610 build/stream_buffer.o
 .debug_str     0x00000000      0xdb6 build/stream_buffer.o
 .comment       0x00000000       0x7a build/stream_buffer.o
 .debug_frame   0x00000000      0x414 build/stream_buffer.o
 .ARM.attributes
                0x00000000       0x32 build/stream_buffer.o
 .text          0x00000000        0x0 build/tasks.o
 .data          0x00000000        0x0 build/tasks.o
 .bss           0x00000000        0x0 build/tasks.o
 .text.prvTaskIsTaskSuspended
                0x00000000       0x44 build/tasks.o
 .text.prvTaskCheckFreeStackSpace
                0x00000000       0x14 build/tasks.o
 .text.vTaskDelete
                0x00000000       0xbc build/tasks.o
 .text.eTaskGetState
                0x00000000       0x90 build/tasks.o
 .text.uxTaskPriorityGet
                0x00000000       0x20 build/tasks.o
 .text.uxTaskPriorityGetFromISR
                0x00000000       0x34 build/tasks.o
 .text.vTaskPrioritySet
                0x00000000       0xd8 build/tasks.o
 .text.vTaskResume
                0x00000000       0x8c build/tasks.o
 .text.xTaskResumeFromISR
                0x00000000       0xac build/tasks.o
 .text.vTaskEndScheduler
                0x00000000       0x28 build/tasks.o
 .text.xTaskGetTickCountFromISR
                0x00000000       0x10 build/tasks.o
 .text.uxTaskGetNumberOfTasks
                0x00000000        0xc build/tasks.o
 .text.pcTaskGetName
                0x00000000       0x2c build/tasks.o
 .text.vTaskDelayUntil
                0x00000000       0xb0 build/tasks.o
 .text.vTaskSuspend
                0x00000000       0xc8 build/tasks.o
 .text.vTaskPlaceOnUnorderedEventList
                0x00000000       0x60 build/tasks.o
 .text.vTaskRemoveFromUnorderedEventList
                0x00000000       0x90 build/tasks.o
 .text.vTaskSetTimeOutState
                0x00000000       0x3c build/tasks.o
 .text.uxTaskGetTaskNumber
                0x00000000        0xa build/tasks.o
 .text.vTaskSetTaskNumber
                0x00000000        0x6 build/tasks.o
 .text.vTaskGetInfo
                0x00000000       0x78 build/tasks.o
 .text.prvListTasksWithinSingleList
                0x00000000       0x5e build/tasks.o
 .text.uxTaskGetSystemState
                0x00000000       0xb0 build/tasks.o
 .text.uxTaskGetStackHighWaterMark
                0x00000000       0x18 build/tasks.o
 .text.xTaskGetCurrentTaskHandle
                0x00000000        0xc build/tasks.o
 .text.xTaskPriorityInherit
                0x00000000       0x98 build/tasks.o
 .text.vTaskPriorityDisinheritAfterTimeout
                0x00000000       0xac build/tasks.o
 .text.uxTaskResetEventItemValue
                0x00000000       0x18 build/tasks.o
 .text.pvTaskIncrementMutexHeldCount
                0x00000000       0x1c build/tasks.o
 .text.ulTaskNotifyTake
                0x00000000       0x78 build/tasks.o
 .text.xTaskNotifyWait
                0x00000000       0x98 build/tasks.o
 .text.xTaskGenericNotify
                0x00000000      0x10c build/tasks.o
 .text.xTaskGenericNotifyFromISR
                0x00000000      0x14c build/tasks.o
 .text.vTaskNotifyGiveFromISR
                0x00000000       0xdc build/tasks.o
 .text.xTaskNotifyStateClear
                0x00000000       0x34 build/tasks.o
 .text          0x00000000        0x0 build/timers.o
 .data          0x00000000        0x0 build/timers.o
 .bss           0x00000000        0x0 build/timers.o
 .text.prvInitialiseNewTimer
                0x00000000       0x50 build/timers.o
 .text.xTimerCreate
                0x00000000       0x38 build/timers.o
 .text.xTimerCreateStatic
                0x00000000       0x56 build/timers.o
 .text.xTimerGetTimerDaemonTaskHandle
                0x00000000       0x24 build/timers.o
 .text.xTimerGetPeriod
                0x00000000       0x1c build/timers.o
 .text.vTimerSetReloadMode
                0x00000000       0x44 build/timers.o
 .text.xTimerGetExpiryTime
                0x00000000       0x1c build/timers.o
 .text.pcTimerGetName
                0x00000000       0x1c build/timers.o
 .text.xTimerIsTimerActive
                0x00000000       0x38 build/timers.o
 .text.pvTimerGetTimerID
                0x00000000       0x2a build/timers.o
 .text.vTimerSetTimerID
                0x00000000       0x2a build/timers.o
 .text.xTimerPendFunctionCallFromISR
                0x00000000       0x28 build/timers.o
 .text.xTimerPendFunctionCall
                0x00000000       0x44 build/timers.o
 .text.uxTimerGetTimerNumber
                0x00000000        0x4 build/timers.o
 .text.vTimerSetTimerNumber
                0x00000000        0x4 build/timers.o
 .text          0x00000000        0x0 build/cmsis_os2.o
 .data          0x00000000        0x0 build/cmsis_os2.o
 .bss           0x00000000        0x0 build/cmsis_os2.o
 .text.TimerCallback
                0x00000000       0x10 build/cmsis_os2.o
 .rodata.osKernelGetInfo.str1.4
                0x00000000       0x11 build/cmsis_os2.o
 .text.osKernelGetInfo
                0x00000000       0x38 build/cmsis_os2.o
 .text.osKernelGetState
                0x00000000       0x24 build/cmsis_os2.o
 .text.osKernelLock
                0x00000000       0x48 build/cmsis_os2.o
 .text.osKernelUnlock
                0x00000000       0x58 build/cmsis_os2.o
 .text.osKernelRestoreLock
                0x00000000       0x6c build/cmsis_os2.o
 .text.osKernelGetTickCount
                0x00000000       0x2c build/cmsis_os2.o
 .text.osKernelGetTickFreq
                0x00000000        0x6 build/cmsis_os2.o
 .text.osKernelGetSysTimerCount
                0x00000000       0x3c build/cmsis_os2.o
 .text.osKernelGetSysTimerFreq
                0x00000000        0xc build/cmsis_os2.o
 .text.osThreadGetName
                0x00000000       0x30 build/cmsis_os2.o
 .text.osThreadGetId
                0x00000000        0x8 build/cmsis_os2.o
 .text.osThreadGetState
                0x00000000       0x5c build/cmsis_os2.o
 .text.osThreadGetStackSpace
                0x00000000       0x30 build/cmsis_os2.o
 .text.osThreadSetPriority
                0x00000000       0x54 build/cmsis_os2.o
 .text.osThreadGetPriority
                0x00000000       0x3c build/cmsis_os2.o
 .text.osThreadYield
                0x00000000       0x44 build/cmsis_os2.o
 .text.osThreadSuspend
                0x00000000       0x3c build/cmsis_os2.o
 .text.osThreadResume
                0x00000000       0x3c build/cmsis_os2.o
 .text.osThreadExit
                0x00000000        0xa build/cmsis_os2.o
 .text.osThreadTerminate
                0x00000000       0x50 build/cmsis_os2.o
 .text.osThreadGetCount
                0x00000000       0x2c build/cmsis_os2.o
 .text.osThreadEnumerate
                0x00000000       0x84 build/cmsis_os2.o
 .text.osThreadFlagsSet
                0x00000000       0x94 build/cmsis_os2.o
 .text.osThreadFlagsClear
                0x00000000       0x74 build/cmsis_os2.o
 .text.osThreadFlagsGet
                0x00000000       0x4c build/cmsis_os2.o
 .text.osThreadFlagsWait
                0x00000000       0xcc build/cmsis_os2.o
 .text.osDelayUntil
                0x00000000       0x50 build/cmsis_os2.o
 .text.osTimerNew
                0x00000000       0xb0 build/cmsis_os2.o
 .text.osTimerGetName
                0x00000000       0x30 build/cmsis_os2.o
 .text.osTimerStart
                0x00000000       0x54 build/cmsis_os2.o
 .text.osTimerStop
                0x00000000       0x64 build/cmsis_os2.o
 .text.osTimerIsRunning
                0x00000000       0x30 build/cmsis_os2.o
 .text.osTimerDelete
                0x00000000       0x64 build/cmsis_os2.o
 .text.osEventFlagsNew
                0x00000000       0x60 build/cmsis_os2.o
 .text.osEventFlagsSet
                0x00000000       0x7c build/cmsis_os2.o
 .text.osEventFlagsClear
                0x00000000       0x60 build/cmsis_os2.o
 .text.osEventFlagsGet
                0x00000000       0x3c build/cmsis_os2.o
 .text.osEventFlagsWait
                0x00000000       0x94 build/cmsis_os2.o
 .text.osEventFlagsDelete
                0x00000000       0x3c build/cmsis_os2.o
 .text.osMutexNew
                0x00000000       0xb4 build/cmsis_os2.o
 .text.osMutexAcquire
                0x00000000       0x7c build/cmsis_os2.o
 .text.osMutexRelease
                0x00000000       0x6c build/cmsis_os2.o
 .text.osMutexGetOwner
                0x00000000       0x38 build/cmsis_os2.o
 .text.osMutexDelete
                0x00000000       0x48 build/cmsis_os2.o
 .text.osSemaphoreNew
                0x00000000       0xdc build/cmsis_os2.o
 .text.osSemaphoreAcquire
                0x00000000       0x88 build/cmsis_os2.o
 .text.osSemaphoreRelease
                0x00000000       0x7c build/cmsis_os2.o
 .text.osSemaphoreGetCount
                0x00000000       0x38 build/cmsis_os2.o
 .text.osSemaphoreDelete
                0x00000000       0x48 build/cmsis_os2.o
 .text.osMessageQueueNew
                0x00000000       0xb4 build/cmsis_os2.o
 .text.osMessageQueuePut
                0x00000000       0xa4 build/cmsis_os2.o
 .text.osMessageQueueGet
                0x00000000       0xa4 build/cmsis_os2.o
 .text.osMessageQueueGetCapacity
                0x00000000        0xa build/cmsis_os2.o
 .text.osMessageQueueGetMsgSize
                0x00000000        0xa build/cmsis_os2.o
 .text.osMessageQueueGetCount
                0x00000000       0x38 build/cmsis_os2.o
 .text.osMessageQueueGetSpace
                0x00000000       0x54 build/cmsis_os2.o
 .text.osMessageQueueReset
                0x00000000       0x40 build/cmsis_os2.o
 .text.osMessageQueueDelete
                0x00000000       0x48 build/cmsis_os2.o
 .text          0x00000000        0x0 build/heap_4.o
 .data          0x00000000        0x0 build/heap_4.o
 .bss           0x00000000        0x0 build/heap_4.o
 .text.xPortGetFreeHeapSize
                0x00000000        0xc build/heap_4.o
 .text.xPortGetMinimumEverFreeHeapSize
                0x00000000        0xc build/heap_4.o
 .text.vPortInitialiseBlocks
                0x00000000        0x2 build/heap_4.o
 .text          0x00000000        0x0 build/port.o
 .data          0x00000000        0x0 build/port.o
 .bss           0x00000000        0x0 build/port.o
 .text.vPortEndScheduler
                0x00000000       0x28 build/port.o
 .text          0x00000000       0x14 build/startup_stm32f767xx.o
 .data          0x00000000        0x0 build/startup_stm32f767xx.o
 .bss           0x00000000        0x0 build/startup_stm32f767xx.o
 .text          0x00000000        0x0 f:/prosoft/gcc_arm_none/2019q4/9 2019-q4-major/bin/../lib/gcc/arm-none-eabi/9.2.1/../../../../arm-none-eabi/lib/thumb/v7e-m+dp/hard\libc_nano.a(lib_a-exit.o)
 .data          0x00000000        0x0 f:/prosoft/gcc_arm_none/2019q4/9 2019-q4-major/bin/../lib/gcc/arm-none-eabi/9.2.1/../../../../arm-none-eabi/lib/thumb/v7e-m+dp/hard\libc_nano.a(lib_a-exit.o)
 .bss           0x00000000        0x0 f:/prosoft/gcc_arm_none/2019q4/9 2019-q4-major/bin/../lib/gcc/arm-none-eabi/9.2.1/../../../../arm-none-eabi/lib/thumb/v7e-m+dp/hard\libc_nano.a(lib_a-exit.o)
 .text.exit     0x00000000       0x28 f:/prosoft/gcc_arm_none/2019q4/9 2019-q4-major/bin/../lib/gcc/arm-none-eabi/9.2.1/../../../../arm-none-eabi/lib/thumb/v7e-m+dp/hard\libc_nano.a(lib_a-exit.o)
 .debug_frame   0x00000000       0x28 f:/prosoft/gcc_arm_none/2019q4/9 2019-q4-major/bin/../lib/gcc/arm-none-eabi/9.2.1/../../../../arm-none-eabi/lib/thumb/v7e-m+dp/hard\libc_nano.a(lib_a-exit.o)
 .ARM.attributes
                0x00000000       0x32 f:/prosoft/gcc_arm_none/2019q4/9 2019-q4-major/bin/../lib/gcc/arm-none-eabi/9.2.1/../../../../arm-none-eabi/lib/thumb/v7e-m+dp/hard\libc_nano.a(lib_a-exit.o)
 .text          0x00000000        0x0 f:/prosoft/gcc_arm_none/2019q4/9 2019-q4-major/bin/../lib/gcc/arm-none-eabi/9.2.1/../../../../arm-none-eabi/lib/thumb/v7e-m+dp/hard\libc_nano.a(lib_a-impure.o)
 .data          0x00000000        0x0 f:/prosoft/gcc_arm_none/2019q4/9 2019-q4-major/bin/../lib/gcc/arm-none-eabi/9.2.1/../../../../arm-none-eabi/lib/thumb/v7e-m+dp/hard\libc_nano.a(lib_a-impure.o)
 .bss           0x00000000        0x0 f:/prosoft/gcc_arm_none/2019q4/9 2019-q4-major/bin/../lib/gcc/arm-none-eabi/9.2.1/../../../../arm-none-eabi/lib/thumb/v7e-m+dp/hard\libc_nano.a(lib_a-impure.o)
 .text          0x00000000        0x0 f:/prosoft/gcc_arm_none/2019q4/9 2019-q4-major/bin/../lib/gcc/arm-none-eabi/9.2.1/../../../../arm-none-eabi/lib/thumb/v7e-m+dp/hard\libc_nano.a(lib_a-init.o)
 .data          0x00000000        0x0 f:/prosoft/gcc_arm_none/2019q4/9 2019-q4-major/bin/../lib/gcc/arm-none-eabi/9.2.1/../../../../arm-none-eabi/lib/thumb/v7e-m+dp/hard\libc_nano.a(lib_a-init.o)
 .bss           0x00000000        0x0 f:/prosoft/gcc_arm_none/2019q4/9 2019-q4-major/bin/../lib/gcc/arm-none-eabi/9.2.1/../../../../arm-none-eabi/lib/thumb/v7e-m+dp/hard\libc_nano.a(lib_a-init.o)
 .text          0x00000000        0x0 f:/prosoft/gcc_arm_none/2019q4/9 2019-q4-major/bin/../lib/gcc/arm-none-eabi/9.2.1/../../../../arm-none-eabi/lib/thumb/v7e-m+dp/hard\libc_nano.a(lib_a-memcpy-stub.o)
 .data          0x00000000        0x0 f:/prosoft/gcc_arm_none/2019q4/9 2019-q4-major/bin/../lib/gcc/arm-none-eabi/9.2.1/../../../../arm-none-eabi/lib/thumb/v7e-m+dp/hard\libc_nano.a(lib_a-memcpy-stub.o)
 .bss           0x00000000        0x0 f:/prosoft/gcc_arm_none/2019q4/9 2019-q4-major/bin/../lib/gcc/arm-none-eabi/9.2.1/../../../../arm-none-eabi/lib/thumb/v7e-m+dp/hard\libc_nano.a(lib_a-memcpy-stub.o)
 .text          0x00000000        0x0 f:/prosoft/gcc_arm_none/2019q4/9 2019-q4-major/bin/../lib/gcc/arm-none-eabi/9.2.1/../../../../arm-none-eabi/lib/thumb/v7e-m+dp/hard\libc_nano.a(lib_a-memset.o)
 .data          0x00000000        0x0 f:/prosoft/gcc_arm_none/2019q4/9 2019-q4-major/bin/../lib/gcc/arm-none-eabi/9.2.1/../../../../arm-none-eabi/lib/thumb/v7e-m+dp/hard\libc_nano.a(lib_a-memset.o)
 .bss           0x00000000        0x0 f:/prosoft/gcc_arm_none/2019q4/9 2019-q4-major/bin/../lib/gcc/arm-none-eabi/9.2.1/../../../../arm-none-eabi/lib/thumb/v7e-m+dp/hard\libc_nano.a(lib_a-memset.o)
 .text          0x00000000        0x0 f:/prosoft/gcc_arm_none/2019q4/9 2019-q4-major/bin/../lib/gcc/arm-none-eabi/9.2.1/../../../../arm-none-eabi/lib/thumb/v7e-m+dp/hard\libc_nano.a(lib_a-nano-vfprintf_float.o)
 .data          0x00000000        0x0 f:/prosoft/gcc_arm_none/2019q4/9 2019-q4-major/bin/../lib/gcc/arm-none-eabi/9.2.1/../../../../arm-none-eabi/lib/thumb/v7e-m+dp/hard\libc_nano.a(lib_a-nano-vfprintf_float.o)
 .bss           0x00000000        0x0 f:/prosoft/gcc_arm_none/2019q4/9 2019-q4-major/bin/../lib/gcc/arm-none-eabi/9.2.1/../../../../arm-none-eabi/lib/thumb/v7e-m+dp/hard\libc_nano.a(lib_a-nano-vfprintf_float.o)
 .text          0x00000000        0x0 f:/prosoft/gcc_arm_none/2019q4/9 2019-q4-major/bin/../lib/gcc/arm-none-eabi/9.2.1/../../../../arm-none-eabi/lib/thumb/v7e-m+dp/hard\libc_nano.a(lib_a-nano-vfprintf_i.o)
 .data          0x00000000        0x0 f:/prosoft/gcc_arm_none/2019q4/9 2019-q4-major/bin/../lib/gcc/arm-none-eabi/9.2.1/../../../../arm-none-eabi/lib/thumb/v7e-m+dp/hard\libc_nano.a(lib_a-nano-vfprintf_i.o)
 .bss           0x00000000        0x0 f:/prosoft/gcc_arm_none/2019q4/9 2019-q4-major/bin/../lib/gcc/arm-none-eabi/9.2.1/../../../../arm-none-eabi/lib/thumb/v7e-m+dp/hard\libc_nano.a(lib_a-nano-vfprintf_i.o)
 .text          0x00000000        0x0 f:/prosoft/gcc_arm_none/2019q4/9 2019-q4-major/bin/../lib/gcc/arm-none-eabi/9.2.1/../../../../arm-none-eabi/lib/thumb/v7e-m+dp/hard\libc_nano.a(lib_a-printf.o)
 .data          0x00000000        0x0 f:/prosoft/gcc_arm_none/2019q4/9 2019-q4-major/bin/../lib/gcc/arm-none-eabi/9.2.1/../../../../arm-none-eabi/lib/thumb/v7e-m+dp/hard\libc_nano.a(lib_a-printf.o)
 .bss           0x00000000        0x0 f:/prosoft/gcc_arm_none/2019q4/9 2019-q4-major/bin/../lib/gcc/arm-none-eabi/9.2.1/../../../../arm-none-eabi/lib/thumb/v7e-m+dp/hard\libc_nano.a(lib_a-printf.o)
 .text._printf_r
                0x00000000       0x28 f:/prosoft/gcc_arm_none/2019q4/9 2019-q4-major/bin/../lib/gcc/arm-none-eabi/9.2.1/../../../../arm-none-eabi/lib/thumb/v7e-m+dp/hard\libc_nano.a(lib_a-printf.o)
 .data          0x00000000        0x0 f:/prosoft/gcc_arm_none/2019q4/9 2019-q4-major/bin/../lib/gcc/arm-none-eabi/9.2.1/../../../../arm-none-eabi/lib/thumb/v7e-m+dp/hard\libc_nano.a(lib_a-strlen.o)
 .bss           0x00000000        0x0 f:/prosoft/gcc_arm_none/2019q4/9 2019-q4-major/bin/../lib/gcc/arm-none-eabi/9.2.1/../../../../arm-none-eabi/lib/thumb/v7e-m+dp/hard\libc_nano.a(lib_a-strlen.o)
 .text          0x00000000        0x0 f:/prosoft/gcc_arm_none/2019q4/9 2019-q4-major/bin/../lib/gcc/arm-none-eabi/9.2.1/../../../../arm-none-eabi/lib/thumb/v7e-m+dp/hard\libc_nano.a(lib_a-dtoa.o)
 .data          0x00000000        0x0 f:/prosoft/gcc_arm_none/2019q4/9 2019-q4-major/bin/../lib/gcc/arm-none-eabi/9.2.1/../../../../arm-none-eabi/lib/thumb/v7e-m+dp/hard\libc_nano.a(lib_a-dtoa.o)
 .bss           0x00000000        0x0 f:/prosoft/gcc_arm_none/2019q4/9 2019-q4-major/bin/../lib/gcc/arm-none-eabi/9.2.1/../../../../arm-none-eabi/lib/thumb/v7e-m+dp/hard\libc_nano.a(lib_a-dtoa.o)
 .text          0x00000000        0x0 f:/prosoft/gcc_arm_none/2019q4/9 2019-q4-major/bin/../lib/gcc/arm-none-eabi/9.2.1/../../../../arm-none-eabi/lib/thumb/v7e-m+dp/hard\libc_nano.a(lib_a-findfp.o)
 .data          0x00000000        0x0 f:/prosoft/gcc_arm_none/2019q4/9 2019-q4-major/bin/../lib/gcc/arm-none-eabi/9.2.1/../../../../arm-none-eabi/lib/thumb/v7e-m+dp/hard\libc_nano.a(lib_a-findfp.o)
 .bss           0x00000000        0x0 f:/prosoft/gcc_arm_none/2019q4/9 2019-q4-major/bin/../lib/gcc/arm-none-eabi/9.2.1/../../../../arm-none-eabi/lib/thumb/v7e-m+dp/hard\libc_nano.a(lib_a-findfp.o)
 .text.__fp_lock
                0x00000000       0x18 f:/prosoft/gcc_arm_none/2019q4/9 2019-q4-major/bin/../lib/gcc/arm-none-eabi/9.2.1/../../../../arm-none-eabi/lib/thumb/v7e-m+dp/hard\libc_nano.a(lib_a-findfp.o)
 .text.__fp_unlock
                0x00000000       0x18 f:/prosoft/gcc_arm_none/2019q4/9 2019-q4-major/bin/../lib/gcc/arm-none-eabi/9.2.1/../../../../arm-none-eabi/lib/thumb/v7e-m+dp/hard\libc_nano.a(lib_a-findfp.o)
 .text._cleanup
                0x00000000        0xc f:/prosoft/gcc_arm_none/2019q4/9 2019-q4-major/bin/../lib/gcc/arm-none-eabi/9.2.1/../../../../arm-none-eabi/lib/thumb/v7e-m+dp/hard\libc_nano.a(lib_a-findfp.o)
 .text.__fp_lock_all
                0x00000000       0x1c f:/prosoft/gcc_arm_none/2019q4/9 2019-q4-major/bin/../lib/gcc/arm-none-eabi/9.2.1/../../../../arm-none-eabi/lib/thumb/v7e-m+dp/hard\libc_nano.a(lib_a-findfp.o)
 .text.__fp_unlock_all
                0x00000000       0x1c f:/prosoft/gcc_arm_none/2019q4/9 2019-q4-major/bin/../lib/gcc/arm-none-eabi/9.2.1/../../../../arm-none-eabi/lib/thumb/v7e-m+dp/hard\libc_nano.a(lib_a-findfp.o)
 .text          0x00000000        0x0 f:/prosoft/gcc_arm_none/2019q4/9 2019-q4-major/bin/../lib/gcc/arm-none-eabi/9.2.1/../../../../arm-none-eabi/lib/thumb/v7e-m+dp/hard\libc_nano.a(lib_a-fwalk.o)
 .data          0x00000000        0x0 f:/prosoft/gcc_arm_none/2019q4/9 2019-q4-major/bin/../lib/gcc/arm-none-eabi/9.2.1/../../../../arm-none-eabi/lib/thumb/v7e-m+dp/hard\libc_nano.a(lib_a-fwalk.o)
 .bss           0x00000000        0x0 f:/prosoft/gcc_arm_none/2019q4/9 2019-q4-major/bin/../lib/gcc/arm-none-eabi/9.2.1/../../../../arm-none-eabi/lib/thumb/v7e-m+dp/hard\libc_nano.a(lib_a-fwalk.o)
 .text._fwalk   0x00000000       0x3a f:/prosoft/gcc_arm_none/2019q4/9 2019-q4-major/bin/../lib/gcc/arm-none-eabi/9.2.1/../../../../arm-none-eabi/lib/thumb/v7e-m+dp/hard\libc_nano.a(lib_a-fwalk.o)
 .text          0x00000000        0x0 f:/prosoft/gcc_arm_none/2019q4/9 2019-q4-major/bin/../lib/gcc/arm-none-eabi/9.2.1/../../../../arm-none-eabi/lib/thumb/v7e-m+dp/hard\libc_nano.a(lib_a-localeconv.o)
 .data          0x00000000        0x0 f:/prosoft/gcc_arm_none/2019q4/9 2019-q4-major/bin/../lib/gcc/arm-none-eabi/9.2.1/../../../../arm-none-eabi/lib/thumb/v7e-m+dp/hard\libc_nano.a(lib_a-localeconv.o)
 .bss           0x00000000        0x0 f:/prosoft/gcc_arm_none/2019q4/9 2019-q4-major/bin/../lib/gcc/arm-none-eabi/9.2.1/../../../../arm-none-eabi/lib/thumb/v7e-m+dp/hard\libc_nano.a(lib_a-localeconv.o)
 .text.__localeconv_l
                0x00000000        0x4 f:/prosoft/gcc_arm_none/2019q4/9 2019-q4-major/bin/../lib/gcc/arm-none-eabi/9.2.1/../../../../arm-none-eabi/lib/thumb/v7e-m+dp/hard\libc_nano.a(lib_a-localeconv.o)
 .text.localeconv
                0x00000000        0x8 f:/prosoft/gcc_arm_none/2019q4/9 2019-q4-major/bin/../lib/gcc/arm-none-eabi/9.2.1/../../../../arm-none-eabi/lib/thumb/v7e-m+dp/hard\libc_nano.a(lib_a-localeconv.o)
 .text          0x00000000        0x0 f:/prosoft/gcc_arm_none/2019q4/9 2019-q4-major/bin/../lib/gcc/arm-none-eabi/9.2.1/../../../../arm-none-eabi/lib/thumb/v7e-m+dp/hard\libc_nano.a(lib_a-lock.o)
 .data          0x00000000        0x0 f:/prosoft/gcc_arm_none/2019q4/9 2019-q4-major/bin/../lib/gcc/arm-none-eabi/9.2.1/../../../../arm-none-eabi/lib/thumb/v7e-m+dp/hard\libc_nano.a(lib_a-lock.o)
 .bss           0x00000000        0x0 f:/prosoft/gcc_arm_none/2019q4/9 2019-q4-major/bin/../lib/gcc/arm-none-eabi/9.2.1/../../../../arm-none-eabi/lib/thumb/v7e-m+dp/hard\libc_nano.a(lib_a-lock.o)
 .text.__retarget_lock_init
                0x00000000        0x2 f:/prosoft/gcc_arm_none/2019q4/9 2019-q4-major/bin/../lib/gcc/arm-none-eabi/9.2.1/../../../../arm-none-eabi/lib/thumb/v7e-m+dp/hard\libc_nano.a(lib_a-lock.o)
 .text.__retarget_lock_close
                0x00000000        0x2 f:/prosoft/gcc_arm_none/2019q4/9 2019-q4-major/bin/../lib/gcc/arm-none-eabi/9.2.1/../../../../arm-none-eabi/lib/thumb/v7e-m+dp/hard\libc_nano.a(lib_a-lock.o)
 .text.__retarget_lock_close_recursive
                0x00000000        0x2 f:/prosoft/gcc_arm_none/2019q4/9 2019-q4-major/bin/../lib/gcc/arm-none-eabi/9.2.1/../../../../arm-none-eabi/lib/thumb/v7e-m+dp/hard\libc_nano.a(lib_a-lock.o)
 .text.__retarget_lock_acquire
                0x00000000        0x2 f:/prosoft/gcc_arm_none/2019q4/9 2019-q4-major/bin/../lib/gcc/arm-none-eabi/9.2.1/../../../../arm-none-eabi/lib/thumb/v7e-m+dp/hard\libc_nano.a(lib_a-lock.o)
 .text.__retarget_lock_try_acquire
                0x00000000        0x4 f:/prosoft/gcc_arm_none/2019q4/9 2019-q4-major/bin/../lib/gcc/arm-none-eabi/9.2.1/../../../../arm-none-eabi/lib/thumb/v7e-m+dp/hard\libc_nano.a(lib_a-lock.o)
 .text.__retarget_lock_try_acquire_recursive
                0x00000000        0x4 f:/prosoft/gcc_arm_none/2019q4/9 2019-q4-major/bin/../lib/gcc/arm-none-eabi/9.2.1/../../../../arm-none-eabi/lib/thumb/v7e-m+dp/hard\libc_nano.a(lib_a-lock.o)
 .text.__retarget_lock_release
                0x00000000        0x2 f:/prosoft/gcc_arm_none/2019q4/9 2019-q4-major/bin/../lib/gcc/arm-none-eabi/9.2.1/../../../../arm-none-eabi/lib/thumb/v7e-m+dp/hard\libc_nano.a(lib_a-lock.o)
 .text          0x00000000        0x0 f:/prosoft/gcc_arm_none/2019q4/9 2019-q4-major/bin/../lib/gcc/arm-none-eabi/9.2.1/../../../../arm-none-eabi/lib/thumb/v7e-m+dp/hard\libc_nano.a(lib_a-malloc.o)
 .data          0x00000000        0x0 f:/prosoft/gcc_arm_none/2019q4/9 2019-q4-major/bin/../lib/gcc/arm-none-eabi/9.2.1/../../../../arm-none-eabi/lib/thumb/v7e-m+dp/hard\libc_nano.a(lib_a-malloc.o)
 .bss           0x00000000        0x0 f:/prosoft/gcc_arm_none/2019q4/9 2019-q4-major/bin/../lib/gcc/arm-none-eabi/9.2.1/../../../../arm-none-eabi/lib/thumb/v7e-m+dp/hard\libc_nano.a(lib_a-malloc.o)
 .text.free     0x00000000       0x10 f:/prosoft/gcc_arm_none/2019q4/9 2019-q4-major/bin/../lib/gcc/arm-none-eabi/9.2.1/../../../../arm-none-eabi/lib/thumb/v7e-m+dp/hard\libc_nano.a(lib_a-malloc.o)
 .data          0x00000000        0x0 f:/prosoft/gcc_arm_none/2019q4/9 2019-q4-major/bin/../lib/gcc/arm-none-eabi/9.2.1/../../../../arm-none-eabi/lib/thumb/v7e-m+dp/hard\libc_nano.a(lib_a-memchr.o)
 .bss           0x00000000        0x0 f:/prosoft/gcc_arm_none/2019q4/9 2019-q4-major/bin/../lib/gcc/arm-none-eabi/9.2.1/../../../../arm-none-eabi/lib/thumb/v7e-m+dp/hard\libc_nano.a(lib_a-memchr.o)
 .text          0x00000000        0x0 f:/prosoft/gcc_arm_none/2019q4/9 2019-q4-major/bin/../lib/gcc/arm-none-eabi/9.2.1/../../../../arm-none-eabi/lib/thumb/v7e-m+dp/hard\libc_nano.a(lib_a-mprec.o)
 .data          0x00000000        0x0 f:/prosoft/gcc_arm_none/2019q4/9 2019-q4-major/bin/../lib/gcc/arm-none-eabi/9.2.1/../../../../arm-none-eabi/lib/thumb/v7e-m+dp/hard\libc_nano.a(lib_a-mprec.o)
 .bss           0x00000000        0x0 f:/prosoft/gcc_arm_none/2019q4/9 2019-q4-major/bin/../lib/gcc/arm-none-eabi/9.2.1/../../../../arm-none-eabi/lib/thumb/v7e-m+dp/hard\libc_nano.a(lib_a-mprec.o)
 .text.__s2b    0x00000000       0x7c f:/prosoft/gcc_arm_none/2019q4/9 2019-q4-major/bin/../lib/gcc/arm-none-eabi/9.2.1/../../../../arm-none-eabi/lib/thumb/v7e-m+dp/hard\libc_nano.a(lib_a-mprec.o)
 .text.__ulp    0x00000000       0x58 f:/prosoft/gcc_arm_none/2019q4/9 2019-q4-major/bin/../lib/gcc/arm-none-eabi/9.2.1/../../../../arm-none-eabi/lib/thumb/v7e-m+dp/hard\libc_nano.a(lib_a-mprec.o)
 .text.__b2d    0x00000000       0xa0 f:/prosoft/gcc_arm_none/2019q4/9 2019-q4-major/bin/../lib/gcc/arm-none-eabi/9.2.1/../../../../arm-none-eabi/lib/thumb/v7e-m+dp/hard\libc_nano.a(lib_a-mprec.o)
 .text.__ratio  0x00000000       0x68 f:/prosoft/gcc_arm_none/2019q4/9 2019-q4-major/bin/../lib/gcc/arm-none-eabi/9.2.1/../../../../arm-none-eabi/lib/thumb/v7e-m+dp/hard\libc_nano.a(lib_a-mprec.o)
 .text._mprec_log10
                0x00000000       0x28 f:/prosoft/gcc_arm_none/2019q4/9 2019-q4-major/bin/../lib/gcc/arm-none-eabi/9.2.1/../../../../arm-none-eabi/lib/thumb/v7e-m+dp/hard\libc_nano.a(lib_a-mprec.o)
 .text.__copybits
                0x00000000       0x46 f:/prosoft/gcc_arm_none/2019q4/9 2019-q4-major/bin/../lib/gcc/arm-none-eabi/9.2.1/../../../../arm-none-eabi/lib/thumb/v7e-m+dp/hard\libc_nano.a(lib_a-mprec.o)
 .text.__any_on
                0x00000000       0x42 f:/prosoft/gcc_arm_none/2019q4/9 2019-q4-major/bin/../lib/gcc/arm-none-eabi/9.2.1/../../../../arm-none-eabi/lib/thumb/v7e-m+dp/hard\libc_nano.a(lib_a-mprec.o)
 .rodata.__mprec_tinytens
                0x00000000       0x28 f:/prosoft/gcc_arm_none/2019q4/9 2019-q4-major/bin/../lib/gcc/arm-none-eabi/9.2.1/../../../../arm-none-eabi/lib/thumb/v7e-m+dp/hard\libc_nano.a(lib_a-mprec.o)
 .text          0x00000000        0x0 f:/prosoft/gcc_arm_none/2019q4/9 2019-q4-major/bin/../lib/gcc/arm-none-eabi/9.2.1/../../../../arm-none-eabi/lib/thumb/v7e-m+dp/hard\libc_nano.a(lib_a-nano-callocr.o)
 .data          0x00000000        0x0 f:/prosoft/gcc_arm_none/2019q4/9 2019-q4-major/bin/../lib/gcc/arm-none-eabi/9.2.1/../../../../arm-none-eabi/lib/thumb/v7e-m+dp/hard\libc_nano.a(lib_a-nano-callocr.o)
 .bss           0x00000000        0x0 f:/prosoft/gcc_arm_none/2019q4/9 2019-q4-major/bin/../lib/gcc/arm-none-eabi/9.2.1/../../../../arm-none-eabi/lib/thumb/v7e-m+dp/hard\libc_nano.a(lib_a-nano-callocr.o)
 .text          0x00000000        0x0 f:/prosoft/gcc_arm_none/2019q4/9 2019-q4-major/bin/../lib/gcc/arm-none-eabi/9.2.1/../../../../arm-none-eabi/lib/thumb/v7e-m+dp/hard\libc_nano.a(lib_a-nano-freer.o)
 .data          0x00000000        0x0 f:/prosoft/gcc_arm_none/2019q4/9 2019-q4-major/bin/../lib/gcc/arm-none-eabi/9.2.1/../../../../arm-none-eabi/lib/thumb/v7e-m+dp/hard\libc_nano.a(lib_a-nano-freer.o)
 .bss           0x00000000        0x0 f:/prosoft/gcc_arm_none/2019q4/9 2019-q4-major/bin/../lib/gcc/arm-none-eabi/9.2.1/../../../../arm-none-eabi/lib/thumb/v7e-m+dp/hard\libc_nano.a(lib_a-nano-freer.o)
 .text          0x00000000        0x0 f:/prosoft/gcc_arm_none/2019q4/9 2019-q4-major/bin/../lib/gcc/arm-none-eabi/9.2.1/../../../../arm-none-eabi/lib/thumb/v7e-m+dp/hard\libc_nano.a(lib_a-nano-mallocr.o)
 .data          0x00000000        0x0 f:/prosoft/gcc_arm_none/2019q4/9 2019-q4-major/bin/../lib/gcc/arm-none-eabi/9.2.1/../../../../arm-none-eabi/lib/thumb/v7e-m+dp/hard\libc_nano.a(lib_a-nano-mallocr.o)
 .bss           0x00000000        0x0 f:/prosoft/gcc_arm_none/2019q4/9 2019-q4-major/bin/../lib/gcc/arm-none-eabi/9.2.1/../../../../arm-none-eabi/lib/thumb/v7e-m+dp/hard\libc_nano.a(lib_a-nano-mallocr.o)
 .text          0x00000000        0x0 f:/prosoft/gcc_arm_none/2019q4/9 2019-q4-major/bin/../lib/gcc/arm-none-eabi/9.2.1/../../../../arm-none-eabi/lib/thumb/v7e-m+dp/hard\libc_nano.a(lib_a-nano-vfprintf.o)
 .data          0x00000000        0x0 f:/prosoft/gcc_arm_none/2019q4/9 2019-q4-major/bin/../lib/gcc/arm-none-eabi/9.2.1/../../../../arm-none-eabi/lib/thumb/v7e-m+dp/hard\libc_nano.a(lib_a-nano-vfprintf.o)
 .bss           0x00000000        0x0 f:/prosoft/gcc_arm_none/2019q4/9 2019-q4-major/bin/../lib/gcc/arm-none-eabi/9.2.1/../../../../arm-none-eabi/lib/thumb/v7e-m+dp/hard\libc_nano.a(lib_a-nano-vfprintf.o)
 .text.__sprint_r
                0x00000000       0x1a f:/prosoft/gcc_arm_none/2019q4/9 2019-q4-major/bin/../lib/gcc/arm-none-eabi/9.2.1/../../../../arm-none-eabi/lib/thumb/v7e-m+dp/hard\libc_nano.a(lib_a-nano-vfprintf.o)
 .text.vfprintf
                0x00000000       0x14 f:/prosoft/gcc_arm_none/2019q4/9 2019-q4-major/bin/../lib/gcc/arm-none-eabi/9.2.1/../../../../arm-none-eabi/lib/thumb/v7e-m+dp/hard\libc_nano.a(lib_a-nano-vfprintf.o)
 .text          0x00000000        0x0 f:/prosoft/gcc_arm_none/2019q4/9 2019-q4-major/bin/../lib/gcc/arm-none-eabi/9.2.1/../../../../arm-none-eabi/lib/thumb/v7e-m+dp/hard\libc_nano.a(lib_a-sbrkr.o)
 .data          0x00000000        0x0 f:/prosoft/gcc_arm_none/2019q4/9 2019-q4-major/bin/../lib/gcc/arm-none-eabi/9.2.1/../../../../arm-none-eabi/lib/thumb/v7e-m+dp/hard\libc_nano.a(lib_a-sbrkr.o)
 .bss           0x00000000        0x0 f:/prosoft/gcc_arm_none/2019q4/9 2019-q4-major/bin/../lib/gcc/arm-none-eabi/9.2.1/../../../../arm-none-eabi/lib/thumb/v7e-m+dp/hard\libc_nano.a(lib_a-sbrkr.o)
 .text          0x00000000        0x0 f:/prosoft/gcc_arm_none/2019q4/9 2019-q4-major/bin/../lib/gcc/arm-none-eabi/9.2.1/../../../../arm-none-eabi/lib/thumb/v7e-m+dp/hard\libc_nano.a(lib_a-stdio.o)
 .data          0x00000000        0x0 f:/prosoft/gcc_arm_none/2019q4/9 2019-q4-major/bin/../lib/gcc/arm-none-eabi/9.2.1/../../../../arm-none-eabi/lib/thumb/v7e-m+dp/hard\libc_nano.a(lib_a-stdio.o)
 .bss           0x00000000        0x0 f:/prosoft/gcc_arm_none/2019q4/9 2019-q4-major/bin/../lib/gcc/arm-none-eabi/9.2.1/../../../../arm-none-eabi/lib/thumb/v7e-m+dp/hard\libc_nano.a(lib_a-stdio.o)
 .text.__seofread
                0x00000000        0x4 f:/prosoft/gcc_arm_none/2019q4/9 2019-q4-major/bin/../lib/gcc/arm-none-eabi/9.2.1/../../../../arm-none-eabi/lib/thumb/v7e-m+dp/hard\libc_nano.a(lib_a-stdio.o)
 .text          0x00000000        0x0 f:/prosoft/gcc_arm_none/2019q4/9 2019-q4-major/bin/../lib/gcc/arm-none-eabi/9.2.1/../../../../arm-none-eabi/lib/thumb/v7e-m+dp/hard\libc_nano.a(lib_a-wbuf.o)
 .data          0x00000000        0x0 f:/prosoft/gcc_arm_none/2019q4/9 2019-q4-major/bin/../lib/gcc/arm-none-eabi/9.2.1/../../../../arm-none-eabi/lib/thumb/v7e-m+dp/hard\libc_nano.a(lib_a-wbuf.o)
 .bss           0x00000000        0x0 f:/prosoft/gcc_arm_none/2019q4/9 2019-q4-major/bin/../lib/gcc/arm-none-eabi/9.2.1/../../../../arm-none-eabi/lib/thumb/v7e-m+dp/hard\libc_nano.a(lib_a-wbuf.o)
 .text.__swbuf  0x00000000       0x10 f:/prosoft/gcc_arm_none/2019q4/9 2019-q4-major/bin/../lib/gcc/arm-none-eabi/9.2.1/../../../../arm-none-eabi/lib/thumb/v7e-m+dp/hard\libc_nano.a(lib_a-wbuf.o)
 .text          0x00000000        0x0 f:/prosoft/gcc_arm_none/2019q4/9 2019-q4-major/bin/../lib/gcc/arm-none-eabi/9.2.1/../../../../arm-none-eabi/lib/thumb/v7e-m+dp/hard\libc_nano.a(lib_a-writer.o)
 .data          0x00000000        0x0 f:/prosoft/gcc_arm_none/2019q4/9 2019-q4-major/bin/../lib/gcc/arm-none-eabi/9.2.1/../../../../arm-none-eabi/lib/thumb/v7e-m+dp/hard\libc_nano.a(lib_a-writer.o)
 .bss           0x00000000        0x0 f:/prosoft/gcc_arm_none/2019q4/9 2019-q4-major/bin/../lib/gcc/arm-none-eabi/9.2.1/../../../../arm-none-eabi/lib/thumb/v7e-m+dp/hard\libc_nano.a(lib_a-writer.o)
 .text          0x00000000        0x0 f:/prosoft/gcc_arm_none/2019q4/9 2019-q4-major/bin/../lib/gcc/arm-none-eabi/9.2.1/../../../../arm-none-eabi/lib/thumb/v7e-m+dp/hard\libc_nano.a(lib_a-wsetup.o)
 .data          0x00000000        0x0 f:/prosoft/gcc_arm_none/2019q4/9 2019-q4-major/bin/../lib/gcc/arm-none-eabi/9.2.1/../../../../arm-none-eabi/lib/thumb/v7e-m+dp/hard\libc_nano.a(lib_a-wsetup.o)
 .bss           0x00000000        0x0 f:/prosoft/gcc_arm_none/2019q4/9 2019-q4-major/bin/../lib/gcc/arm-none-eabi/9.2.1/../../../../arm-none-eabi/lib/thumb/v7e-m+dp/hard\libc_nano.a(lib_a-wsetup.o)
 .text          0x00000000        0x0 f:/prosoft/gcc_arm_none/2019q4/9 2019-q4-major/bin/../lib/gcc/arm-none-eabi/9.2.1/../../../../arm-none-eabi/lib/thumb/v7e-m+dp/hard\libc_nano.a(lib_a-closer.o)
 .data          0x00000000        0x0 f:/prosoft/gcc_arm_none/2019q4/9 2019-q4-major/bin/../lib/gcc/arm-none-eabi/9.2.1/../../../../arm-none-eabi/lib/thumb/v7e-m+dp/hard\libc_nano.a(lib_a-closer.o)
 .bss           0x00000000        0x0 f:/prosoft/gcc_arm_none/2019q4/9 2019-q4-major/bin/../lib/gcc/arm-none-eabi/9.2.1/../../../../arm-none-eabi/lib/thumb/v7e-m+dp/hard\libc_nano.a(lib_a-closer.o)
 .text          0x00000000        0x0 f:/prosoft/gcc_arm_none/2019q4/9 2019-q4-major/bin/../lib/gcc/arm-none-eabi/9.2.1/../../../../arm-none-eabi/lib/thumb/v7e-m+dp/hard\libc_nano.a(lib_a-fflush.o)
 .data          0x00000000        0x0 f:/prosoft/gcc_arm_none/2019q4/9 2019-q4-major/bin/../lib/gcc/arm-none-eabi/9.2.1/../../../../arm-none-eabi/lib/thumb/v7e-m+dp/hard\libc_nano.a(lib_a-fflush.o)
 .bss           0x00000000        0x0 f:/prosoft/gcc_arm_none/2019q4/9 2019-q4-major/bin/../lib/gcc/arm-none-eabi/9.2.1/../../../../arm-none-eabi/lib/thumb/v7e-m+dp/hard\libc_nano.a(lib_a-fflush.o)
 .text.fflush   0x00000000       0x24 f:/prosoft/gcc_arm_none/2019q4/9 2019-q4-major/bin/../lib/gcc/arm-none-eabi/9.2.1/../../../../arm-none-eabi/lib/thumb/v7e-m+dp/hard\libc_nano.a(lib_a-fflush.o)
 .text          0x00000000        0x0 f:/prosoft/gcc_arm_none/2019q4/9 2019-q4-major/bin/../lib/gcc/arm-none-eabi/9.2.1/../../../../arm-none-eabi/lib/thumb/v7e-m+dp/hard\libc_nano.a(lib_a-fvwrite.o)
 .data          0x00000000        0x0 f:/prosoft/gcc_arm_none/2019q4/9 2019-q4-major/bin/../lib/gcc/arm-none-eabi/9.2.1/../../../../arm-none-eabi/lib/thumb/v7e-m+dp/hard\libc_nano.a(lib_a-fvwrite.o)
 .bss           0x00000000        0x0 f:/prosoft/gcc_arm_none/2019q4/9 2019-q4-major/bin/../lib/gcc/arm-none-eabi/9.2.1/../../../../arm-none-eabi/lib/thumb/v7e-m+dp/hard\libc_nano.a(lib_a-fvwrite.o)
 .text.__sfvwrite_r
                0x00000000      0x294 f:/prosoft/gcc_arm_none/2019q4/9 2019-q4-major/bin/../lib/gcc/arm-none-eabi/9.2.1/../../../../arm-none-eabi/lib/thumb/v7e-m+dp/hard\libc_nano.a(lib_a-fvwrite.o)
 .debug_frame   0x00000000       0x3c f:/prosoft/gcc_arm_none/2019q4/9 2019-q4-major/bin/../lib/gcc/arm-none-eabi/9.2.1/../../../../arm-none-eabi/lib/thumb/v7e-m+dp/hard\libc_nano.a(lib_a-fvwrite.o)
 .ARM.attributes
                0x00000000       0x32 f:/prosoft/gcc_arm_none/2019q4/9 2019-q4-major/bin/../lib/gcc/arm-none-eabi/9.2.1/../../../../arm-none-eabi/lib/thumb/v7e-m+dp/hard\libc_nano.a(lib_a-fvwrite.o)
 .text          0x00000000        0x0 f:/prosoft/gcc_arm_none/2019q4/9 2019-q4-major/bin/../lib/gcc/arm-none-eabi/9.2.1/../../../../arm-none-eabi/lib/thumb/v7e-m+dp/hard\libc_nano.a(lib_a-locale.o)
 .data          0x00000000        0x0 f:/prosoft/gcc_arm_none/2019q4/9 2019-q4-major/bin/../lib/gcc/arm-none-eabi/9.2.1/../../../../arm-none-eabi/lib/thumb/v7e-m+dp/hard\libc_nano.a(lib_a-locale.o)
 .bss           0x00000000        0x0 f:/prosoft/gcc_arm_none/2019q4/9 2019-q4-major/bin/../lib/gcc/arm-none-eabi/9.2.1/../../../../arm-none-eabi/lib/thumb/v7e-m+dp/hard\libc_nano.a(lib_a-locale.o)
 .text._setlocale_r
                0x00000000       0x40 f:/prosoft/gcc_arm_none/2019q4/9 2019-q4-major/bin/../lib/gcc/arm-none-eabi/9.2.1/../../../../arm-none-eabi/lib/thumb/v7e-m+dp/hard\libc_nano.a(lib_a-locale.o)
 .text.__locale_mb_cur_max
                0x00000000        0xc f:/prosoft/gcc_arm_none/2019q4/9 2019-q4-major/bin/../lib/gcc/arm-none-eabi/9.2.1/../../../../arm-none-eabi/lib/thumb/v7e-m+dp/hard\libc_nano.a(lib_a-locale.o)
 .text.setlocale
                0x00000000       0x10 f:/prosoft/gcc_arm_none/2019q4/9 2019-q4-major/bin/../lib/gcc/arm-none-eabi/9.2.1/../../../../arm-none-eabi/lib/thumb/v7e-m+dp/hard\libc_nano.a(lib_a-locale.o)
 .bss._PathLocale
                0x00000000        0x4 f:/prosoft/gcc_arm_none/2019q4/9 2019-q4-major/bin/../lib/gcc/arm-none-eabi/9.2.1/../../../../arm-none-eabi/lib/thumb/v7e-m+dp/hard\libc_nano.a(lib_a-locale.o)
 .text          0x00000000        0x0 f:/prosoft/gcc_arm_none/2019q4/9 2019-q4-major/bin/../lib/gcc/arm-none-eabi/9.2.1/../../../../arm-none-eabi/lib/thumb/v7e-m+dp/hard\libc_nano.a(lib_a-lseekr.o)
 .data          0x00000000        0x0 f:/prosoft/gcc_arm_none/2019q4/9 2019-q4-major/bin/../lib/gcc/arm-none-eabi/9.2.1/../../../../arm-none-eabi/lib/thumb/v7e-m+dp/hard\libc_nano.a(lib_a-lseekr.o)
 .bss           0x00000000        0x0 f:/prosoft/gcc_arm_none/2019q4/9 2019-q4-major/bin/../lib/gcc/arm-none-eabi/9.2.1/../../../../arm-none-eabi/lib/thumb/v7e-m+dp/hard\libc_nano.a(lib_a-lseekr.o)
 .text          0x00000000        0x0 f:/prosoft/gcc_arm_none/2019q4/9 2019-q4-major/bin/../lib/gcc/arm-none-eabi/9.2.1/../../../../arm-none-eabi/lib/thumb/v7e-m+dp/hard\libc_nano.a(lib_a-makebuf.o)
 .data          0x00000000        0x0 f:/prosoft/gcc_arm_none/2019q4/9 2019-q4-major/bin/../lib/gcc/arm-none-eabi/9.2.1/../../../../arm-none-eabi/lib/thumb/v7e-m+dp/hard\libc_nano.a(lib_a-makebuf.o)
 .bss           0x00000000        0x0 f:/prosoft/gcc_arm_none/2019q4/9 2019-q4-major/bin/../lib/gcc/arm-none-eabi/9.2.1/../../../../arm-none-eabi/lib/thumb/v7e-m+dp/hard\libc_nano.a(lib_a-makebuf.o)
 .text          0x00000000        0x0 f:/prosoft/gcc_arm_none/2019q4/9 2019-q4-major/bin/../lib/gcc/arm-none-eabi/9.2.1/../../../../arm-none-eabi/lib/thumb/v7e-m+dp/hard\libc_nano.a(lib_a-mbtowc_r.o)
 .data          0x00000000        0x0 f:/prosoft/gcc_arm_none/2019q4/9 2019-q4-major/bin/../lib/gcc/arm-none-eabi/9.2.1/../../../../arm-none-eabi/lib/thumb/v7e-m+dp/hard\libc_nano.a(lib_a-mbtowc_r.o)
 .bss           0x00000000        0x0 f:/prosoft/gcc_arm_none/2019q4/9 2019-q4-major/bin/../lib/gcc/arm-none-eabi/9.2.1/../../../../arm-none-eabi/lib/thumb/v7e-m+dp/hard\libc_nano.a(lib_a-mbtowc_r.o)
 .text._mbtowc_r
                0x00000000       0x14 f:/prosoft/gcc_arm_none/2019q4/9 2019-q4-major/bin/../lib/gcc/arm-none-eabi/9.2.1/../../../../arm-none-eabi/lib/thumb/v7e-m+dp/hard\libc_nano.a(lib_a-mbtowc_r.o)
 .text          0x00000000        0x0 f:/prosoft/gcc_arm_none/2019q4/9 2019-q4-major/bin/../lib/gcc/arm-none-eabi/9.2.1/../../../../arm-none-eabi/lib/thumb/v7e-m+dp/hard\libc_nano.a(lib_a-memmove.o)
 .data          0x00000000        0x0 f:/prosoft/gcc_arm_none/2019q4/9 2019-q4-major/bin/../lib/gcc/arm-none-eabi/9.2.1/../../../../arm-none-eabi/lib/thumb/v7e-m+dp/hard\libc_nano.a(lib_a-memmove.o)
 .bss           0x00000000        0x0 f:/prosoft/gcc_arm_none/2019q4/9 2019-q4-major/bin/../lib/gcc/arm-none-eabi/9.2.1/../../../../arm-none-eabi/lib/thumb/v7e-m+dp/hard\libc_nano.a(lib_a-memmove.o)
 .text.memmove  0x00000000       0x34 f:/prosoft/gcc_arm_none/2019q4/9 2019-q4-major/bin/../lib/gcc/arm-none-eabi/9.2.1/../../../../arm-none-eabi/lib/thumb/v7e-m+dp/hard\libc_nano.a(lib_a-memmove.o)
 .debug_frame   0x00000000       0x28 f:/prosoft/gcc_arm_none/2019q4/9 2019-q4-major/bin/../lib/gcc/arm-none-eabi/9.2.1/../../../../arm-none-eabi/lib/thumb/v7e-m+dp/hard\libc_nano.a(lib_a-memmove.o)
 .ARM.attributes
                0x00000000       0x32 f:/prosoft/gcc_arm_none/2019q4/9 2019-q4-major/bin/../lib/gcc/arm-none-eabi/9.2.1/../../../../arm-none-eabi/lib/thumb/v7e-m+dp/hard\libc_nano.a(lib_a-memmove.o)
 .text          0x00000000        0x0 f:/prosoft/gcc_arm_none/2019q4/9 2019-q4-major/bin/../lib/gcc/arm-none-eabi/9.2.1/../../../../arm-none-eabi/lib/thumb/v7e-m+dp/hard\libc_nano.a(lib_a-mlock.o)
 .data          0x00000000        0x0 f:/prosoft/gcc_arm_none/2019q4/9 2019-q4-major/bin/../lib/gcc/arm-none-eabi/9.2.1/../../../../arm-none-eabi/lib/thumb/v7e-m+dp/hard\libc_nano.a(lib_a-mlock.o)
 .bss           0x00000000        0x0 f:/prosoft/gcc_arm_none/2019q4/9 2019-q4-major/bin/../lib/gcc/arm-none-eabi/9.2.1/../../../../arm-none-eabi/lib/thumb/v7e-m+dp/hard\libc_nano.a(lib_a-mlock.o)
 .text          0x00000000        0x0 f:/prosoft/gcc_arm_none/2019q4/9 2019-q4-major/bin/../lib/gcc/arm-none-eabi/9.2.1/../../../../arm-none-eabi/lib/thumb/v7e-m+dp/hard\libc_nano.a(lib_a-nano-reallocr.o)
 .data          0x00000000        0x0 f:/prosoft/gcc_arm_none/2019q4/9 2019-q4-major/bin/../lib/gcc/arm-none-eabi/9.2.1/../../../../arm-none-eabi/lib/thumb/v7e-m+dp/hard\libc_nano.a(lib_a-nano-reallocr.o)
 .bss           0x00000000        0x0 f:/prosoft/gcc_arm_none/2019q4/9 2019-q4-major/bin/../lib/gcc/arm-none-eabi/9.2.1/../../../../arm-none-eabi/lib/thumb/v7e-m+dp/hard\libc_nano.a(lib_a-nano-reallocr.o)
 .text._realloc_r
                0x00000000       0x4c f:/prosoft/gcc_arm_none/2019q4/9 2019-q4-major/bin/../lib/gcc/arm-none-eabi/9.2.1/../../../../arm-none-eabi/lib/thumb/v7e-m+dp/hard\libc_nano.a(lib_a-nano-reallocr.o)
 .debug_frame   0x00000000       0x3c f:/prosoft/gcc_arm_none/2019q4/9 2019-q4-major/bin/../lib/gcc/arm-none-eabi/9.2.1/../../../../arm-none-eabi/lib/thumb/v7e-m+dp/hard\libc_nano.a(lib_a-nano-reallocr.o)
 .ARM.attributes
                0x00000000       0x32 f:/prosoft/gcc_arm_none/2019q4/9 2019-q4-major/bin/../lib/gcc/arm-none-eabi/9.2.1/../../../../arm-none-eabi/lib/thumb/v7e-m+dp/hard\libc_nano.a(lib_a-nano-reallocr.o)
 .text          0x00000000        0x0 f:/prosoft/gcc_arm_none/2019q4/9 2019-q4-major/bin/../lib/gcc/arm-none-eabi/9.2.1/../../../../arm-none-eabi/lib/thumb/v7e-m+dp/hard\libc_nano.a(lib_a-readr.o)
 .data          0x00000000        0x0 f:/prosoft/gcc_arm_none/2019q4/9 2019-q4-major/bin/../lib/gcc/arm-none-eabi/9.2.1/../../../../arm-none-eabi/lib/thumb/v7e-m+dp/hard\libc_nano.a(lib_a-readr.o)
 .bss           0x00000000        0x0 f:/prosoft/gcc_arm_none/2019q4/9 2019-q4-major/bin/../lib/gcc/arm-none-eabi/9.2.1/../../../../arm-none-eabi/lib/thumb/v7e-m+dp/hard\libc_nano.a(lib_a-readr.o)
 .text          0x00000000        0x0 f:/prosoft/gcc_arm_none/2019q4/9 2019-q4-major/bin/../lib/gcc/arm-none-eabi/9.2.1/../../../../arm-none-eabi/lib/thumb/v7e-m+dp/hard\libc_nano.a(lib_a-reent.o)
 .data          0x00000000        0x0 f:/prosoft/gcc_arm_none/2019q4/9 2019-q4-major/bin/../lib/gcc/arm-none-eabi/9.2.1/../../../../arm-none-eabi/lib/thumb/v7e-m+dp/hard\libc_nano.a(lib_a-reent.o)
 .bss           0x00000000        0x0 f:/prosoft/gcc_arm_none/2019q4/9 2019-q4-major/bin/../lib/gcc/arm-none-eabi/9.2.1/../../../../arm-none-eabi/lib/thumb/v7e-m+dp/hard\libc_nano.a(lib_a-reent.o)
 .text.cleanup_glue
                0x00000000       0x1a f:/prosoft/gcc_arm_none/2019q4/9 2019-q4-major/bin/../lib/gcc/arm-none-eabi/9.2.1/../../../../arm-none-eabi/lib/thumb/v7e-m+dp/hard\libc_nano.a(lib_a-reent.o)
 .text._reclaim_reent
                0x00000000       0xb8 f:/prosoft/gcc_arm_none/2019q4/9 2019-q4-major/bin/../lib/gcc/arm-none-eabi/9.2.1/../../../../arm-none-eabi/lib/thumb/v7e-m+dp/hard\libc_nano.a(lib_a-reent.o)
 .text          0x00000000       0x14 f:/prosoft/gcc_arm_none/2019q4/9 2019-q4-major/bin/../lib/gcc/arm-none-eabi/9.2.1/../../../../arm-none-eabi/lib/thumb/v7e-m+dp/hard\libc_nano.a(lib_a-strcmp.o)
 .data          0x00000000        0x0 f:/prosoft/gcc_arm_none/2019q4/9 2019-q4-major/bin/../lib/gcc/arm-none-eabi/9.2.1/../../../../arm-none-eabi/lib/thumb/v7e-m+dp/hard\libc_nano.a(lib_a-strcmp.o)
 .bss           0x00000000        0x0 f:/prosoft/gcc_arm_none/2019q4/9 2019-q4-major/bin/../lib/gcc/arm-none-eabi/9.2.1/../../../../arm-none-eabi/lib/thumb/v7e-m+dp/hard\libc_nano.a(lib_a-strcmp.o)
 .debug_frame   0x00000000       0x20 f:/prosoft/gcc_arm_none/2019q4/9 2019-q4-major/bin/../lib/gcc/arm-none-eabi/9.2.1/../../../../arm-none-eabi/lib/thumb/v7e-m+dp/hard\libc_nano.a(lib_a-strcmp.o)
 .ARM.attributes
                0x00000000       0x1c f:/prosoft/gcc_arm_none/2019q4/9 2019-q4-major/bin/../lib/gcc/arm-none-eabi/9.2.1/../../../../arm-none-eabi/lib/thumb/v7e-m+dp/hard\libc_nano.a(lib_a-strcmp.o)
 .text          0x00000000        0x0 f:/prosoft/gcc_arm_none/2019q4/9 2019-q4-major/bin/../lib/gcc/arm-none-eabi/9.2.1/../../../../arm-none-eabi/lib/thumb/v7e-m+dp/hard\libc_nano.a(lib_a-wctomb_r.o)
 .data          0x00000000        0x0 f:/prosoft/gcc_arm_none/2019q4/9 2019-q4-major/bin/../lib/gcc/arm-none-eabi/9.2.1/../../../../arm-none-eabi/lib/thumb/v7e-m+dp/hard\libc_nano.a(lib_a-wctomb_r.o)
 .bss           0x00000000        0x0 f:/prosoft/gcc_arm_none/2019q4/9 2019-q4-major/bin/../lib/gcc/arm-none-eabi/9.2.1/../../../../arm-none-eabi/lib/thumb/v7e-m+dp/hard\libc_nano.a(lib_a-wctomb_r.o)
 .text._wctomb_r
                0x00000000       0x14 f:/prosoft/gcc_arm_none/2019q4/9 2019-q4-major/bin/../lib/gcc/arm-none-eabi/9.2.1/../../../../arm-none-eabi/lib/thumb/v7e-m+dp/hard\libc_nano.a(lib_a-wctomb_r.o)
 .text          0x00000000        0x0 f:/prosoft/gcc_arm_none/2019q4/9 2019-q4-major/bin/../lib/gcc/arm-none-eabi/9.2.1/../../../../arm-none-eabi/lib/thumb/v7e-m+dp/hard\libc_nano.a(lib_a-ctype_.o)
 .data          0x00000000        0x0 f:/prosoft/gcc_arm_none/2019q4/9 2019-q4-major/bin/../lib/gcc/arm-none-eabi/9.2.1/../../../../arm-none-eabi/lib/thumb/v7e-m+dp/hard\libc_nano.a(lib_a-ctype_.o)
 .bss           0x00000000        0x0 f:/prosoft/gcc_arm_none/2019q4/9 2019-q4-major/bin/../lib/gcc/arm-none-eabi/9.2.1/../../../../arm-none-eabi/lib/thumb/v7e-m+dp/hard\libc_nano.a(lib_a-ctype_.o)
 .text          0x00000000        0x0 f:/prosoft/gcc_arm_none/2019q4/9 2019-q4-major/bin/../lib/gcc/arm-none-eabi/9.2.1/../../../../arm-none-eabi/lib/thumb/v7e-m+dp/hard\libc_nano.a(lib_a-fstatr.o)
 .data          0x00000000        0x0 f:/prosoft/gcc_arm_none/2019q4/9 2019-q4-major/bin/../lib/gcc/arm-none-eabi/9.2.1/../../../../arm-none-eabi/lib/thumb/v7e-m+dp/hard\libc_nano.a(lib_a-fstatr.o)
 .bss           0x00000000        0x0 f:/prosoft/gcc_arm_none/2019q4/9 2019-q4-major/bin/../lib/gcc/arm-none-eabi/9.2.1/../../../../arm-none-eabi/lib/thumb/v7e-m+dp/hard\libc_nano.a(lib_a-fstatr.o)
 .text          0x00000000        0x0 f:/prosoft/gcc_arm_none/2019q4/9 2019-q4-major/bin/../lib/gcc/arm-none-eabi/9.2.1/../../../../arm-none-eabi/lib/thumb/v7e-m+dp/hard\libc_nano.a(lib_a-isattyr.o)
 .data          0x00000000        0x0 f:/prosoft/gcc_arm_none/2019q4/9 2019-q4-major/bin/../lib/gcc/arm-none-eabi/9.2.1/../../../../arm-none-eabi/lib/thumb/v7e-m+dp/hard\libc_nano.a(lib_a-isattyr.o)
 .bss           0x00000000        0x0 f:/prosoft/gcc_arm_none/2019q4/9 2019-q4-major/bin/../lib/gcc/arm-none-eabi/9.2.1/../../../../arm-none-eabi/lib/thumb/v7e-m+dp/hard\libc_nano.a(lib_a-isattyr.o)
 .text          0x00000000        0x0 f:/prosoft/gcc_arm_none/2019q4/9 2019-q4-major/bin/../lib/gcc/arm-none-eabi/9.2.1/../../../../arm-none-eabi/lib/thumb/v7e-m+dp/hard\libc_nano.a(lib_a-nano-msizer.o)
 .data          0x00000000        0x0 f:/prosoft/gcc_arm_none/2019q4/9 2019-q4-major/bin/../lib/gcc/arm-none-eabi/9.2.1/../../../../arm-none-eabi/lib/thumb/v7e-m+dp/hard\libc_nano.a(lib_a-nano-msizer.o)
 .bss           0x00000000        0x0 f:/prosoft/gcc_arm_none/2019q4/9 2019-q4-major/bin/../lib/gcc/arm-none-eabi/9.2.1/../../../../arm-none-eabi/lib/thumb/v7e-m+dp/hard\libc_nano.a(lib_a-nano-msizer.o)
 .text._malloc_usable_size_r
                0x00000000       0x10 f:/prosoft/gcc_arm_none/2019q4/9 2019-q4-major/bin/../lib/gcc/arm-none-eabi/9.2.1/../../../../arm-none-eabi/lib/thumb/v7e-m+dp/hard\libc_nano.a(lib_a-nano-msizer.o)
 .debug_frame   0x00000000       0x20 f:/prosoft/gcc_arm_none/2019q4/9 2019-q4-major/bin/../lib/gcc/arm-none-eabi/9.2.1/../../../../arm-none-eabi/lib/thumb/v7e-m+dp/hard\libc_nano.a(lib_a-nano-msizer.o)
 .ARM.attributes
                0x00000000       0x32 f:/prosoft/gcc_arm_none/2019q4/9 2019-q4-major/bin/../lib/gcc/arm-none-eabi/9.2.1/../../../../arm-none-eabi/lib/thumb/v7e-m+dp/hard\libc_nano.a(lib_a-nano-msizer.o)
 .text          0x00000000        0x0 f:/prosoft/gcc_arm_none/2019q4/9 2019-q4-major/bin/../lib/gcc/arm-none-eabi/9.2.1/../../../../arm-none-eabi/lib/thumb/v7e-m+dp/hard\libm.a(lib_a-w_asin.o)
 .data          0x00000000        0x0 f:/prosoft/gcc_arm_none/2019q4/9 2019-q4-major/bin/../lib/gcc/arm-none-eabi/9.2.1/../../../../arm-none-eabi/lib/thumb/v7e-m+dp/hard\libm.a(lib_a-w_asin.o)
 .bss           0x00000000        0x0 f:/prosoft/gcc_arm_none/2019q4/9 2019-q4-major/bin/../lib/gcc/arm-none-eabi/9.2.1/../../../../arm-none-eabi/lib/thumb/v7e-m+dp/hard\libm.a(lib_a-w_asin.o)
 .text          0x00000000        0x0 f:/prosoft/gcc_arm_none/2019q4/9 2019-q4-major/bin/../lib/gcc/arm-none-eabi/9.2.1/../../../../arm-none-eabi/lib/thumb/v7e-m+dp/hard\libm.a(lib_a-w_atan2.o)
 .data          0x00000000        0x0 f:/prosoft/gcc_arm_none/2019q4/9 2019-q4-major/bin/../lib/gcc/arm-none-eabi/9.2.1/../../../../arm-none-eabi/lib/thumb/v7e-m+dp/hard\libm.a(lib_a-w_atan2.o)
 .bss           0x00000000        0x0 f:/prosoft/gcc_arm_none/2019q4/9 2019-q4-major/bin/../lib/gcc/arm-none-eabi/9.2.1/../../../../arm-none-eabi/lib/thumb/v7e-m+dp/hard\libm.a(lib_a-w_atan2.o)
 .text          0x00000000        0x0 f:/prosoft/gcc_arm_none/2019q4/9 2019-q4-major/bin/../lib/gcc/arm-none-eabi/9.2.1/../../../../arm-none-eabi/lib/thumb/v7e-m+dp/hard\libm.a(lib_a-e_asin.o)
 .data          0x00000000        0x0 f:/prosoft/gcc_arm_none/2019q4/9 2019-q4-major/bin/../lib/gcc/arm-none-eabi/9.2.1/../../../../arm-none-eabi/lib/thumb/v7e-m+dp/hard\libm.a(lib_a-e_asin.o)
 .bss           0x00000000        0x0 f:/prosoft/gcc_arm_none/2019q4/9 2019-q4-major/bin/../lib/gcc/arm-none-eabi/9.2.1/../../../../arm-none-eabi/lib/thumb/v7e-m+dp/hard\libm.a(lib_a-e_asin.o)
 .text          0x00000000        0x0 f:/prosoft/gcc_arm_none/2019q4/9 2019-q4-major/bin/../lib/gcc/arm-none-eabi/9.2.1/../../../../arm-none-eabi/lib/thumb/v7e-m+dp/hard\libm.a(lib_a-e_atan2.o)
 .data          0x00000000        0x0 f:/prosoft/gcc_arm_none/2019q4/9 2019-q4-major/bin/../lib/gcc/arm-none-eabi/9.2.1/../../../../arm-none-eabi/lib/thumb/v7e-m+dp/hard\libm.a(lib_a-e_atan2.o)
 .bss           0x00000000        0x0 f:/prosoft/gcc_arm_none/2019q4/9 2019-q4-major/bin/../lib/gcc/arm-none-eabi/9.2.1/../../../../arm-none-eabi/lib/thumb/v7e-m+dp/hard\libm.a(lib_a-e_atan2.o)
 .text          0x00000000        0x0 f:/prosoft/gcc_arm_none/2019q4/9 2019-q4-major/bin/../lib/gcc/arm-none-eabi/9.2.1/../../../../arm-none-eabi/lib/thumb/v7e-m+dp/hard\libm.a(lib_a-e_sqrt.o)
 .data          0x00000000        0x0 f:/prosoft/gcc_arm_none/2019q4/9 2019-q4-major/bin/../lib/gcc/arm-none-eabi/9.2.1/../../../../arm-none-eabi/lib/thumb/v7e-m+dp/hard\libm.a(lib_a-e_sqrt.o)
 .bss           0x00000000        0x0 f:/prosoft/gcc_arm_none/2019q4/9 2019-q4-major/bin/../lib/gcc/arm-none-eabi/9.2.1/../../../../arm-none-eabi/lib/thumb/v7e-m+dp/hard\libm.a(lib_a-e_sqrt.o)
 .text          0x00000000        0x0 f:/prosoft/gcc_arm_none/2019q4/9 2019-q4-major/bin/../lib/gcc/arm-none-eabi/9.2.1/../../../../arm-none-eabi/lib/thumb/v7e-m+dp/hard\libm.a(lib_a-s_atan.o)
 .data          0x00000000        0x0 f:/prosoft/gcc_arm_none/2019q4/9 2019-q4-major/bin/../lib/gcc/arm-none-eabi/9.2.1/../../../../arm-none-eabi/lib/thumb/v7e-m+dp/hard\libm.a(lib_a-s_atan.o)
 .bss           0x00000000        0x0 f:/prosoft/gcc_arm_none/2019q4/9 2019-q4-major/bin/../lib/gcc/arm-none-eabi/9.2.1/../../../../arm-none-eabi/lib/thumb/v7e-m+dp/hard\libm.a(lib_a-s_atan.o)
 .text          0x00000000        0x0 f:/prosoft/gcc_arm_none/2019q4/9 2019-q4-major/bin/../lib/gcc/arm-none-eabi/9.2.1/../../../../arm-none-eabi/lib/thumb/v7e-m+dp/hard\libm.a(lib_a-s_fabs.o)
 .data          0x00000000        0x0 f:/prosoft/gcc_arm_none/2019q4/9 2019-q4-major/bin/../lib/gcc/arm-none-eabi/9.2.1/../../../../arm-none-eabi/lib/thumb/v7e-m+dp/hard\libm.a(lib_a-s_fabs.o)
 .bss           0x00000000        0x0 f:/prosoft/gcc_arm_none/2019q4/9 2019-q4-major/bin/../lib/gcc/arm-none-eabi/9.2.1/../../../../arm-none-eabi/lib/thumb/v7e-m+dp/hard\libm.a(lib_a-s_fabs.o)
 .text          0x00000000        0x0 f:/prosoft/gcc_arm_none/2019q4/9 2019-q4-major/bin/../lib/gcc/arm-none-eabi/9.2.1/../../../../arm-none-eabi/lib/thumb/v7e-m+dp/hard\libm.a(lib_a-s_lib_ver.o)
 .data          0x00000000        0x0 f:/prosoft/gcc_arm_none/2019q4/9 2019-q4-major/bin/../lib/gcc/arm-none-eabi/9.2.1/../../../../arm-none-eabi/lib/thumb/v7e-m+dp/hard\libm.a(lib_a-s_lib_ver.o)
 .bss           0x00000000        0x0 f:/prosoft/gcc_arm_none/2019q4/9 2019-q4-major/bin/../lib/gcc/arm-none-eabi/9.2.1/../../../../arm-none-eabi/lib/thumb/v7e-m+dp/hard\libm.a(lib_a-s_lib_ver.o)
 .text          0x00000000        0x0 f:/prosoft/gcc_arm_none/2019q4/9 2019-q4-major/bin/../lib/gcc/arm-none-eabi/9.2.1/../../../../arm-none-eabi/lib/thumb/v7e-m+dp/hard\libm.a(lib_a-s_matherr.o)
 .data          0x00000000        0x0 f:/prosoft/gcc_arm_none/2019q4/9 2019-q4-major/bin/../lib/gcc/arm-none-eabi/9.2.1/../../../../arm-none-eabi/lib/thumb/v7e-m+dp/hard\libm.a(lib_a-s_matherr.o)
 .bss           0x00000000        0x0 f:/prosoft/gcc_arm_none/2019q4/9 2019-q4-major/bin/../lib/gcc/arm-none-eabi/9.2.1/../../../../arm-none-eabi/lib/thumb/v7e-m+dp/hard\libm.a(lib_a-s_matherr.o)
 .text          0x00000000        0x0 f:/prosoft/gcc_arm_none/2019q4/9 2019-q4-major/bin/../lib/gcc/arm-none-eabi/9.2.1/../../../../arm-none-eabi/lib/thumb/v7e-m+dp/hard\libm.a(lib_a-s_nan.o)
 .data          0x00000000        0x0 f:/prosoft/gcc_arm_none/2019q4/9 2019-q4-major/bin/../lib/gcc/arm-none-eabi/9.2.1/../../../../arm-none-eabi/lib/thumb/v7e-m+dp/hard\libm.a(lib_a-s_nan.o)
 .bss           0x00000000        0x0 f:/prosoft/gcc_arm_none/2019q4/9 2019-q4-major/bin/../lib/gcc/arm-none-eabi/9.2.1/../../../../arm-none-eabi/lib/thumb/v7e-m+dp/hard\libm.a(lib_a-s_nan.o)
 .text          0x00000000        0x0 f:/prosoft/gcc_arm_none/2019q4/9 2019-q4-major/bin/../lib/gcc/arm-none-eabi/9.2.1/../../../../arm-none-eabi/lib/thumb/v7e-m+dp/hard\libnosys.a(close.o)
 .data          0x00000000        0x0 f:/prosoft/gcc_arm_none/2019q4/9 2019-q4-major/bin/../lib/gcc/arm-none-eabi/9.2.1/../../../../arm-none-eabi/lib/thumb/v7e-m+dp/hard\libnosys.a(close.o)
 .bss           0x00000000        0x0 f:/prosoft/gcc_arm_none/2019q4/9 2019-q4-major/bin/../lib/gcc/arm-none-eabi/9.2.1/../../../../arm-none-eabi/lib/thumb/v7e-m+dp/hard\libnosys.a(close.o)
 .text          0x00000000        0x0 f:/prosoft/gcc_arm_none/2019q4/9 2019-q4-major/bin/../lib/gcc/arm-none-eabi/9.2.1/../../../../arm-none-eabi/lib/thumb/v7e-m+dp/hard\libnosys.a(fstat.o)
 .data          0x00000000        0x0 f:/prosoft/gcc_arm_none/2019q4/9 2019-q4-major/bin/../lib/gcc/arm-none-eabi/9.2.1/../../../../arm-none-eabi/lib/thumb/v7e-m+dp/hard\libnosys.a(fstat.o)
 .bss           0x00000000        0x0 f:/prosoft/gcc_arm_none/2019q4/9 2019-q4-major/bin/../lib/gcc/arm-none-eabi/9.2.1/../../../../arm-none-eabi/lib/thumb/v7e-m+dp/hard\libnosys.a(fstat.o)
 .text          0x00000000        0x0 f:/prosoft/gcc_arm_none/2019q4/9 2019-q4-major/bin/../lib/gcc/arm-none-eabi/9.2.1/../../../../arm-none-eabi/lib/thumb/v7e-m+dp/hard\libnosys.a(isatty.o)
 .data          0x00000000        0x0 f:/prosoft/gcc_arm_none/2019q4/9 2019-q4-major/bin/../lib/gcc/arm-none-eabi/9.2.1/../../../../arm-none-eabi/lib/thumb/v7e-m+dp/hard\libnosys.a(isatty.o)
 .bss           0x00000000        0x0 f:/prosoft/gcc_arm_none/2019q4/9 2019-q4-major/bin/../lib/gcc/arm-none-eabi/9.2.1/../../../../arm-none-eabi/lib/thumb/v7e-m+dp/hard\libnosys.a(isatty.o)
 .text          0x00000000        0x0 f:/prosoft/gcc_arm_none/2019q4/9 2019-q4-major/bin/../lib/gcc/arm-none-eabi/9.2.1/../../../../arm-none-eabi/lib/thumb/v7e-m+dp/hard\libnosys.a(lseek.o)
 .data          0x00000000        0x0 f:/prosoft/gcc_arm_none/2019q4/9 2019-q4-major/bin/../lib/gcc/arm-none-eabi/9.2.1/../../../../arm-none-eabi/lib/thumb/v7e-m+dp/hard\libnosys.a(lseek.o)
 .bss           0x00000000        0x0 f:/prosoft/gcc_arm_none/2019q4/9 2019-q4-major/bin/../lib/gcc/arm-none-eabi/9.2.1/../../../../arm-none-eabi/lib/thumb/v7e-m+dp/hard\libnosys.a(lseek.o)
 .text          0x00000000        0x0 f:/prosoft/gcc_arm_none/2019q4/9 2019-q4-major/bin/../lib/gcc/arm-none-eabi/9.2.1/../../../../arm-none-eabi/lib/thumb/v7e-m+dp/hard\libnosys.a(read.o)
 .data          0x00000000        0x0 f:/prosoft/gcc_arm_none/2019q4/9 2019-q4-major/bin/../lib/gcc/arm-none-eabi/9.2.1/../../../../arm-none-eabi/lib/thumb/v7e-m+dp/hard\libnosys.a(read.o)
 .bss           0x00000000        0x0 f:/prosoft/gcc_arm_none/2019q4/9 2019-q4-major/bin/../lib/gcc/arm-none-eabi/9.2.1/../../../../arm-none-eabi/lib/thumb/v7e-m+dp/hard\libnosys.a(read.o)
 .text          0x00000000        0x0 f:/prosoft/gcc_arm_none/2019q4/9 2019-q4-major/bin/../lib/gcc/arm-none-eabi/9.2.1/../../../../arm-none-eabi/lib/thumb/v7e-m+dp/hard\libnosys.a(sbrk.o)
 .data          0x00000000        0x0 f:/prosoft/gcc_arm_none/2019q4/9 2019-q4-major/bin/../lib/gcc/arm-none-eabi/9.2.1/../../../../arm-none-eabi/lib/thumb/v7e-m+dp/hard\libnosys.a(sbrk.o)
 .bss           0x00000000        0x0 f:/prosoft/gcc_arm_none/2019q4/9 2019-q4-major/bin/../lib/gcc/arm-none-eabi/9.2.1/../../../../arm-none-eabi/lib/thumb/v7e-m+dp/hard\libnosys.a(sbrk.o)
 .text          0x00000000        0x0 f:/prosoft/gcc_arm_none/2019q4/9 2019-q4-major/bin/../lib/gcc/arm-none-eabi/9.2.1/../../../../arm-none-eabi/lib/thumb/v7e-m+dp/hard\libnosys.a(_exit.o)
 .data          0x00000000        0x0 f:/prosoft/gcc_arm_none/2019q4/9 2019-q4-major/bin/../lib/gcc/arm-none-eabi/9.2.1/../../../../arm-none-eabi/lib/thumb/v7e-m+dp/hard\libnosys.a(_exit.o)
 .bss           0x00000000        0x0 f:/prosoft/gcc_arm_none/2019q4/9 2019-q4-major/bin/../lib/gcc/arm-none-eabi/9.2.1/../../../../arm-none-eabi/lib/thumb/v7e-m+dp/hard\libnosys.a(_exit.o)
 .text._exit    0x00000000        0x4 f:/prosoft/gcc_arm_none/2019q4/9 2019-q4-major/bin/../lib/gcc/arm-none-eabi/9.2.1/../../../../arm-none-eabi/lib/thumb/v7e-m+dp/hard\libnosys.a(_exit.o)
 .debug_frame   0x00000000       0x20 f:/prosoft/gcc_arm_none/2019q4/9 2019-q4-major/bin/../lib/gcc/arm-none-eabi/9.2.1/../../../../arm-none-eabi/lib/thumb/v7e-m+dp/hard\libnosys.a(_exit.o)
 .ARM.attributes
                0x00000000       0x32 f:/prosoft/gcc_arm_none/2019q4/9 2019-q4-major/bin/../lib/gcc/arm-none-eabi/9.2.1/../../../../arm-none-eabi/lib/thumb/v7e-m+dp/hard\libnosys.a(_exit.o)
 .text          0x00000000       0xa0 f:/prosoft/gcc_arm_none/2019q4/9 2019-q4-major/bin/../lib/gcc/arm-none-eabi/9.2.1/thumb/v7e-m+dp/hard\libgcc.a(_aeabi_ldivmod.o)
 .data          0x00000000        0x0 f:/prosoft/gcc_arm_none/2019q4/9 2019-q4-major/bin/../lib/gcc/arm-none-eabi/9.2.1/thumb/v7e-m+dp/hard\libgcc.a(_aeabi_ldivmod.o)
 .bss           0x00000000        0x0 f:/prosoft/gcc_arm_none/2019q4/9 2019-q4-major/bin/../lib/gcc/arm-none-eabi/9.2.1/thumb/v7e-m+dp/hard\libgcc.a(_aeabi_ldivmod.o)
 .debug_frame   0x00000000       0x44 f:/prosoft/gcc_arm_none/2019q4/9 2019-q4-major/bin/../lib/gcc/arm-none-eabi/9.2.1/thumb/v7e-m+dp/hard\libgcc.a(_aeabi_ldivmod.o)
 .ARM.attributes
                0x00000000       0x1e f:/prosoft/gcc_arm_none/2019q4/9 2019-q4-major/bin/../lib/gcc/arm-none-eabi/9.2.1/thumb/v7e-m+dp/hard\libgcc.a(_aeabi_ldivmod.o)
 .data          0x00000000        0x0 f:/prosoft/gcc_arm_none/2019q4/9 2019-q4-major/bin/../lib/gcc/arm-none-eabi/9.2.1/thumb/v7e-m+dp/hard\libgcc.a(_aeabi_uldivmod.o)
 .bss           0x00000000        0x0 f:/prosoft/gcc_arm_none/2019q4/9 2019-q4-major/bin/../lib/gcc/arm-none-eabi/9.2.1/thumb/v7e-m+dp/hard\libgcc.a(_aeabi_uldivmod.o)
 .data          0x00000000        0x0 f:/prosoft/gcc_arm_none/2019q4/9 2019-q4-major/bin/../lib/gcc/arm-none-eabi/9.2.1/thumb/v7e-m+dp/hard\libgcc.a(_udivmoddi4.o)
 .bss           0x00000000        0x0 f:/prosoft/gcc_arm_none/2019q4/9 2019-q4-major/bin/../lib/gcc/arm-none-eabi/9.2.1/thumb/v7e-m+dp/hard\libgcc.a(_udivmoddi4.o)
 .ARM.extab     0x00000000        0x0 f:/prosoft/gcc_arm_none/2019q4/9 2019-q4-major/bin/../lib/gcc/arm-none-eabi/9.2.1/thumb/v7e-m+dp/hard\libgcc.a(_udivmoddi4.o)
 .data          0x00000000        0x0 f:/prosoft/gcc_arm_none/2019q4/9 2019-q4-major/bin/../lib/gcc/arm-none-eabi/9.2.1/thumb/v7e-m+dp/hard\libgcc.a(_dvmd_tls.o)
 .bss           0x00000000        0x0 f:/prosoft/gcc_arm_none/2019q4/9 2019-q4-major/bin/../lib/gcc/arm-none-eabi/9.2.1/thumb/v7e-m+dp/hard\libgcc.a(_dvmd_tls.o)
 .text          0x00000000        0x0 f:/prosoft/gcc_arm_none/2019q4/9 2019-q4-major/bin/../lib/gcc/arm-none-eabi/9.2.1/../../../../arm-none-eabi/lib/thumb/v7e-m+dp/hard\libc_nano.a(lib_a-errno.o)
 .data          0x00000000        0x0 f:/prosoft/gcc_arm_none/2019q4/9 2019-q4-major/bin/../lib/gcc/arm-none-eabi/9.2.1/../../../../arm-none-eabi/lib/thumb/v7e-m+dp/hard\libc_nano.a(lib_a-errno.o)
 .bss           0x00000000        0x0 f:/prosoft/gcc_arm_none/2019q4/9 2019-q4-major/bin/../lib/gcc/arm-none-eabi/9.2.1/../../../../arm-none-eabi/lib/thumb/v7e-m+dp/hard\libc_nano.a(lib_a-errno.o)
 .text          0x00000000        0x0 f:/prosoft/gcc_arm_none/2019q4/9 2019-q4-major/bin/../lib/gcc/arm-none-eabi/9.2.1/thumb/v7e-m+dp/hard/crtend.o
 .data          0x00000000        0x0 f:/prosoft/gcc_arm_none/2019q4/9 2019-q4-major/bin/../lib/gcc/arm-none-eabi/9.2.1/thumb/v7e-m+dp/hard/crtend.o
 .bss           0x00000000        0x0 f:/prosoft/gcc_arm_none/2019q4/9 2019-q4-major/bin/../lib/gcc/arm-none-eabi/9.2.1/thumb/v7e-m+dp/hard/crtend.o
 .eh_frame      0x00000000        0x4 f:/prosoft/gcc_arm_none/2019q4/9 2019-q4-major/bin/../lib/gcc/arm-none-eabi/9.2.1/thumb/v7e-m+dp/hard/crtend.o
 .ARM.attributes
                0x00000000       0x30 f:/prosoft/gcc_arm_none/2019q4/9 2019-q4-major/bin/../lib/gcc/arm-none-eabi/9.2.1/thumb/v7e-m+dp/hard/crtend.o
 .text          0x00000000        0x0 f:/prosoft/gcc_arm_none/2019q4/9 2019-q4-major/bin/../lib/gcc/arm-none-eabi/9.2.1/thumb/v7e-m+dp/hard/crtn.o
 .data          0x00000000        0x0 f:/prosoft/gcc_arm_none/2019q4/9 2019-q4-major/bin/../lib/gcc/arm-none-eabi/9.2.1/thumb/v7e-m+dp/hard/crtn.o
 .bss           0x00000000        0x0 f:/prosoft/gcc_arm_none/2019q4/9 2019-q4-major/bin/../lib/gcc/arm-none-eabi/9.2.1/thumb/v7e-m+dp/hard/crtn.o

Memory Configuration

Name             Origin             Length             Attributes
RAM              0x20000000         0x00080000         xrw
FLASH            0x08000000         0x00100000         xr
*default*        0x00000000         0xffffffff

Linker script and memory map

LOAD f:/prosoft/gcc_arm_none/2019q4/9 2019-q4-major/bin/../lib/gcc/arm-none-eabi/9.2.1/thumb/v7e-m+dp/hard/crti.o
LOAD f:/prosoft/gcc_arm_none/2019q4/9 2019-q4-major/bin/../lib/gcc/arm-none-eabi/9.2.1/thumb/v7e-m+dp/hard/crtbegin.o
LOAD f:/prosoft/gcc_arm_none/2019q4/9 2019-q4-major/bin/../lib/gcc/arm-none-eabi/9.2.1/../../../../arm-none-eabi/lib/thumb/v7e-m+dp/hard/crt0.o
LOAD build/bsp_i2c.o
LOAD build/inv_mpu_dmp_motion_driver.o
LOAD build/inv_mpu.o
LOAD build/mpu6050.o
LOAD build/attitude.o
LOAD build/attitude_task.o
LOAD build/printf_redefine.o
LOAD build/main.o
LOAD build/gpio.o
LOAD build/freertos.o
LOAD build/i2c.o
LOAD build/usart.o
LOAD build/stm32f7xx_it.o
LOAD build/stm32f7xx_hal_msp.o
LOAD build/stm32f7xx_hal_timebase_tim.o
LOAD build/stm32f7xx_hal_cortex.o
LOAD build/stm32f7xx_hal_rcc.o
LOAD build/stm32f7xx_hal_rcc_ex.o
LOAD build/stm32f7xx_hal_flash.o
LOAD build/stm32f7xx_hal_flash_ex.o
LOAD build/stm32f7xx_hal_gpio.o
LOAD build/stm32f7xx_hal_dma.o
LOAD build/stm32f7xx_hal_dma_ex.o
LOAD build/stm32f7xx_hal_pwr.o
LOAD build/stm32f7xx_hal_pwr_ex.o
LOAD build/stm32f7xx_hal.o
LOAD build/stm32f7xx_hal_i2c.o
LOAD build/stm32f7xx_hal_i2c_ex.o
LOAD build/stm32f7xx_hal_exti.o
LOAD build/stm32f7xx_hal_tim.o
LOAD build/stm32f7xx_hal_tim_ex.o
LOAD build/stm32f7xx_hal_uart.o
LOAD build/stm32f7xx_hal_uart_ex.o
LOAD build/system_stm32f7xx.o
LOAD build/croutine.o
LOAD build/event_groups.o
LOAD build/list.o
LOAD build/queue.o
LOAD build/stream_buffer.o
LOAD build/tasks.o
LOAD build/timers.o
LOAD build/cmsis_os2.o
LOAD build/heap_4.o
LOAD build/port.o
LOAD build/startup_stm32f767xx.o
LOAD f:/prosoft/gcc_arm_none/2019q4/9 2019-q4-major/bin/../lib/gcc/arm-none-eabi/9.2.1/../../../../arm-none-eabi/lib/thumb/v7e-m+dp/hard\libc_nano.a
LOAD f:/prosoft/gcc_arm_none/2019q4/9 2019-q4-major/bin/../lib/gcc/arm-none-eabi/9.2.1/../../../../arm-none-eabi/lib/thumb/v7e-m+dp/hard\libm.a
LOAD f:/prosoft/gcc_arm_none/2019q4/9 2019-q4-major/bin/../lib/gcc/arm-none-eabi/9.2.1/../../../../arm-none-eabi/lib/thumb/v7e-m+dp/hard\libnosys.a
START GROUP
LOAD f:/prosoft/gcc_arm_none/2019q4/9 2019-q4-major/bin/../lib/gcc/arm-none-eabi/9.2.1/thumb/v7e-m+dp/hard\libgcc.a
LOAD f:/prosoft/gcc_arm_none/2019q4/9 2019-q4-major/bin/../lib/gcc/arm-none-eabi/9.2.1/../../../../arm-none-eabi/lib/thumb/v7e-m+dp/hard\libc_nano.a
END GROUP
START GROUP
LOAD f:/prosoft/gcc_arm_none/2019q4/9 2019-q4-major/bin/../lib/gcc/arm-none-eabi/9.2.1/thumb/v7e-m+dp/hard\libgcc.a
LOAD f:/prosoft/gcc_arm_none/2019q4/9 2019-q4-major/bin/../lib/gcc/arm-none-eabi/9.2.1/../../../../arm-none-eabi/lib/thumb/v7e-m+dp/hard\libc_nano.a
END GROUP
LOAD f:/prosoft/gcc_arm_none/2019q4/9 2019-q4-major/bin/../lib/gcc/arm-none-eabi/9.2.1/thumb/v7e-m+dp/hard/crtend.o
LOAD f:/prosoft/gcc_arm_none/2019q4/9 2019-q4-major/bin/../lib/gcc/arm-none-eabi/9.2.1/thumb/v7e-m+dp/hard/crtn.o
                0x20080000                _estack = 0x20080000
                0x00000200                _Min_Heap_Size = 0x200
                0x00000400                _Min_Stack_Size = 0x400

.isr_vector     0x08000000      0x1f8
                0x08000000                . = ALIGN (0x4)
 *(.isr_vector)
 .isr_vector    0x08000000      0x1f8 build/startup_stm32f767xx.o
                0x08000000                g_pfnVectors
                0x080001f8                . = ALIGN (0x4)

.text           0x08000200     0x9508
                0x08000200                . = ALIGN (0x4)
 *(.text)
 .text          0x08000200       0x40 f:/prosoft/gcc_arm_none/2019q4/9 2019-q4-major/bin/../lib/gcc/arm-none-eabi/9.2.1/thumb/v7e-m+dp/hard/crtbegin.o
 .text          0x08000240       0x10 f:/prosoft/gcc_arm_none/2019q4/9 2019-q4-major/bin/../lib/gcc/arm-none-eabi/9.2.1/../../../../arm-none-eabi/lib/thumb/v7e-m+dp/hard\libc_nano.a(lib_a-strlen.o)
                0x08000240                strlen
 .text          0x08000250       0xa0 f:/prosoft/gcc_arm_none/2019q4/9 2019-q4-major/bin/../lib/gcc/arm-none-eabi/9.2.1/../../../../arm-none-eabi/lib/thumb/v7e-m+dp/hard\libc_nano.a(lib_a-memchr.o)
                0x08000250                memchr
 .text          0x080002f0       0x30 f:/prosoft/gcc_arm_none/2019q4/9 2019-q4-major/bin/../lib/gcc/arm-none-eabi/9.2.1/thumb/v7e-m+dp/hard\libgcc.a(_aeabi_uldivmod.o)
                0x080002f0                __aeabi_uldivmod
 .text          0x08000320      0x2c4 f:/prosoft/gcc_arm_none/2019q4/9 2019-q4-major/bin/../lib/gcc/arm-none-eabi/9.2.1/thumb/v7e-m+dp/hard\libgcc.a(_udivmoddi4.o)
                0x08000320                __udivmoddi4
 .text          0x080005e4        0x4 f:/prosoft/gcc_arm_none/2019q4/9 2019-q4-major/bin/../lib/gcc/arm-none-eabi/9.2.1/thumb/v7e-m+dp/hard\libgcc.a(_dvmd_tls.o)
                0x080005e4                __aeabi_idiv0
                0x080005e4                __aeabi_ldiv0
 *(.text*)
 .text.Sensors_I2C_WriteRegister
                0x080005e8       0x50 build/bsp_i2c.o
                0x080005e8                Sensors_I2C_WriteRegister
 .text.Sensors_I2C_ReadRegister
                0x08000638       0x58 build/bsp_i2c.o
                0x08000638                Sensors_I2C_ReadRegister
 .text.get_tick_count
                0x08000690        0xc build/bsp_i2c.o
                0x08000690                get_tick_count
 .text.decode_gesture
                0x0800069c       0x3c build/inv_mpu_dmp_motion_driver.o
 .text.dmp_load_motion_driver_firmware
                0x080006d8       0x18 build/inv_mpu_dmp_motion_driver.o
                0x080006d8                dmp_load_motion_driver_firmware
 .text.dmp_set_orientation
                0x080006f0      0x144 build/inv_mpu_dmp_motion_driver.o
                0x080006f0                dmp_set_orientation
 .text.dmp_set_fifo_rate
                0x08000834       0x68 build/inv_mpu_dmp_motion_driver.o
                0x08000834                dmp_set_fifo_rate
 .text.dmp_set_tap_thresh
                0x0800089c      0x1d4 build/inv_mpu_dmp_motion_driver.o
                0x0800089c                dmp_set_tap_thresh
 .text.dmp_set_tap_axes
                0x08000a70       0x4e build/inv_mpu_dmp_motion_driver.o
                0x08000a70                dmp_set_tap_axes
 .text.dmp_set_tap_count
                0x08000abe       0x2c build/inv_mpu_dmp_motion_driver.o
                0x08000abe                dmp_set_tap_count
 *fill*         0x08000aea        0x2 
 .text.dmp_set_tap_time
                0x08000aec       0x30 build/inv_mpu_dmp_motion_driver.o
                0x08000aec                dmp_set_tap_time
 .text.dmp_set_tap_time_multi
                0x08000b1c       0x30 build/inv_mpu_dmp_motion_driver.o
                0x08000b1c                dmp_set_tap_time_multi
 .text.dmp_set_shake_reject_thresh
                0x08000b4c       0x44 build/inv_mpu_dmp_motion_driver.o
                0x08000b4c                dmp_set_shake_reject_thresh
 .text.dmp_set_shake_reject_time
                0x08000b90       0x2c build/inv_mpu_dmp_motion_driver.o
                0x08000b90                dmp_set_shake_reject_time
 .text.dmp_set_shake_reject_timeout
                0x08000bbc       0x2c build/inv_mpu_dmp_motion_driver.o
                0x08000bbc                dmp_set_shake_reject_timeout
 .text.dmp_enable_gyro_cal
                0x08000be8       0x44 build/inv_mpu_dmp_motion_driver.o
                0x08000be8                dmp_enable_gyro_cal
 .text.dmp_enable_lp_quat
                0x08000c2c       0x3c build/inv_mpu_dmp_motion_driver.o
                0x08000c2c                dmp_enable_lp_quat
 .text.dmp_enable_6x_lp_quat
                0x08000c68       0x3c build/inv_mpu_dmp_motion_driver.o
                0x08000c68                dmp_enable_6x_lp_quat
 .text.dmp_enable_feature
                0x08000ca4      0x218 build/inv_mpu_dmp_motion_driver.o
                0x08000ca4                dmp_enable_feature
 .text.dmp_read_fifo
                0x08000ebc      0x1d0 build/inv_mpu_dmp_motion_driver.o
                0x08000ebc                dmp_read_fifo
 .text.set_int_enable
                0x0800108c       0x98 build/inv_mpu.o
 .text.mpu_reset_fifo
                0x08001124      0x1f8 build/inv_mpu.o
                0x08001124                mpu_reset_fifo
 .text.mpu_set_gyro_fsr
                0x0800131c       0x98 build/inv_mpu.o
                0x0800131c                mpu_set_gyro_fsr
 .text.mpu_get_accel_fsr
                0x080013b4       0x44 build/inv_mpu.o
                0x080013b4                mpu_get_accel_fsr
 .text.mpu_set_accel_fsr
                0x080013f8       0x94 build/inv_mpu.o
                0x080013f8                mpu_set_accel_fsr
 .text.mpu_set_lpf
                0x0800148c       0x94 build/inv_mpu.o
                0x0800148c                mpu_set_lpf
 .text.mpu_configure_fifo
                0x08001520       0x64 build/inv_mpu.o
                0x08001520                mpu_configure_fifo
 .text.mpu_read_fifo_stream
                0x08001584       0xc0 build/inv_mpu.o
                0x08001584                mpu_read_fifo_stream
 .text.mpu_set_bypass
                0x08001644      0x168 build/inv_mpu.o
                0x08001644                mpu_set_bypass
 .text.mpu_set_int_latched
                0x080017ac       0x74 build/inv_mpu.o
                0x080017ac                mpu_set_int_latched
 .text.mpu_lp_accel_mode
                0x08001820       0xdc build/inv_mpu.o
                0x08001820                mpu_lp_accel_mode
 .text.mpu_set_sample_rate
                0x080018fc       0xa0 build/inv_mpu.o
                0x080018fc                mpu_set_sample_rate
 .text.mpu_set_sensors
                0x0800199c       0xf0 build/inv_mpu.o
                0x0800199c                mpu_set_sensors
 .text.mpu_init
                0x08001a8c       0xf0 build/inv_mpu.o
                0x08001a8c                mpu_init
 .text.mpu_write_mem
                0x08001b7c       0x74 build/inv_mpu.o
                0x08001b7c                mpu_write_mem
 .text.mpu_load_firmware
                0x08001bf0       0x54 build/inv_mpu.o
                0x08001bf0                mpu_load_firmware
 .text.mpu_set_dmp_state
                0x08001c44       0x94 build/inv_mpu.o
                0x08001c44                mpu_set_dmp_state
 .text.inv_row_2_scale
                0x08001cd8       0x3a build/mpu6050.o
 .text._mpu_get_timestamp
                0x08001d12        0xe build/mpu6050.o
 .text._ReadByte
                0x08001d20        0xe build/mpu6050.o
 .text._WriteByte
                0x08001d2e        0xe build/mpu6050.o
 .text._mpu_delay
                0x08001d3c        0x8 build/mpu6050.o
 *fill*         0x08001d44        0x4 
 .text._mpuReadData
                0x08001d48      0x1f8 build/mpu6050.o
 .text.inv_orientation_matrix_to_scalar
                0x08001f40       0x24 build/mpu6050.o
                0x08001f40                inv_orientation_matrix_to_scalar
 .text._mpu6050Init
                0x08001f64      0x114 build/mpu6050.o
 .text.MPU6050_Self_Creat
                0x08002078       0x24 build/mpu6050.o
                0x08002078                MPU6050_Self_Creat
 *fill*         0x0800209c        0x4 
 .text.Bulid_euler_angles
                0x080020a0       0xb8 build/attitude.o
 .text.attitude_self_Creat
                0x08002158       0x20 build/attitude.o
                0x08002158                attitude_self_Creat
 .text.AttitudeTsak
                0x08002178       0x64 build/attitude_task.o
 .text.xAttitudeTsakCreat
                0x080021dc       0x30 build/attitude_task.o
                0x080021dc                xAttitudeTsakCreat
 .text.AttitudeQueueCreat
                0x0800220c       0x18 build/attitude_task.o
                0x0800220c                AttitudeQueueCreat
 .text._write   0x08002224       0x18 build/printf_redefine.o
                0x08002224                _write
 .text.SystemClock_Config
                0x0800223c       0xac build/main.o
                0x0800223c                SystemClock_Config
 .text.main     0x080022e8       0x9c build/main.o
                0x080022e8                main
 .text.HAL_TIM_PeriodElapsedCallback
                0x08002384       0x18 build/main.o
                0x08002384                HAL_TIM_PeriodElapsedCallback
 .text.Error_Handler
                0x0800239c        0x2 build/main.o
                0x0800239c                Error_Handler
 *fill*         0x0800239e        0x2 
 .text.MX_GPIO_Init
                0x080023a0       0x8c build/gpio.o
                0x080023a0                MX_GPIO_Init
 .text.StartDefaultTask
                0x0800242c        0xa build/freertos.o
                0x0800242c                StartDefaultTask
 *fill*         0x08002436        0x2 
 .text.MX_FREERTOS_Init
                0x08002438       0x28 build/freertos.o
                0x08002438                MX_FREERTOS_Init
 .text.MX_I2C4_Init
                0x08002460       0x58 build/i2c.o
                0x08002460                MX_I2C4_Init
 .text.HAL_I2C_MspInit
                0x080024b8       0x70 build/i2c.o
                0x080024b8                HAL_I2C_MspInit
 .text.HAL_I2C_MspDeInit
                0x08002528       0x30 build/i2c.o
                0x08002528                HAL_I2C_MspDeInit
 .text.MX_UART5_Init
                0x08002558       0x38 build/usart.o
                0x08002558                MX_UART5_Init
 .text.HAL_UART_MspInit
                0x08002590       0x98 build/usart.o
                0x08002590                HAL_UART_MspInit
 .text.NMI_Handler
                0x08002628        0x2 build/stm32f7xx_it.o
                0x08002628                NMI_Handler
 .text.HardFault_Handler
                0x0800262a        0x2 build/stm32f7xx_it.o
                0x0800262a                HardFault_Handler
 .text.MemManage_Handler
                0x0800262c        0x2 build/stm32f7xx_it.o
                0x0800262c                MemManage_Handler
 .text.BusFault_Handler
                0x0800262e        0x2 build/stm32f7xx_it.o
                0x0800262e                BusFault_Handler
 .text.UsageFault_Handler
                0x08002630        0x2 build/stm32f7xx_it.o
                0x08002630                UsageFault_Handler
 .text.DebugMon_Handler
                0x08002632        0x2 build/stm32f7xx_it.o
                0x08002632                DebugMon_Handler
 .text.TIM1_UP_TIM10_IRQHandler
                0x08002634       0x10 build/stm32f7xx_it.o
                0x08002634                TIM1_UP_TIM10_IRQHandler
 .text.HAL_MspInit
                0x08002644       0x40 build/stm32f7xx_hal_msp.o
                0x08002644                HAL_MspInit
 .text.HAL_InitTick
                0x08002684       0x7c build/stm32f7xx_hal_timebase_tim.o
                0x08002684                HAL_InitTick
 .text.HAL_NVIC_SetPriorityGrouping
                0x08002700       0x24 build/stm32f7xx_hal_cortex.o
                0x08002700                HAL_NVIC_SetPriorityGrouping
 .text.HAL_NVIC_SetPriority
                0x08002724       0x64 build/stm32f7xx_hal_cortex.o
                0x08002724                HAL_NVIC_SetPriority
 .text.HAL_NVIC_EnableIRQ
                0x08002788       0x1c build/stm32f7xx_hal_cortex.o
                0x08002788                HAL_NVIC_EnableIRQ
 .text.HAL_RCC_OscConfig
                0x080027a4      0x444 build/stm32f7xx_hal_rcc.o
                0x080027a4                HAL_RCC_OscConfig
 .text.HAL_RCC_GetSysClockFreq
                0x08002be8       0xa0 build/stm32f7xx_hal_rcc.o
                0x08002be8                HAL_RCC_GetSysClockFreq
 .text.HAL_RCC_ClockConfig
                0x08002c88      0x16c build/stm32f7xx_hal_rcc.o
                0x08002c88                HAL_RCC_ClockConfig
 .text.HAL_RCC_GetHCLKFreq
                0x08002df4        0xc build/stm32f7xx_hal_rcc.o
                0x08002df4                HAL_RCC_GetHCLKFreq
 .text.HAL_RCC_GetPCLK1Freq
                0x08002e00       0x20 build/stm32f7xx_hal_rcc.o
                0x08002e00                HAL_RCC_GetPCLK1Freq
 .text.HAL_RCC_GetPCLK2Freq
                0x08002e20       0x20 build/stm32f7xx_hal_rcc.o
                0x08002e20                HAL_RCC_GetPCLK2Freq
 .text.HAL_RCC_GetClockConfig
                0x08002e40       0x3c build/stm32f7xx_hal_rcc.o
                0x08002e40                HAL_RCC_GetClockConfig
 .text.HAL_RCCEx_PeriphCLKConfig
                0x08002e7c      0x604 build/stm32f7xx_hal_rcc_ex.o
                0x08002e7c                HAL_RCCEx_PeriphCLKConfig
 .text.HAL_GPIO_Init
                0x08003480      0x1e0 build/stm32f7xx_hal_gpio.o
                0x08003480                HAL_GPIO_Init
 .text.HAL_GPIO_DeInit
                0x08003660      0x14c build/stm32f7xx_hal_gpio.o
                0x08003660                HAL_GPIO_DeInit
 .text.HAL_GPIO_WritePin
                0x080037ac        0xc build/stm32f7xx_hal_gpio.o
                0x080037ac                HAL_GPIO_WritePin
 .text.HAL_PWREx_EnableOverDrive
                0x080037b8       0x7c build/stm32f7xx_hal_pwr_ex.o
                0x080037b8                HAL_PWREx_EnableOverDrive
 .text.HAL_Init
                0x08003834       0x16 build/stm32f7xx_hal.o
                0x08003834                HAL_Init
 *fill*         0x0800384a        0x2 
 .text.HAL_IncTick
                0x0800384c       0x18 build/stm32f7xx_hal.o
                0x0800384c                HAL_IncTick
 .text.HAL_GetTick
                0x08003864        0xc build/stm32f7xx_hal.o
                0x08003864                HAL_GetTick
 .text.I2C_Flush_TXDR
                0x08003870       0x22 build/stm32f7xx_hal_i2c.o
 .text.I2C_TransferConfig
                0x08003892       0x36 build/stm32f7xx_hal_i2c.o
 .text.I2C_IsAcknowledgeFailed
                0x080038c8       0x90 build/stm32f7xx_hal_i2c.o
 .text.I2C_WaitOnTXISFlagUntilTimeout
                0x08003958       0x56 build/stm32f7xx_hal_i2c.o
 .text.I2C_WaitOnFlagUntilTimeout
                0x080039ae       0x56 build/stm32f7xx_hal_i2c.o
 .text.I2C_RequestMemoryWrite
                0x08003a04       0x7c build/stm32f7xx_hal_i2c.o
 .text.I2C_RequestMemoryRead
                0x08003a80       0x78 build/stm32f7xx_hal_i2c.o
 .text.I2C_WaitOnSTOPFlagUntilTimeout
                0x08003af8       0x50 build/stm32f7xx_hal_i2c.o
 .text.HAL_I2C_Init
                0x08003b48       0xbc build/stm32f7xx_hal_i2c.o
                0x08003b48                HAL_I2C_Init
 .text.HAL_I2C_DeInit
                0x08003c04       0x32 build/stm32f7xx_hal_i2c.o
                0x08003c04                HAL_I2C_DeInit
 .text.HAL_I2C_Mem_Write
                0x08003c36      0x1ae build/stm32f7xx_hal_i2c.o
                0x08003c36                HAL_I2C_Mem_Write
 .text.HAL_I2C_Mem_Read
                0x08003de4      0x1b4 build/stm32f7xx_hal_i2c.o
                0x08003de4                HAL_I2C_Mem_Read
 .text.HAL_I2CEx_ConfigAnalogFilter
                0x08003f98       0x5c build/stm32f7xx_hal_i2c_ex.o
                0x08003f98                HAL_I2CEx_ConfigAnalogFilter
 .text.HAL_I2CEx_ConfigDigitalFilter
                0x08003ff4       0x58 build/stm32f7xx_hal_i2c_ex.o
                0x08003ff4                HAL_I2CEx_ConfigDigitalFilter
 .text.HAL_TIM_Base_MspInit
                0x0800404c        0x2 build/stm32f7xx_hal_tim.o
                0x0800404c                HAL_TIM_Base_MspInit
 *fill*         0x0800404e        0x2 
 .text.HAL_TIM_Base_Start_IT
                0x08004050       0x2c build/stm32f7xx_hal_tim.o
                0x08004050                HAL_TIM_Base_Start_IT
 .text.HAL_TIM_OC_DelayElapsedCallback
                0x0800407c        0x2 build/stm32f7xx_hal_tim.o
                0x0800407c                HAL_TIM_OC_DelayElapsedCallback
 .text.HAL_TIM_IC_CaptureCallback
                0x0800407e        0x2 build/stm32f7xx_hal_tim.o
                0x0800407e                HAL_TIM_IC_CaptureCallback
 .text.HAL_TIM_PWM_PulseFinishedCallback
                0x08004080        0x2 build/stm32f7xx_hal_tim.o
                0x08004080                HAL_TIM_PWM_PulseFinishedCallback
 .text.HAL_TIM_TriggerCallback
                0x08004082        0x2 build/stm32f7xx_hal_tim.o
                0x08004082                HAL_TIM_TriggerCallback
 .text.HAL_TIM_IRQHandler
                0x08004084      0x19a build/stm32f7xx_hal_tim.o
                0x08004084                HAL_TIM_IRQHandler
 *fill*         0x0800421e        0x2 
 .text.TIM_Base_SetConfig
                0x08004220      0x10c build/stm32f7xx_hal_tim.o
                0x08004220                TIM_Base_SetConfig
 .text.HAL_TIM_Base_Init
                0x0800432c       0x34 build/stm32f7xx_hal_tim.o
                0x0800432c                HAL_TIM_Base_Init
 .text.HAL_TIMEx_CommutCallback
                0x08004360        0x2 build/stm32f7xx_hal_tim_ex.o
                0x08004360                HAL_TIMEx_CommutCallback
 .text.HAL_TIMEx_BreakCallback
                0x08004362        0x2 build/stm32f7xx_hal_tim_ex.o
                0x08004362                HAL_TIMEx_BreakCallback
 .text.HAL_TIMEx_Break2Callback
                0x08004364        0x2 build/stm32f7xx_hal_tim_ex.o
                0x08004364                HAL_TIMEx_Break2Callback
 *fill*         0x08004366        0x2 
 .text.UART_SetConfig
                0x08004368      0x3a0 build/stm32f7xx_hal_uart.o
                0x08004368                UART_SetConfig
 .text.UART_AdvFeatureConfig
                0x08004708       0xca build/stm32f7xx_hal_uart.o
                0x08004708                UART_AdvFeatureConfig
 .text.UART_WaitOnFlagUntilTimeout
                0x080047d2       0xa2 build/stm32f7xx_hal_uart.o
                0x080047d2                UART_WaitOnFlagUntilTimeout
 .text.HAL_UART_Transmit
                0x08004874       0xda build/stm32f7xx_hal_uart.o
                0x08004874                HAL_UART_Transmit
 .text.UART_CheckIdleState
                0x0800494e       0x6c build/stm32f7xx_hal_uart.o
                0x0800494e                UART_CheckIdleState
 .text.HAL_UART_Init
                0x080049ba       0x62 build/stm32f7xx_hal_uart.o
                0x080049ba                HAL_UART_Init
 .text.SystemInit
                0x08004a1c       0x1c build/system_stm32f7xx.o
                0x08004a1c                SystemInit
 .text.vListInitialise
                0x08004a38       0x16 build/list.o
                0x08004a38                vListInitialise
 .text.vListInitialiseItem
                0x08004a4e        0x6 build/list.o
                0x08004a4e                vListInitialiseItem
 .text.vListInsertEnd
                0x08004a54       0x16 build/list.o
                0x08004a54                vListInsertEnd
 .text.vListInsert
                0x08004a6a       0x32 build/list.o
                0x08004a6a                vListInsert
 .text.uxListRemove
                0x08004a9c       0x26 build/list.o
                0x08004a9c                uxListRemove
 .text.prvIsQueueFull
                0x08004ac2       0x1e build/queue.o
 .text.prvIsQueueEmpty
                0x08004ae0       0x1a build/queue.o
 .text.prvCopyDataToQueue
                0x08004afa       0x76 build/queue.o
 .text.prvCopyDataFromQueue
                0x08004b70       0x24 build/queue.o
 .text.prvUnlockQueue
                0x08004b94       0x6e build/queue.o
 *fill*         0x08004c02        0x2 
 .text.xQueueGenericReset
                0x08004c04       0x88 build/queue.o
                0x08004c04                xQueueGenericReset
 .text.prvInitialiseNewQueue
                0x08004c8c       0x22 build/queue.o
 .text.xQueueGenericCreateStatic
                0x08004cae       0xb6 build/queue.o
                0x08004cae                xQueueGenericCreateStatic
 .text.xQueueGenericCreate
                0x08004d64       0x52 build/queue.o
                0x08004d64                xQueueGenericCreate
 *fill*         0x08004db6        0x2 
 .text.xQueueGenericSend
                0x08004db8      0x190 build/queue.o
                0x08004db8                xQueueGenericSend
 .text.xQueueGenericSendFromISR
                0x08004f48       0xde build/queue.o
                0x08004f48                xQueueGenericSendFromISR
 *fill*         0x08005026        0x2 
 .text.xQueueReceive
                0x08005028      0x168 build/queue.o
                0x08005028                xQueueReceive
 .text.vQueueAddToRegistry
                0x08005190       0x28 build/queue.o
                0x08005190                vQueueAddToRegistry
 .text.vQueueWaitForMessageRestricted
                0x080051b8       0x52 build/queue.o
                0x080051b8                vQueueWaitForMessageRestricted
 *fill*         0x0800520a        0x2 
 .text.prvResetNextTaskUnblockTime
                0x0800520c       0x2c build/tasks.o
 .text.prvInitialiseNewTask
                0x08005238       0x9a build/tasks.o
 *fill*         0x080052d2        0x2 
 .text.prvInitialiseTaskLists
                0x080052d4       0x68 build/tasks.o
 .text.prvAddNewTaskToReadyList
                0x0800533c       0xac build/tasks.o
 .text.prvDeleteTCB
                0x080053e8       0x3c build/tasks.o
 .text.prvCheckTasksWaitingTermination
                0x08005424       0x4c build/tasks.o
 .text.prvIdleTask
                0x08005470       0x28 build/tasks.o
 .text.prvAddCurrentTaskToDelayedList
                0x08005498       0x84 build/tasks.o
 .text.xTaskCreateStatic
                0x0800551c       0x80 build/tasks.o
                0x0800551c                xTaskCreateStatic
 .text.xTaskCreate
                0x0800559c       0x68 build/tasks.o
                0x0800559c                xTaskCreate
 .text.vTaskStartScheduler
                0x08005604       0x9c build/tasks.o
                0x08005604                vTaskStartScheduler
 .text.vTaskSuspendAll
                0x080056a0       0x10 build/tasks.o
                0x080056a0                vTaskSuspendAll
 .text.xTaskGetTickCount
                0x080056b0        0xc build/tasks.o
                0x080056b0                xTaskGetTickCount
 .text.xTaskIncrementTick
                0x080056bc      0x11c build/tasks.o
                0x080056bc                xTaskIncrementTick
 .text.xTaskResumeAll
                0x080057d8       0xfc build/tasks.o
                0x080057d8                xTaskResumeAll
 .text.vTaskDelay
                0x080058d4       0x50 build/tasks.o
                0x080058d4                vTaskDelay
 .text.vTaskSwitchContext
                0x08005924       0x9c build/tasks.o
                0x08005924                vTaskSwitchContext
 .text.vTaskPlaceOnEventList
                0x080059c0       0x34 build/tasks.o
                0x080059c0                vTaskPlaceOnEventList
 .text.vTaskPlaceOnEventListRestricted
                0x080059f4       0x3c build/tasks.o
                0x080059f4                vTaskPlaceOnEventListRestricted
 .text.xTaskRemoveFromEventList
                0x08005a30       0x90 build/tasks.o
                0x08005a30                xTaskRemoveFromEventList
 .text.vTaskInternalSetTimeOutState
                0x08005ac0       0x18 build/tasks.o
                0x08005ac0                vTaskInternalSetTimeOutState
 .text.xTaskCheckForTimeOut
                0x08005ad8       0x8c build/tasks.o
                0x08005ad8                xTaskCheckForTimeOut
 .text.vTaskMissedYield
                0x08005b64        0xc build/tasks.o
                0x08005b64                vTaskMissedYield
 .text.xTaskGetSchedulerState
                0x08005b70       0x20 build/tasks.o
                0x08005b70                xTaskGetSchedulerState
 .text.xTaskPriorityDisinherit
                0x08005b90       0x98 build/tasks.o
                0x08005b90                xTaskPriorityDisinherit
 .text.prvGetNextExpireTime
                0x08005c28       0x20 build/timers.o
 .text.prvInsertTimerInActiveList
                0x08005c48       0x50 build/timers.o
 .text.prvCheckForValidListAndQueue
                0x08005c98       0x70 build/timers.o
 .text.xTimerCreateTimerTask
                0x08005d08       0x68 build/timers.o
                0x08005d08                xTimerCreateTimerTask
 .text.xTimerGenericCommand
                0x08005d70       0x70 build/timers.o
                0x08005d70                xTimerGenericCommand
 .text.prvSwitchTimerLists
                0x08005de0       0x80 build/timers.o
 .text.prvSampleTimeNow
                0x08005e60       0x2c build/timers.o
 .text.prvProcessExpiredTimer
                0x08005e8c       0x70 build/timers.o
 .text.prvProcessTimerOrBlockTask
                0x08005efc       0x80 build/timers.o
 .text.prvProcessReceivedCommands
                0x08005f7c      0x114 build/timers.o
 .text.prvTimerTask
                0x08006090       0x16 build/timers.o
 *fill*         0x080060a6        0x2 
 .text.osKernelInitialize
                0x080060a8       0x3c build/cmsis_os2.o
                0x080060a8                osKernelInitialize
 .text.osKernelStart
                0x080060e4       0x48 build/cmsis_os2.o
                0x080060e4                osKernelStart
 .text.osThreadNew
                0x0800612c       0xd8 build/cmsis_os2.o
                0x0800612c                osThreadNew
 .text.osDelay  0x08006204       0x3c build/cmsis_os2.o
                0x08006204                osDelay
 .text.vApplicationGetIdleTaskMemory
                0x08006240       0x18 build/cmsis_os2.o
                0x08006240                vApplicationGetIdleTaskMemory
 .text.vApplicationGetTimerTaskMemory
                0x08006258       0x18 build/cmsis_os2.o
                0x08006258                vApplicationGetTimerTaskMemory
 .text.prvHeapInit
                0x08006270       0x64 build/heap_4.o
 .text.prvInsertBlockIntoFreeList
                0x080062d4       0x58 build/heap_4.o
 .text.pvPortMalloc
                0x0800632c       0xf8 build/heap_4.o
                0x0800632c                pvPortMalloc
 .text.vPortFree
                0x08006424       0x78 build/heap_4.o
                0x08006424                vPortFree
 .text.prvTaskExitError
                0x0800649c       0x48 build/port.o
 .text.prvPortStartFirstTask
                0x080064e4       0x28 build/port.o
 .text.vPortEnableVFP
                0x0800650c       0x14 build/port.o
 .text.pxPortInitialiseStack
                0x08006520       0x2c build/port.o
                0x08006520                pxPortInitialiseStack
 *fill*         0x0800654c        0x4 
 .text.SVC_Handler
                0x08006550       0x24 build/port.o
                0x08006550                SVC_Handler
 .text.vPortEnterCritical
                0x08006574       0x4c build/port.o
                0x08006574                vPortEnterCritical
 .text.vPortExitCritical
                0x080065c0       0x30 build/port.o
                0x080065c0                vPortExitCritical
 .text.PendSV_Handler
                0x080065f0       0x64 build/port.o
                0x080065f0                PendSV_Handler
 .text.SysTick_Handler
                0x08006654       0x30 build/port.o
                0x08006654                SysTick_Handler
 .text.vPortSetupTimerInterrupt
                0x08006684       0x38 build/port.o
                0x08006684                vPortSetupTimerInterrupt
 .text.xPortStartScheduler
                0x080066bc       0xd0 build/port.o
                0x080066bc                xPortStartScheduler
 .text.vPortValidateInterruptPriority
                0x0800678c       0x64 build/port.o
                0x0800678c                vPortValidateInterruptPriority
 .text.Reset_Handler
                0x080067f0       0x50 build/startup_stm32f767xx.o
                0x080067f0                Reset_Handler
 .text.Default_Handler
                0x08006840        0x2 build/startup_stm32f767xx.o
                0x08006840                RTC_Alarm_IRQHandler
                0x08006840                EXTI2_IRQHandler
                0x08006840                TIM8_CC_IRQHandler
                0x08006840                UART8_IRQHandler
                0x08006840                SPI4_IRQHandler
                0x08006840                TIM1_CC_IRQHandler
                0x08006840                DMA2_Stream5_IRQHandler
                0x08006840                JPEG_IRQHandler
                0x08006840                DMA1_Stream5_IRQHandler
                0x08006840                CAN3_RX1_IRQHandler
                0x08006840                PVD_IRQHandler
                0x08006840                TAMP_STAMP_IRQHandler
                0x08006840                CAN2_RX1_IRQHandler
                0x08006840                EXTI3_IRQHandler
                0x08006840                TIM8_TRG_COM_TIM14_IRQHandler
                0x08006840                DFSDM1_FLT1_IRQHandler
                0x08006840                TIM8_UP_TIM13_IRQHandler
                0x08006840                I2C3_ER_IRQHandler
                0x08006840                DFSDM1_FLT2_IRQHandler
                0x08006840                EXTI0_IRQHandler
                0x08006840                I2C2_EV_IRQHandler
                0x08006840                DMA1_Stream2_IRQHandler
                0x08006840                CAN1_RX0_IRQHandler
                0x08006840                FPU_IRQHandler
                0x08006840                OTG_HS_WKUP_IRQHandler
                0x08006840                CAN3_SCE_IRQHandler
                0x08006840                LTDC_ER_IRQHandler
                0x08006840                CAN2_SCE_IRQHandler
                0x08006840                DMA2_Stream2_IRQHandler
                0x08006840                SPI1_IRQHandler
                0x08006840                TIM6_DAC_IRQHandler
                0x08006840                TIM1_BRK_TIM9_IRQHandler
                0x08006840                DCMI_IRQHandler
                0x08006840                CAN2_RX0_IRQHandler
                0x08006840                DMA2_Stream3_IRQHandler
                0x08006840                SAI2_IRQHandler
                0x08006840                DFSDM1_FLT3_IRQHandler
                0x08006840                USART6_IRQHandler
                0x08006840                CAN3_RX0_IRQHandler
                0x08006840                USART3_IRQHandler
                0x08006840                CAN1_RX1_IRQHandler
                0x08006840                UART5_IRQHandler
                0x08006840                DMA2_Stream0_IRQHandler
                0x08006840                TIM4_IRQHandler
                0x08006840                QUADSPI_IRQHandler
                0x08006840                I2C1_EV_IRQHandler
                0x08006840                DMA1_Stream6_IRQHandler
                0x08006840                DMA1_Stream1_IRQHandler
                0x08006840                UART4_IRQHandler
                0x08006840                TIM3_IRQHandler
                0x08006840                RCC_IRQHandler
                0x08006840                TIM8_BRK_TIM12_IRQHandler
                0x08006840                Default_Handler
                0x08006840                CEC_IRQHandler
                0x08006840                EXTI15_10_IRQHandler
                0x08006840                ADC_IRQHandler
                0x08006840                DMA1_Stream7_IRQHandler
                0x08006840                SPI5_IRQHandler
                0x08006840                TIM7_IRQHandler
                0x08006840                SDMMC1_IRQHandler
                0x08006840                CAN2_TX_IRQHandler
                0x08006840                TIM5_IRQHandler
                0x08006840                DMA2_Stream7_IRQHandler
                0x08006840                I2C3_EV_IRQHandler
                0x08006840                EXTI9_5_IRQHandler
                0x08006840                RTC_WKUP_IRQHandler
                0x08006840                LTDC_IRQHandler
                0x08006840                ETH_WKUP_IRQHandler
                0x08006840                SPDIF_RX_IRQHandler
                0x08006840                SPI2_IRQHandler
                0x08006840                OTG_HS_EP1_IN_IRQHandler
                0x08006840                DMA1_Stream0_IRQHandler
                0x08006840                CAN1_TX_IRQHandler
                0x08006840                EXTI4_IRQHandler
                0x08006840                RNG_IRQHandler
                0x08006840                ETH_IRQHandler
                0x08006840                OTG_HS_EP1_OUT_IRQHandler
                0x08006840                WWDG_IRQHandler
                0x08006840                SPI6_IRQHandler
                0x08006840                MDIOS_IRQHandler
                0x08006840                I2C4_EV_IRQHandler
                0x08006840                CAN3_TX_IRQHandler
                0x08006840                TIM2_IRQHandler
                0x08006840                OTG_FS_WKUP_IRQHandler
                0x08006840                TIM1_TRG_COM_TIM11_IRQHandler
                0x08006840                OTG_HS_IRQHandler
                0x08006840                DMA2D_IRQHandler
                0x08006840                EXTI1_IRQHandler
                0x08006840                SDMMC2_IRQHandler
                0x08006840                UART7_IRQHandler
                0x08006840                USART2_IRQHandler
                0x08006840                DFSDM1_FLT0_IRQHandler
                0x08006840                I2C2_ER_IRQHandler
                0x08006840                DMA2_Stream1_IRQHandler
                0x08006840                CAN1_SCE_IRQHandler
                0x08006840                FLASH_IRQHandler
                0x08006840                DMA2_Stream4_IRQHandler
                0x08006840                USART1_IRQHandler
                0x08006840                OTG_FS_IRQHandler
                0x08006840                SPI3_IRQHandler
                0x08006840                DMA1_Stream4_IRQHandler
                0x08006840                I2C1_ER_IRQHandler
                0x08006840                FMC_IRQHandler
                0x08006840                LPTIM1_IRQHandler
                0x08006840                I2C4_ER_IRQHandler
                0x08006840                DMA2_Stream6_IRQHandler
                0x08006840                SAI1_IRQHandler
                0x08006840                DMA1_Stream3_IRQHandler
 *fill*         0x08006842        0x2 
 .text.__libc_init_array
                0x08006844       0x48 f:/prosoft/gcc_arm_none/2019q4/9 2019-q4-major/bin/../lib/gcc/arm-none-eabi/9.2.1/../../../../arm-none-eabi/lib/thumb/v7e-m+dp/hard\libc_nano.a(lib_a-init.o)
                0x08006844                __libc_init_array
 .text.memcpy   0x0800688c       0x1c f:/prosoft/gcc_arm_none/2019q4/9 2019-q4-major/bin/../lib/gcc/arm-none-eabi/9.2.1/../../../../arm-none-eabi/lib/thumb/v7e-m+dp/hard\libc_nano.a(lib_a-memcpy-stub.o)
                0x0800688c                memcpy
 .text.memset   0x080068a8       0x10 f:/prosoft/gcc_arm_none/2019q4/9 2019-q4-major/bin/../lib/gcc/arm-none-eabi/9.2.1/../../../../arm-none-eabi/lib/thumb/v7e-m+dp/hard\libc_nano.a(lib_a-memset.o)
                0x080068a8                memset
 .text.__cvt    0x080068b8       0xa4 f:/prosoft/gcc_arm_none/2019q4/9 2019-q4-major/bin/../lib/gcc/arm-none-eabi/9.2.1/../../../../arm-none-eabi/lib/thumb/v7e-m+dp/hard\libc_nano.a(lib_a-nano-vfprintf_float.o)
                0x080068b8                __cvt
 .text.__exponent
                0x0800695c       0x7c f:/prosoft/gcc_arm_none/2019q4/9 2019-q4-major/bin/../lib/gcc/arm-none-eabi/9.2.1/../../../../arm-none-eabi/lib/thumb/v7e-m+dp/hard\libc_nano.a(lib_a-nano-vfprintf_float.o)
                0x0800695c                __exponent
 .text._printf_float
                0x080069d8      0x43c f:/prosoft/gcc_arm_none/2019q4/9 2019-q4-major/bin/../lib/gcc/arm-none-eabi/9.2.1/../../../../arm-none-eabi/lib/thumb/v7e-m+dp/hard\libc_nano.a(lib_a-nano-vfprintf_float.o)
                0x080069d8                _printf_float
 .text._printf_common
                0x08006e14       0xda f:/prosoft/gcc_arm_none/2019q4/9 2019-q4-major/bin/../lib/gcc/arm-none-eabi/9.2.1/../../../../arm-none-eabi/lib/thumb/v7e-m+dp/hard\libc_nano.a(lib_a-nano-vfprintf_i.o)
                0x08006e14                _printf_common
 *fill*         0x08006eee        0x2 
 .text._printf_i
                0x08006ef0      0x24c f:/prosoft/gcc_arm_none/2019q4/9 2019-q4-major/bin/../lib/gcc/arm-none-eabi/9.2.1/../../../../arm-none-eabi/lib/thumb/v7e-m+dp/hard\libc_nano.a(lib_a-nano-vfprintf_i.o)
                0x08006ef0                _printf_i
 .text.printf   0x0800713c       0x30 f:/prosoft/gcc_arm_none/2019q4/9 2019-q4-major/bin/../lib/gcc/arm-none-eabi/9.2.1/../../../../arm-none-eabi/lib/thumb/v7e-m+dp/hard\libc_nano.a(lib_a-printf.o)
                0x0800713c                iprintf
                0x0800713c                printf
 .text.quorem   0x0800716c      0x116 f:/prosoft/gcc_arm_none/2019q4/9 2019-q4-major/bin/../lib/gcc/arm-none-eabi/9.2.1/../../../../arm-none-eabi/lib/thumb/v7e-m+dp/hard\libc_nano.a(lib_a-dtoa.o)
 *fill*         0x08007282        0x6 
 .text._dtoa_r  0x08007288      0xad8 f:/prosoft/gcc_arm_none/2019q4/9 2019-q4-major/bin/../lib/gcc/arm-none-eabi/9.2.1/../../../../arm-none-eabi/lib/thumb/v7e-m+dp/hard\libc_nano.a(lib_a-dtoa.o)
                0x08007288                _dtoa_r
 .text.std      0x08007d60       0x48 f:/prosoft/gcc_arm_none/2019q4/9 2019-q4-major/bin/../lib/gcc/arm-none-eabi/9.2.1/../../../../arm-none-eabi/lib/thumb/v7e-m+dp/hard\libc_nano.a(lib_a-findfp.o)
 .text._cleanup_r
                0x08007da8        0xc f:/prosoft/gcc_arm_none/2019q4/9 2019-q4-major/bin/../lib/gcc/arm-none-eabi/9.2.1/../../../../arm-none-eabi/lib/thumb/v7e-m+dp/hard\libc_nano.a(lib_a-findfp.o)
                0x08007da8                _cleanup_r
 .text.__sfmoreglue
                0x08007db4       0x2c f:/prosoft/gcc_arm_none/2019q4/9 2019-q4-major/bin/../lib/gcc/arm-none-eabi/9.2.1/../../../../arm-none-eabi/lib/thumb/v7e-m+dp/hard\libc_nano.a(lib_a-findfp.o)
                0x08007db4                __sfmoreglue
 .text.__sfp_lock_acquire
                0x08007de0        0xc f:/prosoft/gcc_arm_none/2019q4/9 2019-q4-major/bin/../lib/gcc/arm-none-eabi/9.2.1/../../../../arm-none-eabi/lib/thumb/v7e-m+dp/hard\libc_nano.a(lib_a-findfp.o)
                0x08007de0                __sfp_lock_acquire
 .text.__sfp_lock_release
                0x08007dec        0xc f:/prosoft/gcc_arm_none/2019q4/9 2019-q4-major/bin/../lib/gcc/arm-none-eabi/9.2.1/../../../../arm-none-eabi/lib/thumb/v7e-m+dp/hard\libc_nano.a(lib_a-findfp.o)
                0x08007dec                __sfp_lock_release
 .text.__sinit_lock_acquire
                0x08007df8        0xc f:/prosoft/gcc_arm_none/2019q4/9 2019-q4-major/bin/../lib/gcc/arm-none-eabi/9.2.1/../../../../arm-none-eabi/lib/thumb/v7e-m+dp/hard\libc_nano.a(lib_a-findfp.o)
                0x08007df8                __sinit_lock_acquire
 .text.__sinit_lock_release
                0x08007e04        0xc f:/prosoft/gcc_arm_none/2019q4/9 2019-q4-major/bin/../lib/gcc/arm-none-eabi/9.2.1/../../../../arm-none-eabi/lib/thumb/v7e-m+dp/hard\libc_nano.a(lib_a-findfp.o)
                0x08007e04                __sinit_lock_release
 .text.__sinit  0x08007e10       0x70 f:/prosoft/gcc_arm_none/2019q4/9 2019-q4-major/bin/../lib/gcc/arm-none-eabi/9.2.1/../../../../arm-none-eabi/lib/thumb/v7e-m+dp/hard\libc_nano.a(lib_a-findfp.o)
                0x08007e10                __sinit
 .text.__sfp    0x08007e80       0x8c f:/prosoft/gcc_arm_none/2019q4/9 2019-q4-major/bin/../lib/gcc/arm-none-eabi/9.2.1/../../../../arm-none-eabi/lib/thumb/v7e-m+dp/hard\libc_nano.a(lib_a-findfp.o)
                0x08007e80                __sfp
 .text._fwalk_reent
                0x08007f0c       0x3e f:/prosoft/gcc_arm_none/2019q4/9 2019-q4-major/bin/../lib/gcc/arm-none-eabi/9.2.1/../../../../arm-none-eabi/lib/thumb/v7e-m+dp/hard\libc_nano.a(lib_a-fwalk.o)
                0x08007f0c                _fwalk_reent
 *fill*         0x08007f4a        0x2 
 .text._localeconv_r
                0x08007f4c        0x8 f:/prosoft/gcc_arm_none/2019q4/9 2019-q4-major/bin/../lib/gcc/arm-none-eabi/9.2.1/../../../../arm-none-eabi/lib/thumb/v7e-m+dp/hard\libc_nano.a(lib_a-localeconv.o)
                0x08007f4c                _localeconv_r
 .text.__retarget_lock_init_recursive
                0x08007f54        0x2 f:/prosoft/gcc_arm_none/2019q4/9 2019-q4-major/bin/../lib/gcc/arm-none-eabi/9.2.1/../../../../arm-none-eabi/lib/thumb/v7e-m+dp/hard\libc_nano.a(lib_a-lock.o)
                0x08007f54                __retarget_lock_init_recursive
 .text.__retarget_lock_acquire_recursive
                0x08007f56        0x2 f:/prosoft/gcc_arm_none/2019q4/9 2019-q4-major/bin/../lib/gcc/arm-none-eabi/9.2.1/../../../../arm-none-eabi/lib/thumb/v7e-m+dp/hard\libc_nano.a(lib_a-lock.o)
                0x08007f56                __retarget_lock_acquire_recursive
 .text.__retarget_lock_release_recursive
                0x08007f58        0x2 f:/prosoft/gcc_arm_none/2019q4/9 2019-q4-major/bin/../lib/gcc/arm-none-eabi/9.2.1/../../../../arm-none-eabi/lib/thumb/v7e-m+dp/hard\libc_nano.a(lib_a-lock.o)
                0x08007f58                __retarget_lock_release_recursive
 *fill*         0x08007f5a        0x2 
 .text.malloc   0x08007f5c       0x10 f:/prosoft/gcc_arm_none/2019q4/9 2019-q4-major/bin/../lib/gcc/arm-none-eabi/9.2.1/../../../../arm-none-eabi/lib/thumb/v7e-m+dp/hard\libc_nano.a(lib_a-malloc.o)
                0x08007f5c                malloc
 .text._Balloc  0x08007f6c       0x68 f:/prosoft/gcc_arm_none/2019q4/9 2019-q4-major/bin/../lib/gcc/arm-none-eabi/9.2.1/../../../../arm-none-eabi/lib/thumb/v7e-m+dp/hard\libc_nano.a(lib_a-mprec.o)
                0x08007f6c                _Balloc
 .text._Bfree   0x08007fd4       0x2e f:/prosoft/gcc_arm_none/2019q4/9 2019-q4-major/bin/../lib/gcc/arm-none-eabi/9.2.1/../../../../arm-none-eabi/lib/thumb/v7e-m+dp/hard\libc_nano.a(lib_a-mprec.o)
                0x08007fd4                _Bfree
 .text.__multadd
                0x08008002       0x7c f:/prosoft/gcc_arm_none/2019q4/9 2019-q4-major/bin/../lib/gcc/arm-none-eabi/9.2.1/../../../../arm-none-eabi/lib/thumb/v7e-m+dp/hard\libc_nano.a(lib_a-mprec.o)
                0x08008002                __multadd
 .text.__hi0bits
                0x0800807e       0x40 f:/prosoft/gcc_arm_none/2019q4/9 2019-q4-major/bin/../lib/gcc/arm-none-eabi/9.2.1/../../../../arm-none-eabi/lib/thumb/v7e-m+dp/hard\libc_nano.a(lib_a-mprec.o)
                0x0800807e                __hi0bits
 .text.__lo0bits
                0x080080be       0x60 f:/prosoft/gcc_arm_none/2019q4/9 2019-q4-major/bin/../lib/gcc/arm-none-eabi/9.2.1/../../../../arm-none-eabi/lib/thumb/v7e-m+dp/hard\libc_nano.a(lib_a-mprec.o)
                0x080080be                __lo0bits
 .text.__i2b    0x0800811e       0x12 f:/prosoft/gcc_arm_none/2019q4/9 2019-q4-major/bin/../lib/gcc/arm-none-eabi/9.2.1/../../../../arm-none-eabi/lib/thumb/v7e-m+dp/hard\libc_nano.a(lib_a-mprec.o)
                0x0800811e                __i2b
 .text.__multiply
                0x08008130      0x138 f:/prosoft/gcc_arm_none/2019q4/9 2019-q4-major/bin/../lib/gcc/arm-none-eabi/9.2.1/../../../../arm-none-eabi/lib/thumb/v7e-m+dp/hard\libc_nano.a(lib_a-mprec.o)
                0x08008130                __multiply
 .text.__pow5mult
                0x08008268       0x9c f:/prosoft/gcc_arm_none/2019q4/9 2019-q4-major/bin/../lib/gcc/arm-none-eabi/9.2.1/../../../../arm-none-eabi/lib/thumb/v7e-m+dp/hard\libc_nano.a(lib_a-mprec.o)
                0x08008268                __pow5mult
 .text.__lshift
                0x08008304       0xbe f:/prosoft/gcc_arm_none/2019q4/9 2019-q4-major/bin/../lib/gcc/arm-none-eabi/9.2.1/../../../../arm-none-eabi/lib/thumb/v7e-m+dp/hard\libc_nano.a(lib_a-mprec.o)
                0x08008304                __lshift
 .text.__mcmp   0x080083c2       0x38 f:/prosoft/gcc_arm_none/2019q4/9 2019-q4-major/bin/../lib/gcc/arm-none-eabi/9.2.1/../../../../arm-none-eabi/lib/thumb/v7e-m+dp/hard\libc_nano.a(lib_a-mprec.o)
                0x080083c2                __mcmp
 .text.__mdiff  0x080083fa       0xec f:/prosoft/gcc_arm_none/2019q4/9 2019-q4-major/bin/../lib/gcc/arm-none-eabi/9.2.1/../../../../arm-none-eabi/lib/thumb/v7e-m+dp/hard\libc_nano.a(lib_a-mprec.o)
                0x080083fa                __mdiff
 .text.__d2b    0x080084e6       0xa0 f:/prosoft/gcc_arm_none/2019q4/9 2019-q4-major/bin/../lib/gcc/arm-none-eabi/9.2.1/../../../../arm-none-eabi/lib/thumb/v7e-m+dp/hard\libc_nano.a(lib_a-mprec.o)
                0x080084e6                __d2b
 .text._calloc_r
                0x08008586       0x1e f:/prosoft/gcc_arm_none/2019q4/9 2019-q4-major/bin/../lib/gcc/arm-none-eabi/9.2.1/../../../../arm-none-eabi/lib/thumb/v7e-m+dp/hard\libc_nano.a(lib_a-nano-callocr.o)
                0x08008586                _calloc_r
 .text._free_r  0x080085a4       0xa0 f:/prosoft/gcc_arm_none/2019q4/9 2019-q4-major/bin/../lib/gcc/arm-none-eabi/9.2.1/../../../../arm-none-eabi/lib/thumb/v7e-m+dp/hard\libc_nano.a(lib_a-nano-freer.o)
                0x080085a4                _free_r
 .text._malloc_r
                0x08008644       0xb4 f:/prosoft/gcc_arm_none/2019q4/9 2019-q4-major/bin/../lib/gcc/arm-none-eabi/9.2.1/../../../../arm-none-eabi/lib/thumb/v7e-m+dp/hard\libc_nano.a(lib_a-nano-mallocr.o)
                0x08008644                _malloc_r
 .text.__sfputc_r
                0x080086f8       0x2e f:/prosoft/gcc_arm_none/2019q4/9 2019-q4-major/bin/../lib/gcc/arm-none-eabi/9.2.1/../../../../arm-none-eabi/lib/thumb/v7e-m+dp/hard\libc_nano.a(lib_a-nano-vfprintf.o)
 .text.__sfputs_r
                0x08008726       0x24 f:/prosoft/gcc_arm_none/2019q4/9 2019-q4-major/bin/../lib/gcc/arm-none-eabi/9.2.1/../../../../arm-none-eabi/lib/thumb/v7e-m+dp/hard\libc_nano.a(lib_a-nano-vfprintf.o)
                0x08008726                __sfputs_r
 *fill*         0x0800874a        0x2 
 .text._vfprintf_r
                0x0800874c      0x260 f:/prosoft/gcc_arm_none/2019q4/9 2019-q4-major/bin/../lib/gcc/arm-none-eabi/9.2.1/../../../../arm-none-eabi/lib/thumb/v7e-m+dp/hard\libc_nano.a(lib_a-nano-vfprintf.o)
                0x0800874c                _vfprintf_r
                0x0800874c                _vfiprintf_r
 .text._sbrk_r  0x080089ac       0x20 f:/prosoft/gcc_arm_none/2019q4/9 2019-q4-major/bin/../lib/gcc/arm-none-eabi/9.2.1/../../../../arm-none-eabi/lib/thumb/v7e-m+dp/hard\libc_nano.a(lib_a-sbrkr.o)
                0x080089ac                _sbrk_r
 .text.__sread  0x080089cc       0x22 f:/prosoft/gcc_arm_none/2019q4/9 2019-q4-major/bin/../lib/gcc/arm-none-eabi/9.2.1/../../../../arm-none-eabi/lib/thumb/v7e-m+dp/hard\libc_nano.a(lib_a-stdio.o)
                0x080089cc                __sread
 .text.__swrite
                0x080089ee       0x38 f:/prosoft/gcc_arm_none/2019q4/9 2019-q4-major/bin/../lib/gcc/arm-none-eabi/9.2.1/../../../../arm-none-eabi/lib/thumb/v7e-m+dp/hard\libc_nano.a(lib_a-stdio.o)
                0x080089ee                __swrite
 .text.__sseek  0x08008a26       0x24 f:/prosoft/gcc_arm_none/2019q4/9 2019-q4-major/bin/../lib/gcc/arm-none-eabi/9.2.1/../../../../arm-none-eabi/lib/thumb/v7e-m+dp/hard\libc_nano.a(lib_a-stdio.o)
                0x08008a26                __sseek
 .text.__sclose
                0x08008a4a        0x8 f:/prosoft/gcc_arm_none/2019q4/9 2019-q4-major/bin/../lib/gcc/arm-none-eabi/9.2.1/../../../../arm-none-eabi/lib/thumb/v7e-m+dp/hard\libc_nano.a(lib_a-stdio.o)
                0x08008a4a                __sclose
 *fill*         0x08008a52        0x2 
 .text.__swbuf_r
                0x08008a54       0xa4 f:/prosoft/gcc_arm_none/2019q4/9 2019-q4-major/bin/../lib/gcc/arm-none-eabi/9.2.1/../../../../arm-none-eabi/lib/thumb/v7e-m+dp/hard\libc_nano.a(lib_a-wbuf.o)
                0x08008a54                __swbuf_r
 .text._write_r
                0x08008af8       0x24 f:/prosoft/gcc_arm_none/2019q4/9 2019-q4-major/bin/../lib/gcc/arm-none-eabi/9.2.1/../../../../arm-none-eabi/lib/thumb/v7e-m+dp/hard\libc_nano.a(lib_a-writer.o)
                0x08008af8                _write_r
 .text.__swsetup_r
                0x08008b1c       0xdc f:/prosoft/gcc_arm_none/2019q4/9 2019-q4-major/bin/../lib/gcc/arm-none-eabi/9.2.1/../../../../arm-none-eabi/lib/thumb/v7e-m+dp/hard\libc_nano.a(lib_a-wsetup.o)
                0x08008b1c                __swsetup_r
 .text._close_r
                0x08008bf8       0x20 f:/prosoft/gcc_arm_none/2019q4/9 2019-q4-major/bin/../lib/gcc/arm-none-eabi/9.2.1/../../../../arm-none-eabi/lib/thumb/v7e-m+dp/hard\libc_nano.a(lib_a-closer.o)
                0x08008bf8                _close_r
 .text.__sflush_r
                0x08008c18      0x10c f:/prosoft/gcc_arm_none/2019q4/9 2019-q4-major/bin/../lib/gcc/arm-none-eabi/9.2.1/../../../../arm-none-eabi/lib/thumb/v7e-m+dp/hard\libc_nano.a(lib_a-fflush.o)
                0x08008c18                __sflush_r
 .text._fflush_r
                0x08008d24       0x78 f:/prosoft/gcc_arm_none/2019q4/9 2019-q4-major/bin/../lib/gcc/arm-none-eabi/9.2.1/../../../../arm-none-eabi/lib/thumb/v7e-m+dp/hard\libc_nano.a(lib_a-fflush.o)
                0x08008d24                _fflush_r
 .text._lseek_r
                0x08008d9c       0x24 f:/prosoft/gcc_arm_none/2019q4/9 2019-q4-major/bin/../lib/gcc/arm-none-eabi/9.2.1/../../../../arm-none-eabi/lib/thumb/v7e-m+dp/hard\libc_nano.a(lib_a-lseekr.o)
                0x08008d9c                _lseek_r
 .text.__swhatbuf_r
                0x08008dc0       0x48 f:/prosoft/gcc_arm_none/2019q4/9 2019-q4-major/bin/../lib/gcc/arm-none-eabi/9.2.1/../../../../arm-none-eabi/lib/thumb/v7e-m+dp/hard\libc_nano.a(lib_a-makebuf.o)
                0x08008dc0                __swhatbuf_r
 .text.__smakebuf_r
                0x08008e08       0x80 f:/prosoft/gcc_arm_none/2019q4/9 2019-q4-major/bin/../lib/gcc/arm-none-eabi/9.2.1/../../../../arm-none-eabi/lib/thumb/v7e-m+dp/hard\libc_nano.a(lib_a-makebuf.o)
                0x08008e08                __smakebuf_r
 .text.__ascii_mbtowc
                0x08008e88       0x24 f:/prosoft/gcc_arm_none/2019q4/9 2019-q4-major/bin/../lib/gcc/arm-none-eabi/9.2.1/../../../../arm-none-eabi/lib/thumb/v7e-m+dp/hard\libc_nano.a(lib_a-mbtowc_r.o)
                0x08008e88                __ascii_mbtowc
 .text.__malloc_lock
                0x08008eac        0xc f:/prosoft/gcc_arm_none/2019q4/9 2019-q4-major/bin/../lib/gcc/arm-none-eabi/9.2.1/../../../../arm-none-eabi/lib/thumb/v7e-m+dp/hard\libc_nano.a(lib_a-mlock.o)
                0x08008eac                __malloc_lock
 .text.__malloc_unlock
                0x08008eb8        0xc f:/prosoft/gcc_arm_none/2019q4/9 2019-q4-major/bin/../lib/gcc/arm-none-eabi/9.2.1/../../../../arm-none-eabi/lib/thumb/v7e-m+dp/hard\libc_nano.a(lib_a-mlock.o)
                0x08008eb8                __malloc_unlock
 .text._read_r  0x08008ec4       0x24 f:/prosoft/gcc_arm_none/2019q4/9 2019-q4-major/bin/../lib/gcc/arm-none-eabi/9.2.1/../../../../arm-none-eabi/lib/thumb/v7e-m+dp/hard\libc_nano.a(lib_a-readr.o)
                0x08008ec4                _read_r
 .text.__ascii_wctomb
                0x08008ee8       0x1a f:/prosoft/gcc_arm_none/2019q4/9 2019-q4-major/bin/../lib/gcc/arm-none-eabi/9.2.1/../../../../arm-none-eabi/lib/thumb/v7e-m+dp/hard\libc_nano.a(lib_a-wctomb_r.o)
                0x08008ee8                __ascii_wctomb
 *fill*         0x08008f02        0x2 
 .text._fstat_r
                0x08008f04       0x24 f:/prosoft/gcc_arm_none/2019q4/9 2019-q4-major/bin/../lib/gcc/arm-none-eabi/9.2.1/../../../../arm-none-eabi/lib/thumb/v7e-m+dp/hard\libc_nano.a(lib_a-fstatr.o)
                0x08008f04                _fstat_r
 .text._isatty_r
                0x08008f28       0x20 f:/prosoft/gcc_arm_none/2019q4/9 2019-q4-major/bin/../lib/gcc/arm-none-eabi/9.2.1/../../../../arm-none-eabi/lib/thumb/v7e-m+dp/hard\libc_nano.a(lib_a-isattyr.o)
                0x08008f28                _isatty_r
 .text.asin     0x08008f48       0xac f:/prosoft/gcc_arm_none/2019q4/9 2019-q4-major/bin/../lib/gcc/arm-none-eabi/9.2.1/../../../../arm-none-eabi/lib/thumb/v7e-m+dp/hard\libm.a(lib_a-w_asin.o)
                0x08008f48                asin
 .text.atan2    0x08008ff4        0x4 f:/prosoft/gcc_arm_none/2019q4/9 2019-q4-major/bin/../lib/gcc/arm-none-eabi/9.2.1/../../../../arm-none-eabi/lib/thumb/v7e-m+dp/hard\libm.a(lib_a-w_atan2.o)
                0x08008ff4                atan2
 .text.__ieee754_asin
                0x08008ff8      0x264 f:/prosoft/gcc_arm_none/2019q4/9 2019-q4-major/bin/../lib/gcc/arm-none-eabi/9.2.1/../../../../arm-none-eabi/lib/thumb/v7e-m+dp/hard\libm.a(lib_a-e_asin.o)
                0x08008ff8                __ieee754_asin
 *fill*         0x0800925c        0x4 
 .text.__ieee754_atan2
                0x08009260      0x1e4 f:/prosoft/gcc_arm_none/2019q4/9 2019-q4-major/bin/../lib/gcc/arm-none-eabi/9.2.1/../../../../arm-none-eabi/lib/thumb/v7e-m+dp/hard\libm.a(lib_a-e_atan2.o)
                0x08009260                __ieee754_atan2
 .text.__ieee754_sqrt
                0x08009444        0x8 f:/prosoft/gcc_arm_none/2019q4/9 2019-q4-major/bin/../lib/gcc/arm-none-eabi/9.2.1/../../../../arm-none-eabi/lib/thumb/v7e-m+dp/hard\libm.a(lib_a-e_sqrt.o)
                0x08009444                __ieee754_sqrt
 *fill*         0x0800944c        0x4 
 .text.atan     0x08009450      0x1fc f:/prosoft/gcc_arm_none/2019q4/9 2019-q4-major/bin/../lib/gcc/arm-none-eabi/9.2.1/../../../../arm-none-eabi/lib/thumb/v7e-m+dp/hard\libm.a(lib_a-s_atan.o)
                0x08009450                atan
 .text.fabs     0x0800964c       0x14 f:/prosoft/gcc_arm_none/2019q4/9 2019-q4-major/bin/../lib/gcc/arm-none-eabi/9.2.1/../../../../arm-none-eabi/lib/thumb/v7e-m+dp/hard\libm.a(lib_a-s_fabs.o)
                0x0800964c                fabs
 .text.matherr  0x08009660        0x4 f:/prosoft/gcc_arm_none/2019q4/9 2019-q4-major/bin/../lib/gcc/arm-none-eabi/9.2.1/../../../../arm-none-eabi/lib/thumb/v7e-m+dp/hard\libm.a(lib_a-s_matherr.o)
                0x08009660                matherr
 *fill*         0x08009664        0x4 
 .text.nan      0x08009668       0x10 f:/prosoft/gcc_arm_none/2019q4/9 2019-q4-major/bin/../lib/gcc/arm-none-eabi/9.2.1/../../../../arm-none-eabi/lib/thumb/v7e-m+dp/hard\libm.a(lib_a-s_nan.o)
                0x08009668                nan
 .text._close   0x08009678       0x10 f:/prosoft/gcc_arm_none/2019q4/9 2019-q4-major/bin/../lib/gcc/arm-none-eabi/9.2.1/../../../../arm-none-eabi/lib/thumb/v7e-m+dp/hard\libnosys.a(close.o)
                0x08009678                _close
 .text._fstat   0x08009688       0x10 f:/prosoft/gcc_arm_none/2019q4/9 2019-q4-major/bin/../lib/gcc/arm-none-eabi/9.2.1/../../../../arm-none-eabi/lib/thumb/v7e-m+dp/hard\libnosys.a(fstat.o)
                0x08009688                _fstat
 .text._isatty  0x08009698       0x10 f:/prosoft/gcc_arm_none/2019q4/9 2019-q4-major/bin/../lib/gcc/arm-none-eabi/9.2.1/../../../../arm-none-eabi/lib/thumb/v7e-m+dp/hard\libnosys.a(isatty.o)
                0x08009698                _isatty
 .text._lseek   0x080096a8       0x10 f:/prosoft/gcc_arm_none/2019q4/9 2019-q4-major/bin/../lib/gcc/arm-none-eabi/9.2.1/../../../../arm-none-eabi/lib/thumb/v7e-m+dp/hard\libnosys.a(lseek.o)
                0x080096a8                _lseek
 .text._read    0x080096b8       0x10 f:/prosoft/gcc_arm_none/2019q4/9 2019-q4-major/bin/../lib/gcc/arm-none-eabi/9.2.1/../../../../arm-none-eabi/lib/thumb/v7e-m+dp/hard\libnosys.a(read.o)
                0x080096b8                _read
 .text._sbrk    0x080096c8       0x1c f:/prosoft/gcc_arm_none/2019q4/9 2019-q4-major/bin/../lib/gcc/arm-none-eabi/9.2.1/../../../../arm-none-eabi/lib/thumb/v7e-m+dp/hard\libnosys.a(sbrk.o)
                0x080096c8                _sbrk
 .text.__errno  0x080096e4        0xc f:/prosoft/gcc_arm_none/2019q4/9 2019-q4-major/bin/../lib/gcc/arm-none-eabi/9.2.1/../../../../arm-none-eabi/lib/thumb/v7e-m+dp/hard\libc_nano.a(lib_a-errno.o)
                0x080096e4                __errno
 *(.glue_7)
 .glue_7        0x080096f0        0x0 linker stubs
 *(.glue_7t)
 .glue_7t       0x080096f0        0x0 linker stubs
 *(.eh_frame)
 .eh_frame      0x080096f0        0x0 f:/prosoft/gcc_arm_none/2019q4/9 2019-q4-major/bin/../lib/gcc/arm-none-eabi/9.2.1/thumb/v7e-m+dp/hard/crtbegin.o
 *(.init)
 .init          0x080096f0        0x4 f:/prosoft/gcc_arm_none/2019q4/9 2019-q4-major/bin/../lib/gcc/arm-none-eabi/9.2.1/thumb/v7e-m+dp/hard/crti.o
                0x080096f0                _init
 .init          0x080096f4        0x8 f:/prosoft/gcc_arm_none/2019q4/9 2019-q4-major/bin/../lib/gcc/arm-none-eabi/9.2.1/thumb/v7e-m+dp/hard/crtn.o
 *(.fini)
 .fini          0x080096fc        0x4 f:/prosoft/gcc_arm_none/2019q4/9 2019-q4-major/bin/../lib/gcc/arm-none-eabi/9.2.1/thumb/v7e-m+dp/hard/crti.o
                0x080096fc                _fini
 .fini          0x08009700        0x8 f:/prosoft/gcc_arm_none/2019q4/9 2019-q4-major/bin/../lib/gcc/arm-none-eabi/9.2.1/thumb/v7e-m+dp/hard/crtn.o
                0x08009708                . = ALIGN (0x4)
                0x08009708                _etext = .

.vfp11_veneer   0x08009708        0x0
 .vfp11_veneer  0x08009708        0x0 linker stubs

.v4_bx          0x08009708        0x0
 .v4_bx         0x08009708        0x0 linker stubs

.iplt           0x08009708        0x0
 .iplt          0x08009708        0x0 f:/prosoft/gcc_arm_none/2019q4/9 2019-q4-major/bin/../lib/gcc/arm-none-eabi/9.2.1/thumb/v7e-m+dp/hard/crtbegin.o

.rodata         0x08009708     0x1060
                0x08009708                . = ALIGN (0x4)
 *(.rodata)
 *(.rodata*)
 .rodata.dmp_set_orientation.str1.4
                0x08009708       0x10 build/inv_mpu_dmp_motion_driver.o
 .rodata.dmp_set_fifo_rate.str1.4
                0x08009718        0xd build/inv_mpu_dmp_motion_driver.o
 *fill*         0x08009725        0x3 
 .rodata.dmp_enable_gyro_cal.str1.4
                0x08009728       0x16 build/inv_mpu_dmp_motion_driver.o
 *fill*         0x0800973e        0x2 
 .rodata.dmp_memory
                0x08009740      0xbf6 build/inv_mpu_dmp_motion_driver.o
 *fill*         0x0800a336        0x2 
 .rodata.hw     0x0800a338        0xc build/inv_mpu.o
                0x0800a338                hw
 .rodata.reg    0x0800a344       0x1e build/inv_mpu.o
                0x0800a344                reg
 *fill*         0x0800a362        0x2 
 .rodata.test   0x0800a364       0x28 build/inv_mpu.o
                0x0800a364                test
 .rodata.AttitudeTsak.str1.4
                0x0800a38c       0x2d build/attitude_task.o
 *fill*         0x0800a3b9        0x3 
 .rodata.xAttitudeTsakCreat.str1.4
                0x0800a3bc        0xd build/attitude_task.o
 *fill*         0x0800a3c9        0x3 
 .rodata.str1.4
                0x0800a3cc        0xc build/freertos.o
 .rodata.defaultTask_attributes
                0x0800a3d8       0x24 build/freertos.o
                0x0800a3d8                defaultTask_attributes
 .rodata.AHBPrescTable
                0x0800a3fc       0x10 build/system_stm32f7xx.o
                0x0800a3fc                AHBPrescTable
 .rodata.APBPrescTable
                0x0800a40c        0x8 build/system_stm32f7xx.o
                0x0800a40c                APBPrescTable
 .rodata.vTaskStartScheduler.str1.4
                0x0800a414        0x5 build/tasks.o
 *fill*         0x0800a419        0x3 
 .rodata.prvCheckForValidListAndQueue.str1.4
                0x0800a41c        0x5 build/timers.o
 *fill*         0x0800a421        0x3 
 .rodata.xTimerCreateTimerTask.str1.4
                0x0800a424        0x8 build/timers.o
 .rodata._global_impure_ptr
                0x0800a42c        0x4 f:/prosoft/gcc_arm_none/2019q4/9 2019-q4-major/bin/../lib/gcc/arm-none-eabi/9.2.1/../../../../arm-none-eabi/lib/thumb/v7e-m+dp/hard\libc_nano.a(lib_a-impure.o)
                0x0800a42c                _global_impure_ptr
 .rodata._printf_float.str1.1
                0x0800a430       0x12 f:/prosoft/gcc_arm_none/2019q4/9 2019-q4-major/bin/../lib/gcc/arm-none-eabi/9.2.1/../../../../arm-none-eabi/lib/thumb/v7e-m+dp/hard\libc_nano.a(lib_a-nano-vfprintf_float.o)
 .rodata._printf_i.str1.1
                0x0800a442       0x22 f:/prosoft/gcc_arm_none/2019q4/9 2019-q4-major/bin/../lib/gcc/arm-none-eabi/9.2.1/../../../../arm-none-eabi/lib/thumb/v7e-m+dp/hard\libc_nano.a(lib_a-nano-vfprintf_i.o)
 .rodata._dtoa_r.str1.1
                0x0800a464        0xd f:/prosoft/gcc_arm_none/2019q4/9 2019-q4-major/bin/../lib/gcc/arm-none-eabi/9.2.1/../../../../arm-none-eabi/lib/thumb/v7e-m+dp/hard\libc_nano.a(lib_a-dtoa.o)
                                  0xf (size before relaxing)
 *fill*         0x0800a471        0x3 
 .rodata.__sf_fake_stderr
                0x0800a474       0x20 f:/prosoft/gcc_arm_none/2019q4/9 2019-q4-major/bin/../lib/gcc/arm-none-eabi/9.2.1/../../../../arm-none-eabi/lib/thumb/v7e-m+dp/hard\libc_nano.a(lib_a-findfp.o)
                0x0800a474                __sf_fake_stderr
 .rodata.__sf_fake_stdin
                0x0800a494       0x20 f:/prosoft/gcc_arm_none/2019q4/9 2019-q4-major/bin/../lib/gcc/arm-none-eabi/9.2.1/../../../../arm-none-eabi/lib/thumb/v7e-m+dp/hard\libc_nano.a(lib_a-findfp.o)
                0x0800a494                __sf_fake_stdin
 .rodata.__sf_fake_stdout
                0x0800a4b4       0x20 f:/prosoft/gcc_arm_none/2019q4/9 2019-q4-major/bin/../lib/gcc/arm-none-eabi/9.2.1/../../../../arm-none-eabi/lib/thumb/v7e-m+dp/hard\libc_nano.a(lib_a-findfp.o)
                0x0800a4b4                __sf_fake_stdout
 *fill*         0x0800a4d4        0x4 
 .rodata.__mprec_bigtens
                0x0800a4d8       0x28 f:/prosoft/gcc_arm_none/2019q4/9 2019-q4-major/bin/../lib/gcc/arm-none-eabi/9.2.1/../../../../arm-none-eabi/lib/thumb/v7e-m+dp/hard\libc_nano.a(lib_a-mprec.o)
                0x0800a4d8                __mprec_bigtens
 .rodata.__mprec_tens
                0x0800a500       0xc8 f:/prosoft/gcc_arm_none/2019q4/9 2019-q4-major/bin/../lib/gcc/arm-none-eabi/9.2.1/../../../../arm-none-eabi/lib/thumb/v7e-m+dp/hard\libc_nano.a(lib_a-mprec.o)
                0x0800a500                __mprec_tens
 .rodata.p05.7490
                0x0800a5c8        0xc f:/prosoft/gcc_arm_none/2019q4/9 2019-q4-major/bin/../lib/gcc/arm-none-eabi/9.2.1/../../../../arm-none-eabi/lib/thumb/v7e-m+dp/hard\libc_nano.a(lib_a-mprec.o)
 .rodata._vfprintf_r.str1.1
                0x0800a5d4       0x11 f:/prosoft/gcc_arm_none/2019q4/9 2019-q4-major/bin/../lib/gcc/arm-none-eabi/9.2.1/../../../../arm-none-eabi/lib/thumb/v7e-m+dp/hard\libc_nano.a(lib_a-nano-vfprintf.o)
 .rodata._setlocale_r.str1.1
                0x0800a5e5        0x8 f:/prosoft/gcc_arm_none/2019q4/9 2019-q4-major/bin/../lib/gcc/arm-none-eabi/9.2.1/../../../../arm-none-eabi/lib/thumb/v7e-m+dp/hard\libc_nano.a(lib_a-locale.o)
                                  0x9 (size before relaxing)
 .rodata.str1.1
                0x0800a5ed        0x2 f:/prosoft/gcc_arm_none/2019q4/9 2019-q4-major/bin/../lib/gcc/arm-none-eabi/9.2.1/../../../../arm-none-eabi/lib/thumb/v7e-m+dp/hard\libc_nano.a(lib_a-locale.o)
 .rodata._ctype_
                0x0800a5ef      0x101 f:/prosoft/gcc_arm_none/2019q4/9 2019-q4-major/bin/../lib/gcc/arm-none-eabi/9.2.1/../../../../arm-none-eabi/lib/thumb/v7e-m+dp/hard\libc_nano.a(lib_a-ctype_.o)
                0x0800a5ef                _ctype_
 .rodata.asin.str1.4
                0x0800a6f0        0x5 f:/prosoft/gcc_arm_none/2019q4/9 2019-q4-major/bin/../lib/gcc/arm-none-eabi/9.2.1/../../../../arm-none-eabi/lib/thumb/v7e-m+dp/hard\libm.a(lib_a-w_asin.o)
                                  0x9 (size before relaxing)
 *fill*         0x0800a6f5        0x3 
 .rodata.CSWTCH.8
                0x0800a6f8       0x18 f:/prosoft/gcc_arm_none/2019q4/9 2019-q4-major/bin/../lib/gcc/arm-none-eabi/9.2.1/../../../../arm-none-eabi/lib/thumb/v7e-m+dp/hard\libm.a(lib_a-e_atan2.o)
 .rodata.CSWTCH.9
                0x0800a710       0x18 f:/prosoft/gcc_arm_none/2019q4/9 2019-q4-major/bin/../lib/gcc/arm-none-eabi/9.2.1/../../../../arm-none-eabi/lib/thumb/v7e-m+dp/hard\libm.a(lib_a-e_atan2.o)
 .rodata.atanhi
                0x0800a728       0x20 f:/prosoft/gcc_arm_none/2019q4/9 2019-q4-major/bin/../lib/gcc/arm-none-eabi/9.2.1/../../../../arm-none-eabi/lib/thumb/v7e-m+dp/hard\libm.a(lib_a-s_atan.o)
 .rodata.atanlo
                0x0800a748       0x20 f:/prosoft/gcc_arm_none/2019q4/9 2019-q4-major/bin/../lib/gcc/arm-none-eabi/9.2.1/../../../../arm-none-eabi/lib/thumb/v7e-m+dp/hard\libm.a(lib_a-s_atan.o)
                0x0800a768                . = ALIGN (0x4)

.ARM.extab
 *(.ARM.extab* .gnu.linkonce.armextab.*)

.ARM            0x0800a768        0x8
                0x0800a768                __exidx_start = .
 *(.ARM.exidx*)
 .ARM.exidx     0x0800a768        0x8 f:/prosoft/gcc_arm_none/2019q4/9 2019-q4-major/bin/../lib/gcc/arm-none-eabi/9.2.1/thumb/v7e-m+dp/hard\libgcc.a(_udivmoddi4.o)
                0x0800a770                __exidx_end = .

.rel.dyn        0x0800a770        0x0
 .rel.iplt      0x0800a770        0x0 f:/prosoft/gcc_arm_none/2019q4/9 2019-q4-major/bin/../lib/gcc/arm-none-eabi/9.2.1/thumb/v7e-m+dp/hard/crtbegin.o

.preinit_array  0x0800a770        0x0
                0x0800a770                PROVIDE (__preinit_array_start = .)
 *(.preinit_array*)
                0x0800a770                PROVIDE (__preinit_array_end = .)

.init_array     0x0800a770        0x4
                0x0800a770                PROVIDE (__init_array_start = .)
 *(SORT_BY_NAME(.init_array.*))
 *(.init_array*)
 .init_array    0x0800a770        0x4 f:/prosoft/gcc_arm_none/2019q4/9 2019-q4-major/bin/../lib/gcc/arm-none-eabi/9.2.1/thumb/v7e-m+dp/hard/crtbegin.o
                0x0800a774                PROVIDE (__init_array_end = .)

.fini_array     0x0800a774        0x4
                [!provide]                PROVIDE (__fini_array_start = .)
 *(SORT_BY_NAME(.fini_array.*))
 *(.fini_array*)
 .fini_array    0x0800a774        0x4 f:/prosoft/gcc_arm_none/2019q4/9 2019-q4-major/bin/../lib/gcc/arm-none-eabi/9.2.1/thumb/v7e-m+dp/hard/crtbegin.o
                [!provide]                PROVIDE (__fini_array_end = .)
                0x0800a778                _sidata = LOADADDR (.data)

.data           0x20000000      0x238 load address 0x0800a778
                0x20000000                . = ALIGN (0x4)
                0x20000000                _sdata = .
 *(.data)
 *(.data*)
 .data.st       0x20000000       0x2c build/inv_mpu.o
 .data._mpu1FunList
                0x2000002c       0x18 build/mpu6050.o
 .data.gyro_pdata
                0x20000044        0x9 build/mpu6050.o
 *fill*         0x2000004d        0x3 
 .data._attitudeFunList
                0x20000050        0x4 build/attitude.o
 .data.uwTickFreq
                0x20000054        0x1 build/stm32f7xx_hal.o
                0x20000054                uwTickFreq
 *fill*         0x20000055        0x3 
 .data.uwTickPrio
                0x20000058        0x4 build/stm32f7xx_hal.o
                0x20000058                uwTickPrio
 .data.SystemCoreClock
                0x2000005c        0x4 build/system_stm32f7xx.o
                0x2000005c                SystemCoreClock
 .data.uxCriticalNesting
                0x20000060        0x4 build/port.o
 .data._impure_ptr
                0x20000064        0x4 f:/prosoft/gcc_arm_none/2019q4/9 2019-q4-major/bin/../lib/gcc/arm-none-eabi/9.2.1/../../../../arm-none-eabi/lib/thumb/v7e-m+dp/hard\libc_nano.a(lib_a-impure.o)
                0x20000064                _impure_ptr
 .data.impure_data
                0x20000068       0x60 f:/prosoft/gcc_arm_none/2019q4/9 2019-q4-major/bin/../lib/gcc/arm-none-eabi/9.2.1/../../../../arm-none-eabi/lib/thumb/v7e-m+dp/hard\libc_nano.a(lib_a-impure.o)
 .data.__global_locale
                0x200000c8      0x16c f:/prosoft/gcc_arm_none/2019q4/9 2019-q4-major/bin/../lib/gcc/arm-none-eabi/9.2.1/../../../../arm-none-eabi/lib/thumb/v7e-m+dp/hard\libc_nano.a(lib_a-locale.o)
                0x200000c8                __global_locale
 .data.__fdlib_version
                0x20000234        0x1 f:/prosoft/gcc_arm_none/2019q4/9 2019-q4-major/bin/../lib/gcc/arm-none-eabi/9.2.1/../../../../arm-none-eabi/lib/thumb/v7e-m+dp/hard\libm.a(lib_a-s_lib_ver.o)
                0x20000234                __fdlib_version
                0x20000238                . = ALIGN (0x4)
 *fill*         0x20000235        0x3 
                0x20000238                _edata = .

.igot.plt       0x20000238        0x0 load address 0x0800a9b0
 .igot.plt      0x20000238        0x0 f:/prosoft/gcc_arm_none/2019q4/9 2019-q4-major/bin/../lib/gcc/arm-none-eabi/9.2.1/thumb/v7e-m+dp/hard/crtbegin.o
                0x20000238                . = ALIGN (0x4)

.bss            0x20000238     0x4abc load address 0x0800a9b0
                0x20000238                _sbss = .
                0x20000238                __bss_start__ = _sbss
 *(.bss)
 .bss           0x20000238       0x1c f:/prosoft/gcc_arm_none/2019q4/9 2019-q4-major/bin/../lib/gcc/arm-none-eabi/9.2.1/thumb/v7e-m+dp/hard/crtbegin.o
 *(.bss*)
 .bss.dmp       0x20000254       0x10 build/inv_mpu_dmp_motion_driver.o
 .bss.sensors.10001
                0x20000264        0x2 build/mpu6050.o
 *fill*         0x20000266        0x2 
 .bss.tmp_quat.10003
                0x20000268       0x10 build/mpu6050.o
 .bss.AttitudeQueue
                0x20000278        0x4 build/attitude_task.o
                0x20000278                AttitudeQueue
 .bss.pxCurrentTCB
                0x2000027c        0x4 build/tasks.o
                0x2000027c                pxCurrentTCB
 .bss.pxDelayedTaskList
                0x20000280        0x4 build/tasks.o
 .bss.pxOverflowDelayedTaskList
                0x20000284        0x4 build/tasks.o
 .bss.pxReadyTasksLists
                0x20000288      0x460 build/tasks.o
 .bss.uxCurrentNumberOfTasks
                0x200006e8        0x4 build/tasks.o
 .bss.uxDeletedTasksWaitingCleanUp
                0x200006ec        0x4 build/tasks.o
 .bss.uxPendedTicks
                0x200006f0        0x4 build/tasks.o
 .bss.uxSchedulerSuspended
                0x200006f4        0x4 build/tasks.o
 .bss.uxTaskNumber
                0x200006f8        0x4 build/tasks.o
 .bss.uxTopReadyPriority
                0x200006fc        0x4 build/tasks.o
 .bss.xDelayedTaskList1
                0x20000700       0x14 build/tasks.o
 .bss.xDelayedTaskList2
                0x20000714       0x14 build/tasks.o
 .bss.xNextTaskUnblockTime
                0x20000728        0x4 build/tasks.o
 .bss.xNumOfOverflows
                0x2000072c        0x4 build/tasks.o
 .bss.xPendingReadyList
                0x20000730       0x14 build/tasks.o
 .bss.xSchedulerRunning
                0x20000744        0x4 build/tasks.o
 .bss.xSuspendedTaskList
                0x20000748       0x14 build/tasks.o
 .bss.xTasksWaitingTermination
                0x2000075c       0x14 build/tasks.o
 .bss.xTickCount
                0x20000770        0x4 build/tasks.o
 .bss.xYieldPending
                0x20000774        0x4 build/tasks.o
 .bss.pxCurrentTimerList
                0x20000778        0x4 build/timers.o
 .bss.pxOverflowTimerList
                0x2000077c        0x4 build/timers.o
 .bss.ucStaticTimerQueueStorage.6936
                0x20000780       0xa0 build/timers.o
 .bss.xActiveTimerList1
                0x20000820       0x14 build/timers.o
 .bss.xActiveTimerList2
                0x20000834       0x14 build/timers.o
 .bss.xLastTime.6885
                0x20000848        0x4 build/timers.o
 .bss.xStaticTimerQueue.6935
                0x2000084c       0x50 build/timers.o
 .bss.xTimerQueue
                0x2000089c        0x4 build/timers.o
 .bss.xTimerTaskHandle
                0x200008a0        0x4 build/timers.o
 .bss.Idle_Stack
                0x200008a4      0x200 build/cmsis_os2.o
 .bss.Idle_TCB  0x20000aa4       0x5c build/cmsis_os2.o
 .bss.KernelState
                0x20000b00        0x4 build/cmsis_os2.o
 .bss.Timer_Stack
                0x20000b04      0x400 build/cmsis_os2.o
 .bss.Timer_TCB
                0x20000f04       0x5c build/cmsis_os2.o
 .bss.pxEnd     0x20000f60        0x4 build/heap_4.o
 .bss.ucHeap    0x20000f64     0x3c00 build/heap_4.o
 .bss.xBlockAllocatedBit
                0x20004b64        0x4 build/heap_4.o
 .bss.xFreeBytesRemaining
                0x20004b68        0x4 build/heap_4.o
 .bss.xMinimumEverFreeBytesRemaining
                0x20004b6c        0x4 build/heap_4.o
 .bss.xStart    0x20004b70        0x8 build/heap_4.o
 .bss.ucMaxSysCallPriority
                0x20004b78        0x1 build/port.o
 *fill*         0x20004b79        0x3 
 .bss.ulMaxPRIGROUPValue
                0x20004b7c        0x4 build/port.o
 .bss.__malloc_free_list
                0x20004b80        0x4 f:/prosoft/gcc_arm_none/2019q4/9 2019-q4-major/bin/../lib/gcc/arm-none-eabi/9.2.1/../../../../arm-none-eabi/lib/thumb/v7e-m+dp/hard\libc_nano.a(lib_a-nano-mallocr.o)
                0x20004b80                __malloc_free_list
 .bss.__malloc_sbrk_start
                0x20004b84        0x4 f:/prosoft/gcc_arm_none/2019q4/9 2019-q4-major/bin/../lib/gcc/arm-none-eabi/9.2.1/../../../../arm-none-eabi/lib/thumb/v7e-m+dp/hard\libc_nano.a(lib_a-nano-mallocr.o)
                0x20004b84                __malloc_sbrk_start
 .bss.heap_end.5507
                0x20004b88        0x4 f:/prosoft/gcc_arm_none/2019q4/9 2019-q4-major/bin/../lib/gcc/arm-none-eabi/9.2.1/../../../../arm-none-eabi/lib/thumb/v7e-m+dp/hard\libnosys.a(sbrk.o)
 *(COMMON)
 COMMON         0x20004b8c        0x4 build/attitude_task.o
                0x20004b8c                AttitudeTaskHandle
 COMMON         0x20004b90        0x4 build/freertos.o
                0x20004b90                defaultTaskHandle
 COMMON         0x20004b94       0x4c build/i2c.o
                0x20004b94                hi2c4
 COMMON         0x20004be0       0x80 build/usart.o
                0x20004be0                huart5
 COMMON         0x20004c60       0x40 build/stm32f7xx_hal_timebase_tim.o
                0x20004c60                htim1
 COMMON         0x20004ca0        0x4 build/stm32f7xx_hal.o
                0x20004ca0                uwTick
 COMMON         0x20004ca4       0x40 build/queue.o
                0x20004ca4                xQueueRegistry
 COMMON         0x20004ce4        0x9 f:/prosoft/gcc_arm_none/2019q4/9 2019-q4-major/bin/../lib/gcc/arm-none-eabi/9.2.1/../../../../arm-none-eabi/lib/thumb/v7e-m+dp/hard\libc_nano.a(lib_a-lock.o)
                0x20004ce4                __lock___atexit_recursive_mutex
                0x20004ce5                __lock___arc4random_mutex
                0x20004ce6                __lock___env_recursive_mutex
                0x20004ce7                __lock___sinit_recursive_mutex
                0x20004ce8                __lock___malloc_recursive_mutex
                0x20004ce9                __lock___at_quick_exit_mutex
                0x20004cea                __lock___dd_hash_mutex
                0x20004ceb                __lock___tz_mutex
                0x20004cec                __lock___sfp_recursive_mutex
 *fill*         0x20004ced        0x3 
 COMMON         0x20004cf0        0x4 f:/prosoft/gcc_arm_none/2019q4/9 2019-q4-major/bin/../lib/gcc/arm-none-eabi/9.2.1/../../../../arm-none-eabi/lib/thumb/v7e-m+dp/hard\libc_nano.a(lib_a-reent.o)
                0x20004cf0                errno
                0x20004cf4                . = ALIGN (0x4)
                0x20004cf4                _ebss = .
                0x20004cf4                __bss_end__ = _ebss

._user_heap_stack
                0x20004cf4      0x604 load address 0x0800a9b0
                0x20004cf8                . = ALIGN (0x8)
 *fill*         0x20004cf4        0x4 
                0x20004cf8                PROVIDE (end = .)
                [!provide]                PROVIDE (_end = .)
                0x20004ef8                . = (. + _Min_Heap_Size)
 *fill*         0x20004cf8      0x200 
                0x200052f8                . = (. + _Min_Stack_Size)
 *fill*         0x20004ef8      0x400 
                0x200052f8                . = ALIGN (0x8)

/DISCARD/
 libc.a(*)
 libm.a(*)
 libgcc.a(*)

.ARM.attributes
                0x00000000       0x2e
 *(.ARM.attributes)
 .ARM.attributes
                0x00000000       0x1e f:/prosoft/gcc_arm_none/2019q4/9 2019-q4-major/bin/../lib/gcc/arm-none-eabi/9.2.1/thumb/v7e-m+dp/hard/crti.o
 .ARM.attributes
                0x0000001e       0x32 f:/prosoft/gcc_arm_none/2019q4/9 2019-q4-major/bin/../lib/gcc/arm-none-eabi/9.2.1/thumb/v7e-m+dp/hard/crtbegin.o
 .ARM.attributes
                0x00000050       0x32 build/bsp_i2c.o
 .ARM.attributes
                0x00000082       0x32 build/inv_mpu_dmp_motion_driver.o
 .ARM.attributes
                0x000000b4       0x32 build/inv_mpu.o
 .ARM.attributes
                0x000000e6       0x32 build/mpu6050.o
 .ARM.attributes
                0x00000118       0x32 build/attitude.o
 .ARM.attributes
                0x0000014a       0x32 build/attitude_task.o
 .ARM.attributes
                0x0000017c       0x32 build/printf_redefine.o
 .ARM.attributes
                0x000001ae       0x32 build/main.o
 .ARM.attributes
                0x000001e0       0x32 build/gpio.o
 .ARM.attributes
                0x00000212       0x32 build/freertos.o
 .ARM.attributes
                0x00000244       0x32 build/i2c.o
 .ARM.attributes
                0x00000276       0x32 build/usart.o
 .ARM.attributes
                0x000002a8       0x32 build/stm32f7xx_it.o
 .ARM.attributes
                0x000002da       0x32 build/stm32f7xx_hal_msp.o
 .ARM.attributes
                0x0000030c       0x32 build/stm32f7xx_hal_timebase_tim.o
 .ARM.attributes
                0x0000033e       0x32 build/stm32f7xx_hal_cortex.o
 .ARM.attributes
                0x00000370       0x32 build/stm32f7xx_hal_rcc.o
 .ARM.attributes
                0x000003a2       0x32 build/stm32f7xx_hal_rcc_ex.o
 .ARM.attributes
                0x000003d4       0x32 build/stm32f7xx_hal_gpio.o
 .ARM.attributes
                0x00000406       0x32 build/stm32f7xx_hal_pwr_ex.o
 .ARM.attributes
                0x00000438       0x32 build/stm32f7xx_hal.o
 .ARM.attributes
                0x0000046a       0x32 build/stm32f7xx_hal_i2c.o
 .ARM.attributes
                0x0000049c       0x32 build/stm32f7xx_hal_i2c_ex.o
 .ARM.attributes
                0x000004ce       0x32 build/stm32f7xx_hal_tim.o
 .ARM.attributes
                0x00000500       0x32 build/stm32f7xx_hal_tim_ex.o
 .ARM.attributes
                0x00000532       0x32 build/stm32f7xx_hal_uart.o
 .ARM.attributes
                0x00000564       0x32 build/system_stm32f7xx.o
 .ARM.attributes
                0x00000596       0x32 build/list.o
 .ARM.attributes
                0x000005c8       0x32 build/queue.o
 .ARM.attributes
                0x000005fa       0x32 build/tasks.o
 .ARM.attributes
                0x0000062c       0x32 build/timers.o
 .ARM.attributes
                0x0000065e       0x32 build/cmsis_os2.o
 .ARM.attributes
                0x00000690       0x32 build/heap_4.o
 .ARM.attributes
                0x000006c2       0x32 build/port.o
 .ARM.attributes
                0x000006f4       0x21 build/startup_stm32f767xx.o
 .ARM.attributes
                0x00000715       0x30 f:/prosoft/gcc_arm_none/2019q4/9 2019-q4-major/bin/../lib/gcc/arm-none-eabi/9.2.1/../../../../arm-none-eabi/lib/thumb/v7e-m+dp/hard\libc_nano.a(lib_a-impure.o)
 .ARM.attributes
                0x00000745       0x32 f:/prosoft/gcc_arm_none/2019q4/9 2019-q4-major/bin/../lib/gcc/arm-none-eabi/9.2.1/../../../../arm-none-eabi/lib/thumb/v7e-m+dp/hard\libc_nano.a(lib_a-init.o)
 .ARM.attributes
                0x00000777       0x32 f:/prosoft/gcc_arm_none/2019q4/9 2019-q4-major/bin/../lib/gcc/arm-none-eabi/9.2.1/../../../../arm-none-eabi/lib/thumb/v7e-m+dp/hard\libc_nano.a(lib_a-memcpy-stub.o)
 .ARM.attributes
                0x000007a9       0x32 f:/prosoft/gcc_arm_none/2019q4/9 2019-q4-major/bin/../lib/gcc/arm-none-eabi/9.2.1/../../../../arm-none-eabi/lib/thumb/v7e-m+dp/hard\libc_nano.a(lib_a-memset.o)
 .ARM.attributes
                0x000007db       0x32 f:/prosoft/gcc_arm_none/2019q4/9 2019-q4-major/bin/../lib/gcc/arm-none-eabi/9.2.1/../../../../arm-none-eabi/lib/thumb/v7e-m+dp/hard\libc_nano.a(lib_a-nano-vfprintf_float.o)
 .ARM.attributes
                0x0000080d       0x32 f:/prosoft/gcc_arm_none/2019q4/9 2019-q4-major/bin/../lib/gcc/arm-none-eabi/9.2.1/../../../../arm-none-eabi/lib/thumb/v7e-m+dp/hard\libc_nano.a(lib_a-nano-vfprintf_i.o)
 .ARM.attributes
                0x0000083f       0x32 f:/prosoft/gcc_arm_none/2019q4/9 2019-q4-major/bin/../lib/gcc/arm-none-eabi/9.2.1/../../../../arm-none-eabi/lib/thumb/v7e-m+dp/hard\libc_nano.a(lib_a-printf.o)
 .ARM.attributes
                0x00000871       0x17 f:/prosoft/gcc_arm_none/2019q4/9 2019-q4-major/bin/../lib/gcc/arm-none-eabi/9.2.1/../../../../arm-none-eabi/lib/thumb/v7e-m+dp/hard\libc_nano.a(lib_a-strlen.o)
 .ARM.attributes
                0x00000888       0x32 f:/prosoft/gcc_arm_none/2019q4/9 2019-q4-major/bin/../lib/gcc/arm-none-eabi/9.2.1/../../../../arm-none-eabi/lib/thumb/v7e-m+dp/hard\libc_nano.a(lib_a-dtoa.o)
 .ARM.attributes
                0x000008ba       0x32 f:/prosoft/gcc_arm_none/2019q4/9 2019-q4-major/bin/../lib/gcc/arm-none-eabi/9.2.1/../../../../arm-none-eabi/lib/thumb/v7e-m+dp/hard\libc_nano.a(lib_a-findfp.o)
 .ARM.attributes
                0x000008ec       0x32 f:/prosoft/gcc_arm_none/2019q4/9 2019-q4-major/bin/../lib/gcc/arm-none-eabi/9.2.1/../../../../arm-none-eabi/lib/thumb/v7e-m+dp/hard\libc_nano.a(lib_a-fwalk.o)
 .ARM.attributes
                0x0000091e       0x32 f:/prosoft/gcc_arm_none/2019q4/9 2019-q4-major/bin/../lib/gcc/arm-none-eabi/9.2.1/../../../../arm-none-eabi/lib/thumb/v7e-m+dp/hard\libc_nano.a(lib_a-localeconv.o)
 .ARM.attributes
                0x00000950       0x32 f:/prosoft/gcc_arm_none/2019q4/9 2019-q4-major/bin/../lib/gcc/arm-none-eabi/9.2.1/../../../../arm-none-eabi/lib/thumb/v7e-m+dp/hard\libc_nano.a(lib_a-lock.o)
 .ARM.attributes
                0x00000982       0x32 f:/prosoft/gcc_arm_none/2019q4/9 2019-q4-major/bin/../lib/gcc/arm-none-eabi/9.2.1/../../../../arm-none-eabi/lib/thumb/v7e-m+dp/hard\libc_nano.a(lib_a-malloc.o)
 .ARM.attributes
                0x000009b4       0x1c f:/prosoft/gcc_arm_none/2019q4/9 2019-q4-major/bin/../lib/gcc/arm-none-eabi/9.2.1/../../../../arm-none-eabi/lib/thumb/v7e-m+dp/hard\libc_nano.a(lib_a-memchr.o)
 .ARM.attributes
                0x000009d0       0x32 f:/prosoft/gcc_arm_none/2019q4/9 2019-q4-major/bin/../lib/gcc/arm-none-eabi/9.2.1/../../../../arm-none-eabi/lib/thumb/v7e-m+dp/hard\libc_nano.a(lib_a-mprec.o)
 .ARM.attributes
                0x00000a02       0x32 f:/prosoft/gcc_arm_none/2019q4/9 2019-q4-major/bin/../lib/gcc/arm-none-eabi/9.2.1/../../../../arm-none-eabi/lib/thumb/v7e-m+dp/hard\libc_nano.a(lib_a-nano-callocr.o)
 .ARM.attributes
                0x00000a34       0x32 f:/prosoft/gcc_arm_none/2019q4/9 2019-q4-major/bin/../lib/gcc/arm-none-eabi/9.2.1/../../../../arm-none-eabi/lib/thumb/v7e-m+dp/hard\libc_nano.a(lib_a-nano-freer.o)
 .ARM.attributes
                0x00000a66       0x32 f:/prosoft/gcc_arm_none/2019q4/9 2019-q4-major/bin/../lib/gcc/arm-none-eabi/9.2.1/../../../../arm-none-eabi/lib/thumb/v7e-m+dp/hard\libc_nano.a(lib_a-nano-mallocr.o)
 .ARM.attributes
                0x00000a98       0x32 f:/prosoft/gcc_arm_none/2019q4/9 2019-q4-major/bin/../lib/gcc/arm-none-eabi/9.2.1/../../../../arm-none-eabi/lib/thumb/v7e-m+dp/hard\libc_nano.a(lib_a-nano-vfprintf.o)
 .ARM.attributes
                0x00000aca       0x32 f:/prosoft/gcc_arm_none/2019q4/9 2019-q4-major/bin/../lib/gcc/arm-none-eabi/9.2.1/../../../../arm-none-eabi/lib/thumb/v7e-m+dp/hard\libc_nano.a(lib_a-sbrkr.o)
 .ARM.attributes
                0x00000afc       0x32 f:/prosoft/gcc_arm_none/2019q4/9 2019-q4-major/bin/../lib/gcc/arm-none-eabi/9.2.1/../../../../arm-none-eabi/lib/thumb/v7e-m+dp/hard\libc_nano.a(lib_a-stdio.o)
 .ARM.attributes
                0x00000b2e       0x32 f:/prosoft/gcc_arm_none/2019q4/9 2019-q4-major/bin/../lib/gcc/arm-none-eabi/9.2.1/../../../../arm-none-eabi/lib/thumb/v7e-m+dp/hard\libc_nano.a(lib_a-wbuf.o)
 .ARM.attributes
                0x00000b60       0x32 f:/prosoft/gcc_arm_none/2019q4/9 2019-q4-major/bin/../lib/gcc/arm-none-eabi/9.2.1/../../../../arm-none-eabi/lib/thumb/v7e-m+dp/hard\libc_nano.a(lib_a-writer.o)
 .ARM.attributes
                0x00000b92       0x32 f:/prosoft/gcc_arm_none/2019q4/9 2019-q4-major/bin/../lib/gcc/arm-none-eabi/9.2.1/../../../../arm-none-eabi/lib/thumb/v7e-m+dp/hard\libc_nano.a(lib_a-wsetup.o)
 .ARM.attributes
                0x00000bc4       0x32 f:/prosoft/gcc_arm_none/2019q4/9 2019-q4-major/bin/../lib/gcc/arm-none-eabi/9.2.1/../../../../arm-none-eabi/lib/thumb/v7e-m+dp/hard\libc_nano.a(lib_a-closer.o)
 .ARM.attributes
                0x00000bf6       0x32 f:/prosoft/gcc_arm_none/2019q4/9 2019-q4-major/bin/../lib/gcc/arm-none-eabi/9.2.1/../../../../arm-none-eabi/lib/thumb/v7e-m+dp/hard\libc_nano.a(lib_a-fflush.o)
 .ARM.attributes
                0x00000c28       0x32 f:/prosoft/gcc_arm_none/2019q4/9 2019-q4-major/bin/../lib/gcc/arm-none-eabi/9.2.1/../../../../arm-none-eabi/lib/thumb/v7e-m+dp/hard\libc_nano.a(lib_a-locale.o)
 .ARM.attributes
                0x00000c5a       0x32 f:/prosoft/gcc_arm_none/2019q4/9 2019-q4-major/bin/../lib/gcc/arm-none-eabi/9.2.1/../../../../arm-none-eabi/lib/thumb/v7e-m+dp/hard\libc_nano.a(lib_a-lseekr.o)
 .ARM.attributes
                0x00000c8c       0x32 f:/prosoft/gcc_arm_none/2019q4/9 2019-q4-major/bin/../lib/gcc/arm-none-eabi/9.2.1/../../../../arm-none-eabi/lib/thumb/v7e-m+dp/hard\libc_nano.a(lib_a-makebuf.o)
 .ARM.attributes
                0x00000cbe       0x32 f:/prosoft/gcc_arm_none/2019q4/9 2019-q4-major/bin/../lib/gcc/arm-none-eabi/9.2.1/../../../../arm-none-eabi/lib/thumb/v7e-m+dp/hard\libc_nano.a(lib_a-mbtowc_r.o)
 .ARM.attributes
                0x00000cf0       0x32 f:/prosoft/gcc_arm_none/2019q4/9 2019-q4-major/bin/../lib/gcc/arm-none-eabi/9.2.1/../../../../arm-none-eabi/lib/thumb/v7e-m+dp/hard\libc_nano.a(lib_a-mlock.o)
 .ARM.attributes
                0x00000d22       0x32 f:/prosoft/gcc_arm_none/2019q4/9 2019-q4-major/bin/../lib/gcc/arm-none-eabi/9.2.1/../../../../arm-none-eabi/lib/thumb/v7e-m+dp/hard\libc_nano.a(lib_a-readr.o)
 .ARM.attributes
                0x00000d54       0x32 f:/prosoft/gcc_arm_none/2019q4/9 2019-q4-major/bin/../lib/gcc/arm-none-eabi/9.2.1/../../../../arm-none-eabi/lib/thumb/v7e-m+dp/hard\libc_nano.a(lib_a-reent.o)
 .ARM.attributes
                0x00000d86       0x32 f:/prosoft/gcc_arm_none/2019q4/9 2019-q4-major/bin/../lib/gcc/arm-none-eabi/9.2.1/../../../../arm-none-eabi/lib/thumb/v7e-m+dp/hard\libc_nano.a(lib_a-wctomb_r.o)
 .ARM.attributes
                0x00000db8       0x30 f:/prosoft/gcc_arm_none/2019q4/9 2019-q4-major/bin/../lib/gcc/arm-none-eabi/9.2.1/../../../../arm-none-eabi/lib/thumb/v7e-m+dp/hard\libc_nano.a(lib_a-ctype_.o)
 .ARM.attributes
                0x00000de8       0x32 f:/prosoft/gcc_arm_none/2019q4/9 2019-q4-major/bin/../lib/gcc/arm-none-eabi/9.2.1/../../../../arm-none-eabi/lib/thumb/v7e-m+dp/hard\libc_nano.a(lib_a-fstatr.o)
 .ARM.attributes
                0x00000e1a       0x32 f:/prosoft/gcc_arm_none/2019q4/9 2019-q4-major/bin/../lib/gcc/arm-none-eabi/9.2.1/../../../../arm-none-eabi/lib/thumb/v7e-m+dp/hard\libc_nano.a(lib_a-isattyr.o)
 .ARM.attributes
                0x00000e4c       0x32 f:/prosoft/gcc_arm_none/2019q4/9 2019-q4-major/bin/../lib/gcc/arm-none-eabi/9.2.1/../../../../arm-none-eabi/lib/thumb/v7e-m+dp/hard\libm.a(lib_a-w_asin.o)
 .ARM.attributes
                0x00000e7e       0x32 f:/prosoft/gcc_arm_none/2019q4/9 2019-q4-major/bin/../lib/gcc/arm-none-eabi/9.2.1/../../../../arm-none-eabi/lib/thumb/v7e-m+dp/hard\libm.a(lib_a-w_atan2.o)
 .ARM.attributes
                0x00000eb0       0x32 f:/prosoft/gcc_arm_none/2019q4/9 2019-q4-major/bin/../lib/gcc/arm-none-eabi/9.2.1/../../../../arm-none-eabi/lib/thumb/v7e-m+dp/hard\libm.a(lib_a-e_asin.o)
 .ARM.attributes
                0x00000ee2       0x32 f:/prosoft/gcc_arm_none/2019q4/9 2019-q4-major/bin/../lib/gcc/arm-none-eabi/9.2.1/../../../../arm-none-eabi/lib/thumb/v7e-m+dp/hard\libm.a(lib_a-e_atan2.o)
 .ARM.attributes
                0x00000f14       0x32 f:/prosoft/gcc_arm_none/2019q4/9 2019-q4-major/bin/../lib/gcc/arm-none-eabi/9.2.1/../../../../arm-none-eabi/lib/thumb/v7e-m+dp/hard\libm.a(lib_a-e_sqrt.o)
 .ARM.attributes
                0x00000f46       0x32 f:/prosoft/gcc_arm_none/2019q4/9 2019-q4-major/bin/../lib/gcc/arm-none-eabi/9.2.1/../../../../arm-none-eabi/lib/thumb/v7e-m+dp/hard\libm.a(lib_a-s_atan.o)
 .ARM.attributes
                0x00000f78       0x32 f:/prosoft/gcc_arm_none/2019q4/9 2019-q4-major/bin/../lib/gcc/arm-none-eabi/9.2.1/../../../../arm-none-eabi/lib/thumb/v7e-m+dp/hard\libm.a(lib_a-s_fabs.o)
 .ARM.attributes
                0x00000faa       0x30 f:/prosoft/gcc_arm_none/2019q4/9 2019-q4-major/bin/../lib/gcc/arm-none-eabi/9.2.1/../../../../arm-none-eabi/lib/thumb/v7e-m+dp/hard\libm.a(lib_a-s_lib_ver.o)
 .ARM.attributes
                0x00000fda       0x32 f:/prosoft/gcc_arm_none/2019q4/9 2019-q4-major/bin/../lib/gcc/arm-none-eabi/9.2.1/../../../../arm-none-eabi/lib/thumb/v7e-m+dp/hard\libm.a(lib_a-s_matherr.o)
 .ARM.attributes
                0x0000100c       0x32 f:/prosoft/gcc_arm_none/2019q4/9 2019-q4-major/bin/../lib/gcc/arm-none-eabi/9.2.1/../../../../arm-none-eabi/lib/thumb/v7e-m+dp/hard\libm.a(lib_a-s_nan.o)
 .ARM.attributes
                0x0000103e       0x32 f:/prosoft/gcc_arm_none/2019q4/9 2019-q4-major/bin/../lib/gcc/arm-none-eabi/9.2.1/../../../../arm-none-eabi/lib/thumb/v7e-m+dp/hard\libnosys.a(close.o)
 .ARM.attributes
                0x00001070       0x32 f:/prosoft/gcc_arm_none/2019q4/9 2019-q4-major/bin/../lib/gcc/arm-none-eabi/9.2.1/../../../../arm-none-eabi/lib/thumb/v7e-m+dp/hard\libnosys.a(fstat.o)
 .ARM.attributes
                0x000010a2       0x32 f:/prosoft/gcc_arm_none/2019q4/9 2019-q4-major/bin/../lib/gcc/arm-none-eabi/9.2.1/../../../../arm-none-eabi/lib/thumb/v7e-m+dp/hard\libnosys.a(isatty.o)
 .ARM.attributes
                0x000010d4       0x32 f:/prosoft/gcc_arm_none/2019q4/9 2019-q4-major/bin/../lib/gcc/arm-none-eabi/9.2.1/../../../../arm-none-eabi/lib/thumb/v7e-m+dp/hard\libnosys.a(lseek.o)
 .ARM.attributes
                0x00001106       0x32 f:/prosoft/gcc_arm_none/2019q4/9 2019-q4-major/bin/../lib/gcc/arm-none-eabi/9.2.1/../../../../arm-none-eabi/lib/thumb/v7e-m+dp/hard\libnosys.a(read.o)
 .ARM.attributes
                0x00001138       0x32 f:/prosoft/gcc_arm_none/2019q4/9 2019-q4-major/bin/../lib/gcc/arm-none-eabi/9.2.1/../../../../arm-none-eabi/lib/thumb/v7e-m+dp/hard\libnosys.a(sbrk.o)
 .ARM.attributes
                0x0000116a       0x1e f:/prosoft/gcc_arm_none/2019q4/9 2019-q4-major/bin/../lib/gcc/arm-none-eabi/9.2.1/thumb/v7e-m+dp/hard\libgcc.a(_aeabi_uldivmod.o)
 .ARM.attributes
                0x00001188       0x32 f:/prosoft/gcc_arm_none/2019q4/9 2019-q4-major/bin/../lib/gcc/arm-none-eabi/9.2.1/thumb/v7e-m+dp/hard\libgcc.a(_udivmoddi4.o)
 .ARM.attributes
                0x000011ba       0x1e f:/prosoft/gcc_arm_none/2019q4/9 2019-q4-major/bin/../lib/gcc/arm-none-eabi/9.2.1/thumb/v7e-m+dp/hard\libgcc.a(_dvmd_tls.o)
 .ARM.attributes
                0x000011d8       0x32 f:/prosoft/gcc_arm_none/2019q4/9 2019-q4-major/bin/../lib/gcc/arm-none-eabi/9.2.1/../../../../arm-none-eabi/lib/thumb/v7e-m+dp/hard\libc_nano.a(lib_a-errno.o)
 .ARM.attributes
                0x0000120a       0x1e f:/prosoft/gcc_arm_none/2019q4/9 2019-q4-major/bin/../lib/gcc/arm-none-eabi/9.2.1/thumb/v7e-m+dp/hard/crtn.o
OUTPUT(build/dog.elf elf32-littlearm)

.debug_info     0x00000000    0x34577
 .debug_info    0x00000000      0xa29 build/bsp_i2c.o
 .debug_info    0x00000a29     0x247e build/inv_mpu_dmp_motion_driver.o
 .debug_info    0x00002ea7     0x38a5 build/inv_mpu.o
 .debug_info    0x0000674c     0x1247 build/mpu6050.o
 .debug_info    0x00007993     0x165d build/attitude.o
 .debug_info    0x00008ff0     0x161b build/attitude_task.o
 .debug_info    0x0000a60b      0x86b build/printf_redefine.o
 .debug_info    0x0000ae76     0x1cfd build/main.o
 .debug_info    0x0000cb73      0x60d build/gpio.o
 .debug_info    0x0000d180     0x14eb build/freertos.o
 .debug_info    0x0000e66b      0xcec build/i2c.o
 .debug_info    0x0000f357      0xd12 build/usart.o
 .debug_info    0x00010069      0x854 build/stm32f7xx_it.o
 .debug_info    0x000108bd      0x710 build/stm32f7xx_hal_msp.o
 .debug_info    0x00010fcd      0xecd build/stm32f7xx_hal_timebase_tim.o
 .debug_info    0x00011e9a     0x14fc build/stm32f7xx_hal_cortex.o
 .debug_info    0x00013396      0xd75 build/stm32f7xx_hal_rcc.o
 .debug_info    0x0001410b      0xa69 build/stm32f7xx_hal_rcc_ex.o
 .debug_info    0x00014b74      0x958 build/stm32f7xx_hal_gpio.o
 .debug_info    0x000154cc      0xbfd build/stm32f7xx_hal_pwr_ex.o
 .debug_info    0x000160c9      0xc7b build/stm32f7xx_hal.o
 .debug_info    0x00016d44     0x4162 build/stm32f7xx_hal_i2c.o
 .debug_info    0x0001aea6      0xbac build/stm32f7xx_hal_i2c_ex.o
 .debug_info    0x0001ba52     0x3b4b build/stm32f7xx_hal_tim.o
 .debug_info    0x0001f59d     0x1aa0 build/stm32f7xx_hal_tim_ex.o
 .debug_info    0x0002103d     0x220a build/stm32f7xx_hal_uart.o
 .debug_info    0x00023247      0x88b build/system_stm32f7xx.o
 .debug_info    0x00023ad2      0xca4 build/list.o
 .debug_info    0x00024776     0x32c1 build/queue.o
 .debug_info    0x00027a37     0x3bac build/tasks.o
 .debug_info    0x0002b5e3     0x24b5 build/timers.o
 .debug_info    0x0002da98     0x5705 build/cmsis_os2.o
 .debug_info    0x0003319d      0xe30 build/heap_4.o
 .debug_info    0x00033fcd      0x588 build/port.o
 .debug_info    0x00034555       0x22 build/startup_stm32f767xx.o

.debug_abbrev   0x00000000     0x59f2
 .debug_abbrev  0x00000000      0x1ea build/bsp_i2c.o
 .debug_abbrev  0x000001ea      0x368 build/inv_mpu_dmp_motion_driver.o
 .debug_abbrev  0x00000552      0x3ad build/inv_mpu.o
 .debug_abbrev  0x000008ff      0x2fa build/mpu6050.o
 .debug_abbrev  0x00000bf9      0x2c0 build/attitude.o
 .debug_abbrev  0x00000eb9      0x2c0 build/attitude_task.o
 .debug_abbrev  0x00001179      0x19f build/printf_redefine.o
 .debug_abbrev  0x00001318      0x2c6 build/main.o
 .debug_abbrev  0x000015de      0x17e build/gpio.o
 .debug_abbrev  0x0000175c      0x28a build/freertos.o
 .debug_abbrev  0x000019e6      0x1fc build/i2c.o
 .debug_abbrev  0x00001be2      0x1f1 build/usart.o
 .debug_abbrev  0x00001dd3      0x196 build/stm32f7xx_it.o
 .debug_abbrev  0x00001f69      0x149 build/stm32f7xx_hal_msp.o
 .debug_abbrev  0x000020b2      0x21c build/stm32f7xx_hal_timebase_tim.o
 .debug_abbrev  0x000022ce      0x3a8 build/stm32f7xx_hal_cortex.o
 .debug_abbrev  0x00002676      0x2f5 build/stm32f7xx_hal_rcc.o
 .debug_abbrev  0x0000296b      0x203 build/stm32f7xx_hal_rcc_ex.o
 .debug_abbrev  0x00002b6e      0x258 build/stm32f7xx_hal_gpio.o
 .debug_abbrev  0x00002dc6      0x1de build/stm32f7xx_hal_pwr_ex.o
 .debug_abbrev  0x00002fa4      0x21c build/stm32f7xx_hal.o
 .debug_abbrev  0x000031c0      0x2fc build/stm32f7xx_hal_i2c.o
 .debug_abbrev  0x000034bc      0x1e2 build/stm32f7xx_hal_i2c_ex.o
 .debug_abbrev  0x0000369e      0x2af build/stm32f7xx_hal_tim.o
 .debug_abbrev  0x0000394d      0x2ab build/stm32f7xx_hal_tim_ex.o
 .debug_abbrev  0x00003bf8      0x2ac build/stm32f7xx_hal_uart.o
 .debug_abbrev  0x00003ea4      0x159 build/system_stm32f7xx.o
 .debug_abbrev  0x00003ffd      0x245 build/list.o
 .debug_abbrev  0x00004242      0x44c build/queue.o
 .debug_abbrev  0x0000468e      0x464 build/tasks.o
 .debug_abbrev  0x00004af2      0x3de build/timers.o
 .debug_abbrev  0x00004ed0      0x4ee build/cmsis_os2.o
 .debug_abbrev  0x000053be      0x36d build/heap_4.o
 .debug_abbrev  0x0000572b      0x2b5 build/port.o
 .debug_abbrev  0x000059e0       0x12 build/startup_stm32f767xx.o

.debug_loc      0x00000000    0x1fdc1
 .debug_loc     0x00000000      0x2a2 build/bsp_i2c.o
 .debug_loc     0x000002a2      0xe60 build/inv_mpu_dmp_motion_driver.o
 .debug_loc     0x00001102     0x2367 build/inv_mpu.o
 .debug_loc     0x00003469      0x551 build/mpu6050.o
 .debug_loc     0x000039ba      0x19b build/attitude.o
 .debug_loc     0x00003b55       0xc9 build/attitude_task.o
 .debug_loc     0x00003c1e       0x99 build/printf_redefine.o
 .debug_loc     0x00003cb7      0x13d build/main.o
 .debug_loc     0x00003df4       0x38 build/gpio.o
 .debug_loc     0x00003e2c       0x65 build/freertos.o
 .debug_loc     0x00003e91      0x108 build/i2c.o
 .debug_loc     0x00003f99      0x108 build/usart.o
 .debug_loc     0x000040a1       0x20 build/stm32f7xx_it.o
 .debug_loc     0x000040c1       0x38 build/stm32f7xx_hal_msp.o
 .debug_loc     0x000040f9       0xcd build/stm32f7xx_hal_timebase_tim.o
 .debug_loc     0x000041c6      0x7c4 build/stm32f7xx_hal_cortex.o
 .debug_loc     0x0000498a      0x7f0 build/stm32f7xx_hal_rcc.o
 .debug_loc     0x0000517a      0x973 build/stm32f7xx_hal_rcc_ex.o
 .debug_loc     0x00005aed      0x5d4 build/stm32f7xx_hal_gpio.o
 .debug_loc     0x000060c1      0x3ca build/stm32f7xx_hal_pwr_ex.o
 .debug_loc     0x0000648b      0x1e1 build/stm32f7xx_hal.o
 .debug_loc     0x0000666c     0x4e3a build/stm32f7xx_hal_i2c.o
 .debug_loc     0x0000b4a6      0x19c build/stm32f7xx_hal_i2c_ex.o
 .debug_loc     0x0000b642     0x48a7 build/stm32f7xx_hal_tim.o
 .debug_loc     0x0000fee9     0x1c1f build/stm32f7xx_hal_tim_ex.o
 .debug_loc     0x00011b08     0x20d7 build/stm32f7xx_hal_uart.o
 .debug_loc     0x00013bdf      0x16c build/system_stm32f7xx.o
 .debug_loc     0x00013d4b       0xe5 build/list.o
 .debug_loc     0x00013e30     0x1fdc build/queue.o
 .debug_loc     0x00015e0c     0x2bd0 build/tasks.o
 .debug_loc     0x000189dc     0x13e4 build/timers.o
 .debug_loc     0x00019dc0     0x5ad0 build/cmsis_os2.o
 .debug_loc     0x0001f890      0x3b5 build/heap_4.o
 .debug_loc     0x0001fc45      0x17c build/port.o

.debug_aranges  0x00000000     0x1a50
 .debug_aranges
                0x00000000       0x30 build/bsp_i2c.o
 .debug_aranges
                0x00000030       0xf8 build/inv_mpu_dmp_motion_driver.o
 .debug_aranges
                0x00000128      0x1a8 build/inv_mpu.o
 .debug_aranges
                0x000002d0       0x68 build/mpu6050.o
 .debug_aranges
                0x00000338       0x30 build/attitude.o
 .debug_aranges
                0x00000368       0x30 build/attitude_task.o
 .debug_aranges
                0x00000398       0x20 build/printf_redefine.o
 .debug_aranges
                0x000003b8       0x38 build/main.o
 .debug_aranges
                0x000003f0       0x20 build/gpio.o
 .debug_aranges
                0x00000410       0x28 build/freertos.o
 .debug_aranges
                0x00000438       0x30 build/i2c.o
 .debug_aranges
                0x00000468       0x30 build/usart.o
 .debug_aranges
                0x00000498       0x50 build/stm32f7xx_it.o
 .debug_aranges
                0x000004e8       0x20 build/stm32f7xx_hal_msp.o
 .debug_aranges
                0x00000508       0x30 build/stm32f7xx_hal_timebase_tim.o
 .debug_aranges
                0x00000538       0xa8 build/stm32f7xx_hal_cortex.o
 .debug_aranges
                0x000005e0       0x88 build/stm32f7xx_hal_rcc.o
 .debug_aranges
                0x00000668       0x50 build/stm32f7xx_hal_rcc_ex.o
 .debug_aranges
                0x000006b8       0x58 build/stm32f7xx_hal_gpio.o
 .debug_aranges
                0x00000710       0x80 build/stm32f7xx_hal_pwr_ex.o
 .debug_aranges
                0x00000790      0x110 build/stm32f7xx_hal.o
 .debug_aranges
                0x000008a0      0x288 build/stm32f7xx_hal_i2c.o
 .debug_aranges
                0x00000b28       0x38 build/stm32f7xx_hal_i2c_ex.o
 .debug_aranges
                0x00000b60      0x3b8 build/stm32f7xx_hal_tim.o
 .debug_aranges
                0x00000f18      0x168 build/stm32f7xx_hal_tim_ex.o
 .debug_aranges
                0x00001080      0x218 build/stm32f7xx_hal_uart.o
 .debug_aranges
                0x00001298       0x28 build/system_stm32f7xx.o
 .debug_aranges
                0x000012c0       0x40 build/list.o
 .debug_aranges
                0x00001300      0x158 build/queue.o
 .debug_aranges
                0x00001458      0x1f8 build/tasks.o
 .debug_aranges
                0x00001650       0xe8 build/timers.o
 .debug_aranges
                0x00001738      0x220 build/cmsis_os2.o
 .debug_aranges
                0x00001958       0x50 build/heap_4.o
 .debug_aranges
                0x000019a8       0x80 build/port.o
 .debug_aranges
                0x00001a28       0x28 build/startup_stm32f767xx.o

.debug_ranges   0x00000000     0x1a98
 .debug_ranges  0x00000000       0x20 build/bsp_i2c.o
 .debug_ranges  0x00000020       0xe8 build/inv_mpu_dmp_motion_driver.o
 .debug_ranges  0x00000108      0x1b0 build/inv_mpu.o
 .debug_ranges  0x000002b8       0x58 build/mpu6050.o
 .debug_ranges  0x00000310       0x20 build/attitude.o
 .debug_ranges  0x00000330       0x20 build/attitude_task.o
 .debug_ranges  0x00000350       0x10 build/printf_redefine.o
 .debug_ranges  0x00000360       0x28 build/main.o
 .debug_ranges  0x00000388       0x10 build/gpio.o
 .debug_ranges  0x00000398       0x18 build/freertos.o
 .debug_ranges  0x000003b0       0x20 build/i2c.o
 .debug_ranges  0x000003d0       0x20 build/usart.o
 .debug_ranges  0x000003f0       0x40 build/stm32f7xx_it.o
 .debug_ranges  0x00000430       0x10 build/stm32f7xx_hal_msp.o
 .debug_ranges  0x00000440       0x20 build/stm32f7xx_hal_timebase_tim.o
 .debug_ranges  0x00000460       0xf8 build/stm32f7xx_hal_cortex.o
 .debug_ranges  0x00000558       0x78 build/stm32f7xx_hal_rcc.o
 .debug_ranges  0x000005d0       0x40 build/stm32f7xx_hal_rcc_ex.o
 .debug_ranges  0x00000610       0x48 build/stm32f7xx_hal_gpio.o
 .debug_ranges  0x00000658       0x70 build/stm32f7xx_hal_pwr_ex.o
 .debug_ranges  0x000006c8      0x100 build/stm32f7xx_hal.o
 .debug_ranges  0x000007c8      0x278 build/stm32f7xx_hal_i2c.o
 .debug_ranges  0x00000a40       0x28 build/stm32f7xx_hal_i2c_ex.o
 .debug_ranges  0x00000a68      0x3a8 build/stm32f7xx_hal_tim.o
 .debug_ranges  0x00000e10      0x158 build/stm32f7xx_hal_tim_ex.o
 .debug_ranges  0x00000f68      0x208 build/stm32f7xx_hal_uart.o
 .debug_ranges  0x00001170       0x18 build/system_stm32f7xx.o
 .debug_ranges  0x00001188       0x30 build/list.o
 .debug_ranges  0x000011b8      0x200 build/queue.o
 .debug_ranges  0x000013b8      0x328 build/tasks.o
 .debug_ranges  0x000016e0       0xd8 build/timers.o
 .debug_ranges  0x000017b8      0x210 build/cmsis_os2.o
 .debug_ranges  0x000019c8       0x40 build/heap_4.o
 .debug_ranges  0x00001a08       0x70 build/port.o
 .debug_ranges  0x00001a78       0x20 build/startup_stm32f767xx.o

.debug_line     0x00000000    0x1ed3b
 .debug_line    0x00000000      0x2e6 build/bsp_i2c.o
 .debug_line    0x000002e6     0x11b1 build/inv_mpu_dmp_motion_driver.o
 .debug_line    0x00001497     0x24fe build/inv_mpu.o
 .debug_line    0x00003995      0x6dc build/mpu6050.o
 .debug_line    0x00004071      0x424 build/attitude.o
 .debug_line    0x00004495      0x441 build/attitude_task.o
 .debug_line    0x000048d6      0x21b build/printf_redefine.o
 .debug_line    0x00004af1      0x557 build/main.o
 .debug_line    0x00005048      0x1fc build/gpio.o
 .debug_line    0x00005244      0x3c4 build/freertos.o
 .debug_line    0x00005608      0x33c build/i2c.o
 .debug_line    0x00005944      0x347 build/usart.o
 .debug_line    0x00005c8b      0x2ab build/stm32f7xx_it.o
 .debug_line    0x00005f36      0x1d7 build/stm32f7xx_hal_msp.o
 .debug_line    0x0000610d      0x2c5 build/stm32f7xx_hal_timebase_tim.o
 .debug_line    0x000063d2      0x799 build/stm32f7xx_hal_cortex.o
 .debug_line    0x00006b6b      0xced build/stm32f7xx_hal_rcc.o
 .debug_line    0x00007858      0xc51 build/stm32f7xx_hal_rcc_ex.o
 .debug_line    0x000084a9      0x724 build/stm32f7xx_hal_gpio.o
 .debug_line    0x00008bcd      0x567 build/stm32f7xx_hal_pwr_ex.o
 .debug_line    0x00009134      0x5b7 build/stm32f7xx_hal.o
 .debug_line    0x000096eb     0x4743 build/stm32f7xx_hal_i2c.o
 .debug_line    0x0000de2e      0x3c6 build/stm32f7xx_hal_i2c_ex.o
 .debug_line    0x0000e1f4     0x37f6 build/stm32f7xx_hal_tim.o
 .debug_line    0x000119ea     0x1408 build/stm32f7xx_hal_tim_ex.o
 .debug_line    0x00012df2     0x21ac build/stm32f7xx_hal_uart.o
 .debug_line    0x00014f9e      0x27f build/system_stm32f7xx.o
 .debug_line    0x0001521d      0x43e build/list.o
 .debug_line    0x0001565b     0x20a4 build/queue.o
 .debug_line    0x000176ff     0x2cc8 build/tasks.o
 .debug_line    0x0001a3c7      0xf18 build/timers.o
 .debug_line    0x0001b2df     0x2cf5 build/cmsis_os2.o
 .debug_line    0x0001dfd4      0x6bc build/heap_4.o
 .debug_line    0x0001e690      0x638 build/port.o
 .debug_line    0x0001ecc8       0x73 build/startup_stm32f767xx.o

.debug_str      0x00000000     0x91c0
 .debug_str     0x00000000      0x7b8 build/bsp_i2c.o
                                0x891 (size before relaxing)
 .debug_str     0x000007b8      0x868 build/inv_mpu_dmp_motion_driver.o
                               0x1119 (size before relaxing)
 .debug_str     0x00001020      0x8e5 build/inv_mpu.o
                               0x1699 (size before relaxing)
 .debug_str     0x00001905      0x168 build/mpu6050.o
                                0xae5 (size before relaxing)
 .debug_str     0x00001a6d       0xb6 build/attitude.o
                                0xd97 (size before relaxing)
 .debug_str     0x00001b23      0x118 build/attitude_task.o
                                0xe32 (size before relaxing)
 .debug_str     0x00001c3b      0x1fe build/printf_redefine.o
                                0x700 (size before relaxing)
 .debug_str     0x00001e39      0x973 build/main.o
                               0x1329 (size before relaxing)
 .debug_str     0x000027ac       0xaf build/gpio.o
                                0x460 (size before relaxing)
 .debug_str     0x0000285b      0x4cd build/freertos.o
                               0x1157 (size before relaxing)
 .debug_str     0x00002d28       0x8e build/i2c.o
                                0x9e3 (size before relaxing)
 .debug_str     0x00002db6       0x49 build/usart.o
                                0x8df (size before relaxing)
 .debug_str     0x00002dff       0xaa build/stm32f7xx_it.o
                                0x77b (size before relaxing)
 .debug_str     0x00002ea9      0x678 build/stm32f7xx_hal_msp.o
                                0xa03 (size before relaxing)
 .debug_str     0x00003521       0xf1 build/stm32f7xx_hal_timebase_tim.o
                                0xfc5 (size before relaxing)
 .debug_str     0x00003612      0x46a build/stm32f7xx_hal_cortex.o
                                0xf03 (size before relaxing)
 .debug_str     0x00003a7c      0x1ab build/stm32f7xx_hal_rcc.o
                                0x7b9 (size before relaxing)
 .debug_str     0x00003c27      0x14c build/stm32f7xx_hal_rcc_ex.o
                                0x803 (size before relaxing)
 .debug_str     0x00003d73      0x120 build/stm32f7xx_hal_gpio.o
                                0x5c7 (size before relaxing)
 .debug_str     0x00003e93      0x1d3 build/stm32f7xx_hal_pwr_ex.o
                                0x716 (size before relaxing)
 .debug_str     0x00004066      0x271 build/stm32f7xx_hal.o
                                0xd7c (size before relaxing)
 .debug_str     0x000042d7      0x850 build/stm32f7xx_hal_i2c.o
                               0x10a6 (size before relaxing)
 .debug_str     0x00004b27       0x86 build/stm32f7xx_hal_i2c_ex.o
                                0x9cb (size before relaxing)
 .debug_str     0x00004bad      0xe17 build/stm32f7xx_hal_tim.o
                               0x1606 (size before relaxing)
 .debug_str     0x000059c4      0x641 build/stm32f7xx_hal_tim_ex.o
                                0xf18 (size before relaxing)
 .debug_str     0x00006005      0x6f6 build/stm32f7xx_hal_uart.o
                               0x101d (size before relaxing)
 .debug_str     0x000066fb       0x42 build/system_stm32f7xx.o
                                0x4f4 (size before relaxing)
 .debug_str     0x0000673d      0x141 build/list.o
                                0x6f6 (size before relaxing)
 .debug_str     0x0000687e      0x994 build/queue.o
                               0x10f2 (size before relaxing)
 .debug_str     0x00007212      0xc11 build/tasks.o
                               0x1696 (size before relaxing)
 .debug_str     0x00007e23      0x5c3 build/timers.o
                               0x101e (size before relaxing)
 .debug_str     0x000083e6      0xa50 build/cmsis_os2.o
                               0x1d2e (size before relaxing)
 .debug_str     0x00008e36      0x1d5 build/heap_4.o
                                0x7df (size before relaxing)
 .debug_str     0x0000900b      0x191 build/port.o
                                0x480 (size before relaxing)
 .debug_str     0x0000919c       0x24 build/startup_stm32f767xx.o
                                 0x46 (size before relaxing)

.comment        0x00000000       0x79
 .comment       0x00000000       0x79 build/bsp_i2c.o
                                 0x7a (size before relaxing)
 .comment       0x00000079       0x7a build/inv_mpu_dmp_motion_driver.o
 .comment       0x00000079       0x7a build/inv_mpu.o
 .comment       0x00000079       0x7a build/mpu6050.o
 .comment       0x00000079       0x7a build/attitude.o
 .comment       0x00000079       0x7a build/attitude_task.o
 .comment       0x00000079       0x7a build/printf_redefine.o
 .comment       0x00000079       0x7a build/main.o
 .comment       0x00000079       0x7a build/gpio.o
 .comment       0x00000079       0x7a build/freertos.o
 .comment       0x00000079       0x7a build/i2c.o
 .comment       0x00000079       0x7a build/usart.o
 .comment       0x00000079       0x7a build/stm32f7xx_it.o
 .comment       0x00000079       0x7a build/stm32f7xx_hal_msp.o
 .comment       0x00000079       0x7a build/stm32f7xx_hal_timebase_tim.o
 .comment       0x00000079       0x7a build/stm32f7xx_hal_cortex.o
 .comment       0x00000079       0x7a build/stm32f7xx_hal_rcc.o
 .comment       0x00000079       0x7a build/stm32f7xx_hal_rcc_ex.o
 .comment       0x00000079       0x7a build/stm32f7xx_hal_gpio.o
 .comment       0x00000079       0x7a build/stm32f7xx_hal_pwr_ex.o
 .comment       0x00000079       0x7a build/stm32f7xx_hal.o
 .comment       0x00000079       0x7a build/stm32f7xx_hal_i2c.o
 .comment       0x00000079       0x7a build/stm32f7xx_hal_i2c_ex.o
 .comment       0x00000079       0x7a build/stm32f7xx_hal_tim.o
 .comment       0x00000079       0x7a build/stm32f7xx_hal_tim_ex.o
 .comment       0x00000079       0x7a build/stm32f7xx_hal_uart.o
 .comment       0x00000079       0x7a build/system_stm32f7xx.o
 .comment       0x00000079       0x7a build/list.o
 .comment       0x00000079       0x7a build/queue.o
 .comment       0x00000079       0x7a build/tasks.o
 .comment       0x00000079       0x7a build/timers.o
 .comment       0x00000079       0x7a build/cmsis_os2.o
 .comment       0x00000079       0x7a build/heap_4.o
 .comment       0x00000079       0x7a build/port.o

.debug_frame    0x00000000     0x6680
 .debug_frame   0x00000000       0x84 build/bsp_i2c.o
 .debug_frame   0x00000084      0x3cc build/inv_mpu_dmp_motion_driver.o
 .debug_frame   0x00000450      0x708 build/inv_mpu.o
 .debug_frame   0x00000b58      0x13c build/mpu6050.o
 .debug_frame   0x00000c94       0xd4 build/attitude.o
 .debug_frame   0x00000d68       0x64 build/attitude_task.o
 .debug_frame   0x00000dcc       0x2c build/printf_redefine.o
 .debug_frame   0x00000df8       0x7c build/main.o
 .debug_frame   0x00000e74       0x34 build/gpio.o
 .debug_frame   0x00000ea8       0x48 build/freertos.o
 .debug_frame   0x00000ef0       0x6c build/i2c.o
 .debug_frame   0x00000f5c       0x74 build/usart.o
 .debug_frame   0x00000fd0       0x8c build/stm32f7xx_it.o
 .debug_frame   0x0000105c       0x2c build/stm32f7xx_hal_msp.o
 .debug_frame   0x00001088       0x50 build/stm32f7xx_hal_timebase_tim.o
 .debug_frame   0x000010d8      0x16c build/stm32f7xx_hal_cortex.o
 .debug_frame   0x00001244      0x1bc build/stm32f7xx_hal_rcc.o
 .debug_frame   0x00001400       0xe8 build/stm32f7xx_hal_rcc_ex.o
 .debug_frame   0x000014e8       0xf0 build/stm32f7xx_hal_gpio.o
 .debug_frame   0x000015d8      0x150 build/stm32f7xx_hal_pwr_ex.o
 .debug_frame   0x00001728      0x240 build/stm32f7xx_hal.o
 .debug_frame   0x00001968      0xa7c build/stm32f7xx_hal_i2c.o
 .debug_frame   0x000023e4       0x60 build/stm32f7xx_hal_i2c_ex.o
 .debug_frame   0x00002444      0xc60 build/stm32f7xx_hal_tim.o
 .debug_frame   0x000030a4      0x49c build/stm32f7xx_hal_tim_ex.o
 .debug_frame   0x00003540      0x684 build/stm32f7xx_hal_uart.o
 .debug_frame   0x00003bc4       0x30 build/system_stm32f7xx.o
 .debug_frame   0x00003bf4       0x74 build/list.o
 .debug_frame   0x00003c68      0x4f8 build/queue.o
 .debug_frame   0x00004160      0x748 build/tasks.o
 .debug_frame   0x000048a8      0x344 build/timers.o
 .debug_frame   0x00004bec      0x8b4 build/cmsis_os2.o
 .debug_frame   0x000054a0       0xbc build/heap_4.o
 .debug_frame   0x0000555c      0x104 build/port.o
 .debug_frame   0x00005660       0x2c f:/prosoft/gcc_arm_none/2019q4/9 2019-q4-major/bin/../lib/gcc/arm-none-eabi/9.2.1/../../../../arm-none-eabi/lib/thumb/v7e-m+dp/hard\libc_nano.a(lib_a-init.o)
 .debug_frame   0x0000568c       0x28 f:/prosoft/gcc_arm_none/2019q4/9 2019-q4-major/bin/../lib/gcc/arm-none-eabi/9.2.1/../../../../arm-none-eabi/lib/thumb/v7e-m+dp/hard\libc_nano.a(lib_a-memcpy-stub.o)
 .debug_frame   0x000056b4       0x20 f:/prosoft/gcc_arm_none/2019q4/9 2019-q4-major/bin/../lib/gcc/arm-none-eabi/9.2.1/../../../../arm-none-eabi/lib/thumb/v7e-m+dp/hard\libc_nano.a(lib_a-memset.o)
 .debug_frame   0x000056d4       0x9c f:/prosoft/gcc_arm_none/2019q4/9 2019-q4-major/bin/../lib/gcc/arm-none-eabi/9.2.1/../../../../arm-none-eabi/lib/thumb/v7e-m+dp/hard\libc_nano.a(lib_a-nano-vfprintf_float.o)
 .debug_frame   0x00005770       0x60 f:/prosoft/gcc_arm_none/2019q4/9 2019-q4-major/bin/../lib/gcc/arm-none-eabi/9.2.1/../../../../arm-none-eabi/lib/thumb/v7e-m+dp/hard\libc_nano.a(lib_a-nano-vfprintf_i.o)
 .debug_frame   0x000057d0       0x74 f:/prosoft/gcc_arm_none/2019q4/9 2019-q4-major/bin/../lib/gcc/arm-none-eabi/9.2.1/../../../../arm-none-eabi/lib/thumb/v7e-m+dp/hard\libc_nano.a(lib_a-printf.o)
 .debug_frame   0x00005844       0x6c f:/prosoft/gcc_arm_none/2019q4/9 2019-q4-major/bin/../lib/gcc/arm-none-eabi/9.2.1/../../../../arm-none-eabi/lib/thumb/v7e-m+dp/hard\libc_nano.a(lib_a-dtoa.o)
 .debug_frame   0x000058b0      0x14c f:/prosoft/gcc_arm_none/2019q4/9 2019-q4-major/bin/../lib/gcc/arm-none-eabi/9.2.1/../../../../arm-none-eabi/lib/thumb/v7e-m+dp/hard\libc_nano.a(lib_a-findfp.o)
 .debug_frame   0x000059fc       0x54 f:/prosoft/gcc_arm_none/2019q4/9 2019-q4-major/bin/../lib/gcc/arm-none-eabi/9.2.1/../../../../arm-none-eabi/lib/thumb/v7e-m+dp/hard\libc_nano.a(lib_a-fwalk.o)
 .debug_frame   0x00005a50       0x40 f:/prosoft/gcc_arm_none/2019q4/9 2019-q4-major/bin/../lib/gcc/arm-none-eabi/9.2.1/../../../../arm-none-eabi/lib/thumb/v7e-m+dp/hard\libc_nano.a(lib_a-localeconv.o)
 .debug_frame   0x00005a90       0xb0 f:/prosoft/gcc_arm_none/2019q4/9 2019-q4-major/bin/../lib/gcc/arm-none-eabi/9.2.1/../../../../arm-none-eabi/lib/thumb/v7e-m+dp/hard\libc_nano.a(lib_a-lock.o)
 .debug_frame   0x00005b40       0x30 f:/prosoft/gcc_arm_none/2019q4/9 2019-q4-major/bin/../lib/gcc/arm-none-eabi/9.2.1/../../../../arm-none-eabi/lib/thumb/v7e-m+dp/hard\libc_nano.a(lib_a-malloc.o)
 .debug_frame   0x00005b70      0x250 f:/prosoft/gcc_arm_none/2019q4/9 2019-q4-major/bin/../lib/gcc/arm-none-eabi/9.2.1/../../../../arm-none-eabi/lib/thumb/v7e-m+dp/hard\libc_nano.a(lib_a-mprec.o)
 .debug_frame   0x00005dc0       0x2c f:/prosoft/gcc_arm_none/2019q4/9 2019-q4-major/bin/../lib/gcc/arm-none-eabi/9.2.1/../../../../arm-none-eabi/lib/thumb/v7e-m+dp/hard\libc_nano.a(lib_a-nano-callocr.o)
 .debug_frame   0x00005dec       0x38 f:/prosoft/gcc_arm_none/2019q4/9 2019-q4-major/bin/../lib/gcc/arm-none-eabi/9.2.1/../../../../arm-none-eabi/lib/thumb/v7e-m+dp/hard\libc_nano.a(lib_a-nano-freer.o)
 .debug_frame   0x00005e24       0x30 f:/prosoft/gcc_arm_none/2019q4/9 2019-q4-major/bin/../lib/gcc/arm-none-eabi/9.2.1/../../../../arm-none-eabi/lib/thumb/v7e-m+dp/hard\libc_nano.a(lib_a-nano-mallocr.o)
 .debug_frame   0x00005e54       0xac f:/prosoft/gcc_arm_none/2019q4/9 2019-q4-major/bin/../lib/gcc/arm-none-eabi/9.2.1/../../../../arm-none-eabi/lib/thumb/v7e-m+dp/hard\libc_nano.a(lib_a-nano-vfprintf.o)
 .debug_frame   0x00005f00       0x2c f:/prosoft/gcc_arm_none/2019q4/9 2019-q4-major/bin/../lib/gcc/arm-none-eabi/9.2.1/../../../../arm-none-eabi/lib/thumb/v7e-m+dp/hard\libc_nano.a(lib_a-sbrkr.o)
 .debug_frame   0x00005f2c       0x88 f:/prosoft/gcc_arm_none/2019q4/9 2019-q4-major/bin/../lib/gcc/arm-none-eabi/9.2.1/../../../../arm-none-eabi/lib/thumb/v7e-m+dp/hard\libc_nano.a(lib_a-stdio.o)
 .debug_frame   0x00005fb4       0x40 f:/prosoft/gcc_arm_none/2019q4/9 2019-q4-major/bin/../lib/gcc/arm-none-eabi/9.2.1/../../../../arm-none-eabi/lib/thumb/v7e-m+dp/hard\libc_nano.a(lib_a-wbuf.o)
 .debug_frame   0x00005ff4       0x2c f:/prosoft/gcc_arm_none/2019q4/9 2019-q4-major/bin/../lib/gcc/arm-none-eabi/9.2.1/../../../../arm-none-eabi/lib/thumb/v7e-m+dp/hard\libc_nano.a(lib_a-writer.o)
 .debug_frame   0x00006020       0x2c f:/prosoft/gcc_arm_none/2019q4/9 2019-q4-major/bin/../lib/gcc/arm-none-eabi/9.2.1/../../../../arm-none-eabi/lib/thumb/v7e-m+dp/hard\libc_nano.a(lib_a-wsetup.o)
 .debug_frame   0x0000604c       0x2c f:/prosoft/gcc_arm_none/2019q4/9 2019-q4-major/bin/../lib/gcc/arm-none-eabi/9.2.1/../../../../arm-none-eabi/lib/thumb/v7e-m+dp/hard\libc_nano.a(lib_a-closer.o)
 .debug_frame   0x00006078       0x5c f:/prosoft/gcc_arm_none/2019q4/9 2019-q4-major/bin/../lib/gcc/arm-none-eabi/9.2.1/../../../../arm-none-eabi/lib/thumb/v7e-m+dp/hard\libc_nano.a(lib_a-fflush.o)
 .debug_frame   0x000060d4       0x48 f:/prosoft/gcc_arm_none/2019q4/9 2019-q4-major/bin/../lib/gcc/arm-none-eabi/9.2.1/../../../../arm-none-eabi/lib/thumb/v7e-m+dp/hard\libc_nano.a(lib_a-locale.o)
 .debug_frame   0x0000611c       0x2c f:/prosoft/gcc_arm_none/2019q4/9 2019-q4-major/bin/../lib/gcc/arm-none-eabi/9.2.1/../../../../arm-none-eabi/lib/thumb/v7e-m+dp/hard\libc_nano.a(lib_a-lseekr.o)
 .debug_frame   0x00006148       0x58 f:/prosoft/gcc_arm_none/2019q4/9 2019-q4-major/bin/../lib/gcc/arm-none-eabi/9.2.1/../../../../arm-none-eabi/lib/thumb/v7e-m+dp/hard\libc_nano.a(lib_a-makebuf.o)
 .debug_frame   0x000061a0       0x48 f:/prosoft/gcc_arm_none/2019q4/9 2019-q4-major/bin/../lib/gcc/arm-none-eabi/9.2.1/../../../../arm-none-eabi/lib/thumb/v7e-m+dp/hard\libc_nano.a(lib_a-mbtowc_r.o)
 .debug_frame   0x000061e8       0x30 f:/prosoft/gcc_arm_none/2019q4/9 2019-q4-major/bin/../lib/gcc/arm-none-eabi/9.2.1/../../../../arm-none-eabi/lib/thumb/v7e-m+dp/hard\libc_nano.a(lib_a-mlock.o)
 .debug_frame   0x00006218       0x2c f:/prosoft/gcc_arm_none/2019q4/9 2019-q4-major/bin/../lib/gcc/arm-none-eabi/9.2.1/../../../../arm-none-eabi/lib/thumb/v7e-m+dp/hard\libc_nano.a(lib_a-readr.o)
 .debug_frame   0x00006244       0x5c f:/prosoft/gcc_arm_none/2019q4/9 2019-q4-major/bin/../lib/gcc/arm-none-eabi/9.2.1/../../../../arm-none-eabi/lib/thumb/v7e-m+dp/hard\libc_nano.a(lib_a-reent.o)
 .debug_frame   0x000062a0       0x3c f:/prosoft/gcc_arm_none/2019q4/9 2019-q4-major/bin/../lib/gcc/arm-none-eabi/9.2.1/../../../../arm-none-eabi/lib/thumb/v7e-m+dp/hard\libc_nano.a(lib_a-wctomb_r.o)
 .debug_frame   0x000062dc       0x2c f:/prosoft/gcc_arm_none/2019q4/9 2019-q4-major/bin/../lib/gcc/arm-none-eabi/9.2.1/../../../../arm-none-eabi/lib/thumb/v7e-m+dp/hard\libc_nano.a(lib_a-fstatr.o)
 .debug_frame   0x00006308       0x2c f:/prosoft/gcc_arm_none/2019q4/9 2019-q4-major/bin/../lib/gcc/arm-none-eabi/9.2.1/../../../../arm-none-eabi/lib/thumb/v7e-m+dp/hard\libc_nano.a(lib_a-isattyr.o)
 .debug_frame   0x00006334       0x5c f:/prosoft/gcc_arm_none/2019q4/9 2019-q4-major/bin/../lib/gcc/arm-none-eabi/9.2.1/../../../../arm-none-eabi/lib/thumb/v7e-m+dp/hard\libm.a(lib_a-w_asin.o)
 .debug_frame   0x00006390       0x20 f:/prosoft/gcc_arm_none/2019q4/9 2019-q4-major/bin/../lib/gcc/arm-none-eabi/9.2.1/../../../../arm-none-eabi/lib/thumb/v7e-m+dp/hard\libm.a(lib_a-w_atan2.o)
 .debug_frame   0x000063b0       0x94 f:/prosoft/gcc_arm_none/2019q4/9 2019-q4-major/bin/../lib/gcc/arm-none-eabi/9.2.1/../../../../arm-none-eabi/lib/thumb/v7e-m+dp/hard\libm.a(lib_a-e_asin.o)
 .debug_frame   0x00006444       0x50 f:/prosoft/gcc_arm_none/2019q4/9 2019-q4-major/bin/../lib/gcc/arm-none-eabi/9.2.1/../../../../arm-none-eabi/lib/thumb/v7e-m+dp/hard\libm.a(lib_a-e_atan2.o)
 .debug_frame   0x00006494       0x20 f:/prosoft/gcc_arm_none/2019q4/9 2019-q4-major/bin/../lib/gcc/arm-none-eabi/9.2.1/../../../../arm-none-eabi/lib/thumb/v7e-m+dp/hard\libm.a(lib_a-e_sqrt.o)
 .debug_frame   0x000064b4       0x2c f:/prosoft/gcc_arm_none/2019q4/9 2019-q4-major/bin/../lib/gcc/arm-none-eabi/9.2.1/../../../../arm-none-eabi/lib/thumb/v7e-m+dp/hard\libm.a(lib_a-s_atan.o)
 .debug_frame   0x000064e0       0x20 f:/prosoft/gcc_arm_none/2019q4/9 2019-q4-major/bin/../lib/gcc/arm-none-eabi/9.2.1/../../../../arm-none-eabi/lib/thumb/v7e-m+dp/hard\libm.a(lib_a-s_fabs.o)
 .debug_frame   0x00006500       0x20 f:/prosoft/gcc_arm_none/2019q4/9 2019-q4-major/bin/../lib/gcc/arm-none-eabi/9.2.1/../../../../arm-none-eabi/lib/thumb/v7e-m+dp/hard\libm.a(lib_a-s_matherr.o)
 .debug_frame   0x00006520       0x20 f:/prosoft/gcc_arm_none/2019q4/9 2019-q4-major/bin/../lib/gcc/arm-none-eabi/9.2.1/../../../../arm-none-eabi/lib/thumb/v7e-m+dp/hard\libm.a(lib_a-s_nan.o)
 .debug_frame   0x00006540       0x20 f:/prosoft/gcc_arm_none/2019q4/9 2019-q4-major/bin/../lib/gcc/arm-none-eabi/9.2.1/../../../../arm-none-eabi/lib/thumb/v7e-m+dp/hard\libnosys.a(close.o)
 .debug_frame   0x00006560       0x20 f:/prosoft/gcc_arm_none/2019q4/9 2019-q4-major/bin/../lib/gcc/arm-none-eabi/9.2.1/../../../../arm-none-eabi/lib/thumb/v7e-m+dp/hard\libnosys.a(fstat.o)
 .debug_frame   0x00006580       0x20 f:/prosoft/gcc_arm_none/2019q4/9 2019-q4-major/bin/../lib/gcc/arm-none-eabi/9.2.1/../../../../arm-none-eabi/lib/thumb/v7e-m+dp/hard\libnosys.a(isatty.o)
 .debug_frame   0x000065a0       0x20 f:/prosoft/gcc_arm_none/2019q4/9 2019-q4-major/bin/../lib/gcc/arm-none-eabi/9.2.1/../../../../arm-none-eabi/lib/thumb/v7e-m+dp/hard\libnosys.a(lseek.o)
 .debug_frame   0x000065c0       0x20 f:/prosoft/gcc_arm_none/2019q4/9 2019-q4-major/bin/../lib/gcc/arm-none-eabi/9.2.1/../../../../arm-none-eabi/lib/thumb/v7e-m+dp/hard\libnosys.a(read.o)
 .debug_frame   0x000065e0       0x20 f:/prosoft/gcc_arm_none/2019q4/9 2019-q4-major/bin/../lib/gcc/arm-none-eabi/9.2.1/../../../../arm-none-eabi/lib/thumb/v7e-m+dp/hard\libnosys.a(sbrk.o)
 .debug_frame   0x00006600       0x2c f:/prosoft/gcc_arm_none/2019q4/9 2019-q4-major/bin/../lib/gcc/arm-none-eabi/9.2.1/thumb/v7e-m+dp/hard\libgcc.a(_aeabi_uldivmod.o)
 .debug_frame   0x0000662c       0x34 f:/prosoft/gcc_arm_none/2019q4/9 2019-q4-major/bin/../lib/gcc/arm-none-eabi/9.2.1/thumb/v7e-m+dp/hard\libgcc.a(_udivmoddi4.o)
 .debug_frame   0x00006660       0x20 f:/prosoft/gcc_arm_none/2019q4/9 2019-q4-major/bin/../lib/gcc/arm-none-eabi/9.2.1/../../../../arm-none-eabi/lib/thumb/v7e-m+dp/hard\libc_nano.a(lib_a-errno.o)

.stab           0x00000000       0x84
 .stab          0x00000000       0x24 f:/prosoft/gcc_arm_none/2019q4/9 2019-q4-major/bin/../lib/gcc/arm-none-eabi/9.2.1/../../../../arm-none-eabi/lib/thumb/v7e-m+dp/hard\libnosys.a(close.o)
 .stab          0x00000024       0x18 f:/prosoft/gcc_arm_none/2019q4/9 2019-q4-major/bin/../lib/gcc/arm-none-eabi/9.2.1/../../../../arm-none-eabi/lib/thumb/v7e-m+dp/hard\libnosys.a(fstat.o)
                                 0x24 (size before relaxing)
 .stab          0x0000003c       0x18 f:/prosoft/gcc_arm_none/2019q4/9 2019-q4-major/bin/../lib/gcc/arm-none-eabi/9.2.1/../../../../arm-none-eabi/lib/thumb/v7e-m+dp/hard\libnosys.a(isatty.o)
                                 0x24 (size before relaxing)
 .stab          0x00000054       0x18 f:/prosoft/gcc_arm_none/2019q4/9 2019-q4-major/bin/../lib/gcc/arm-none-eabi/9.2.1/../../../../arm-none-eabi/lib/thumb/v7e-m+dp/hard\libnosys.a(lseek.o)
                                 0x24 (size before relaxing)
 .stab          0x0000006c       0x18 f:/prosoft/gcc_arm_none/2019q4/9 2019-q4-major/bin/../lib/gcc/arm-none-eabi/9.2.1/../../../../arm-none-eabi/lib/thumb/v7e-m+dp/hard\libnosys.a(read.o)
                                 0x24 (size before relaxing)

.stabstr        0x00000000      0x117
 .stabstr       0x00000000      0x117 f:/prosoft/gcc_arm_none/2019q4/9 2019-q4-major/bin/../lib/gcc/arm-none-eabi/9.2.1/../../../../arm-none-eabi/lib/thumb/v7e-m+dp/hard\libnosys.a(close.o)

Cross Reference Table

Symbol                                            File
ADC_IRQHandler                                    build/startup_stm32f767xx.o
AHBPrescTable                                     build/system_stm32f7xx.o
                                                  build/stm32f7xx_hal_rcc.o
APBPrescTable                                     build/system_stm32f7xx.o
                                                  build/stm32f7xx_hal_rcc.o
AttitudeQueue                                     build/attitude_task.o
AttitudeQueueCreat                                build/attitude_task.o
                                                  build/freertos.o
AttitudeTaskHandle                                build/attitude_task.o
BusFault_Handler                                  build/stm32f7xx_it.o
CAN1_RX0_IRQHandler                               build/startup_stm32f767xx.o
CAN1_RX1_IRQHandler                               build/startup_stm32f767xx.o
CAN1_SCE_IRQHandler                               build/startup_stm32f767xx.o
CAN1_TX_IRQHandler                                build/startup_stm32f767xx.o
CAN2_RX0_IRQHandler                               build/startup_stm32f767xx.o
CAN2_RX1_IRQHandler                               build/startup_stm32f767xx.o
CAN2_SCE_IRQHandler                               build/startup_stm32f767xx.o
CAN2_TX_IRQHandler                                build/startup_stm32f767xx.o
CAN3_RX0_IRQHandler                               build/startup_stm32f767xx.o
CAN3_RX1_IRQHandler                               build/startup_stm32f767xx.o
CAN3_SCE_IRQHandler                               build/startup_stm32f767xx.o
CAN3_TX_IRQHandler                                build/startup_stm32f767xx.o
CEC_IRQHandler                                    build/startup_stm32f767xx.o
DCMI_IRQHandler                                   build/startup_stm32f767xx.o
DFSDM1_FLT0_IRQHandler                            build/startup_stm32f767xx.o
DFSDM1_FLT1_IRQHandler                            build/startup_stm32f767xx.o
DFSDM1_FLT2_IRQHandler                            build/startup_stm32f767xx.o
DFSDM1_FLT3_IRQHandler                            build/startup_stm32f767xx.o
DMA1_Stream0_IRQHandler                           build/startup_stm32f767xx.o
DMA1_Stream1_IRQHandler                           build/startup_stm32f767xx.o
DMA1_Stream2_IRQHandler                           build/startup_stm32f767xx.o
DMA1_Stream3_IRQHandler                           build/startup_stm32f767xx.o
DMA1_Stream4_IRQHandler                           build/startup_stm32f767xx.o
DMA1_Stream5_IRQHandler                           build/startup_stm32f767xx.o
DMA1_Stream6_IRQHandler                           build/startup_stm32f767xx.o
DMA1_Stream7_IRQHandler                           build/startup_stm32f767xx.o
DMA2D_IRQHandler                                  build/startup_stm32f767xx.o
DMA2_Stream0_IRQHandler                           build/startup_stm32f767xx.o
DMA2_Stream1_IRQHandler                           build/startup_stm32f767xx.o
DMA2_Stream2_IRQHandler                           build/startup_stm32f767xx.o
DMA2_Stream3_IRQHandler                           build/startup_stm32f767xx.o
DMA2_Stream4_IRQHandler                           build/startup_stm32f767xx.o
DMA2_Stream5_IRQHandler                           build/startup_stm32f767xx.o
DMA2_Stream6_IRQHandler                           build/startup_stm32f767xx.o
DMA2_Stream7_IRQHandler                           build/startup_stm32f767xx.o
DebugMon_Handler                                  build/stm32f7xx_it.o
Default_Handler                                   build/startup_stm32f767xx.o
ETH_IRQHandler                                    build/startup_stm32f767xx.o
ETH_WKUP_IRQHandler                               build/startup_stm32f767xx.o
EXTI0_IRQHandler                                  build/startup_stm32f767xx.o
EXTI15_10_IRQHandler                              build/startup_stm32f767xx.o
EXTI1_IRQHandler                                  build/startup_stm32f767xx.o
EXTI2_IRQHandler                                  build/startup_stm32f767xx.o
EXTI3_IRQHandler                                  build/startup_stm32f767xx.o
EXTI4_IRQHandler                                  build/startup_stm32f767xx.o
EXTI9_5_IRQHandler                                build/startup_stm32f767xx.o
Error_Handler                                     build/main.o
                                                  build/usart.o
                                                  build/i2c.o
FLASH_Erase_Sector                                build/stm32f7xx_hal_flash_ex.o
                                                  build/stm32f7xx_hal_flash.o
FLASH_IRQHandler                                  build/startup_stm32f767xx.o
FLASH_WaitForLastOperation                        build/stm32f7xx_hal_flash.o
                                                  build/stm32f7xx_hal_flash_ex.o
FMC_IRQHandler                                    build/startup_stm32f767xx.o
FPU_IRQHandler                                    build/startup_stm32f767xx.o
HAL_DBGMCU_DisableDBGSleepMode                    build/stm32f7xx_hal.o
HAL_DBGMCU_DisableDBGStandbyMode                  build/stm32f7xx_hal.o
HAL_DBGMCU_DisableDBGStopMode                     build/stm32f7xx_hal.o
HAL_DBGMCU_EnableDBGSleepMode                     build/stm32f7xx_hal.o
HAL_DBGMCU_EnableDBGStandbyMode                   build/stm32f7xx_hal.o
HAL_DBGMCU_EnableDBGStopMode                      build/stm32f7xx_hal.o
HAL_DMAEx_ChangeMemory                            build/stm32f7xx_hal_dma_ex.o
HAL_DMAEx_MultiBufferStart                        build/stm32f7xx_hal_dma_ex.o
HAL_DMAEx_MultiBufferStart_IT                     build/stm32f7xx_hal_dma_ex.o
HAL_DMA_Abort                                     build/stm32f7xx_hal_dma.o
                                                  build/stm32f7xx_hal_uart.o
HAL_DMA_Abort_IT                                  build/stm32f7xx_hal_dma.o
                                                  build/stm32f7xx_hal_uart.o
                                                  build/stm32f7xx_hal_tim_ex.o
                                                  build/stm32f7xx_hal_tim.o
                                                  build/stm32f7xx_hal_i2c.o
HAL_DMA_DeInit                                    build/stm32f7xx_hal_dma.o
HAL_DMA_GetError                                  build/stm32f7xx_hal_dma.o
                                                  build/stm32f7xx_hal_uart.o
                                                  build/stm32f7xx_hal_i2c.o
HAL_DMA_GetState                                  build/stm32f7xx_hal_dma.o
HAL_DMA_IRQHandler                                build/stm32f7xx_hal_dma.o
HAL_DMA_Init                                      build/stm32f7xx_hal_dma.o
HAL_DMA_PollForTransfer                           build/stm32f7xx_hal_dma.o
HAL_DMA_RegisterCallback                          build/stm32f7xx_hal_dma.o
HAL_DMA_Start                                     build/stm32f7xx_hal_dma.o
HAL_DMA_Start_IT                                  build/stm32f7xx_hal_dma.o
                                                  build/stm32f7xx_hal_uart.o
                                                  build/stm32f7xx_hal_tim_ex.o
                                                  build/stm32f7xx_hal_tim.o
                                                  build/stm32f7xx_hal_i2c.o
HAL_DMA_UnRegisterCallback                        build/stm32f7xx_hal_dma.o
HAL_DeInit                                        build/stm32f7xx_hal.o
HAL_Delay                                         build/stm32f7xx_hal.o
HAL_DisableCompensationCell                       build/stm32f7xx_hal.o
HAL_DisableFMCMemorySwapping                      build/stm32f7xx_hal.o
HAL_DisableMemorySwappingBank                     build/stm32f7xx_hal.o
HAL_EXTI_ClearConfigLine                          build/stm32f7xx_hal_exti.o
HAL_EXTI_ClearPending                             build/stm32f7xx_hal_exti.o
HAL_EXTI_GenerateSWI                              build/stm32f7xx_hal_exti.o
HAL_EXTI_GetConfigLine                            build/stm32f7xx_hal_exti.o
HAL_EXTI_GetHandle                                build/stm32f7xx_hal_exti.o
HAL_EXTI_GetPending                               build/stm32f7xx_hal_exti.o
HAL_EXTI_IRQHandler                               build/stm32f7xx_hal_exti.o
HAL_EXTI_RegisterCallback                         build/stm32f7xx_hal_exti.o
HAL_EXTI_SetConfigLine                            build/stm32f7xx_hal_exti.o
HAL_EnableCompensationCell                        build/stm32f7xx_hal.o
HAL_EnableFMCMemorySwapping                       build/stm32f7xx_hal.o
HAL_EnableMemorySwappingBank                      build/stm32f7xx_hal.o
HAL_FLASHEx_Erase                                 build/stm32f7xx_hal_flash_ex.o
HAL_FLASHEx_Erase_IT                              build/stm32f7xx_hal_flash_ex.o
HAL_FLASHEx_OBGetConfig                           build/stm32f7xx_hal_flash_ex.o
HAL_FLASHEx_OBProgram                             build/stm32f7xx_hal_flash_ex.o
HAL_FLASH_EndOfOperationCallback                  build/stm32f7xx_hal_flash.o
HAL_FLASH_GetError                                build/stm32f7xx_hal_flash.o
HAL_FLASH_IRQHandler                              build/stm32f7xx_hal_flash.o
HAL_FLASH_Lock                                    build/stm32f7xx_hal_flash.o
HAL_FLASH_OB_Launch                               build/stm32f7xx_hal_flash.o
HAL_FLASH_OB_Lock                                 build/stm32f7xx_hal_flash.o
HAL_FLASH_OB_Unlock                               build/stm32f7xx_hal_flash.o
HAL_FLASH_OperationErrorCallback                  build/stm32f7xx_hal_flash.o
HAL_FLASH_Program                                 build/stm32f7xx_hal_flash.o
HAL_FLASH_Program_IT                              build/stm32f7xx_hal_flash.o
HAL_FLASH_Unlock                                  build/stm32f7xx_hal_flash.o
HAL_GPIO_DeInit                                   build/stm32f7xx_hal_gpio.o
                                                  build/usart.o
                                                  build/i2c.o
HAL_GPIO_EXTI_Callback                            build/stm32f7xx_hal_gpio.o
HAL_GPIO_EXTI_IRQHandler                          build/stm32f7xx_hal_gpio.o
HAL_GPIO_Init                                     build/stm32f7xx_hal_gpio.o
                                                  build/stm32f7xx_hal_rcc.o
                                                  build/usart.o
                                                  build/i2c.o
                                                  build/gpio.o
HAL_GPIO_LockPin                                  build/stm32f7xx_hal_gpio.o
HAL_GPIO_ReadPin                                  build/stm32f7xx_hal_gpio.o
HAL_GPIO_TogglePin                                build/stm32f7xx_hal_gpio.o
HAL_GPIO_WritePin                                 build/stm32f7xx_hal_gpio.o
                                                  build/gpio.o
HAL_GetDEVID                                      build/stm32f7xx_hal.o
HAL_GetHalVersion                                 build/stm32f7xx_hal.o
HAL_GetREVID                                      build/stm32f7xx_hal.o
HAL_GetTick                                       build/stm32f7xx_hal.o
                                                  build/stm32f7xx_hal_uart_ex.o
                                                  build/stm32f7xx_hal_uart.o
                                                  build/stm32f7xx_hal_i2c.o
                                                  build/stm32f7xx_hal_pwr_ex.o
                                                  build/stm32f7xx_hal_dma.o
                                                  build/stm32f7xx_hal_flash.o
                                                  build/stm32f7xx_hal_rcc_ex.o
                                                  build/stm32f7xx_hal_rcc.o
HAL_GetTickFreq                                   build/stm32f7xx_hal.o
HAL_GetTickPrio                                   build/stm32f7xx_hal.o
HAL_GetUIDw0                                      build/stm32f7xx_hal.o
HAL_GetUIDw1                                      build/stm32f7xx_hal.o
HAL_GetUIDw2                                      build/stm32f7xx_hal.o
HAL_HalfDuplex_EnableReceiver                     build/stm32f7xx_hal_uart.o
HAL_HalfDuplex_EnableTransmitter                  build/stm32f7xx_hal_uart.o
HAL_HalfDuplex_Init                               build/stm32f7xx_hal_uart.o
HAL_I2CEx_ConfigAnalogFilter                      build/stm32f7xx_hal_i2c_ex.o
                                                  build/i2c.o
HAL_I2CEx_ConfigDigitalFilter                     build/stm32f7xx_hal_i2c_ex.o
                                                  build/i2c.o
HAL_I2CEx_DisableFastModePlus                     build/stm32f7xx_hal_i2c_ex.o
HAL_I2CEx_EnableFastModePlus                      build/stm32f7xx_hal_i2c_ex.o
HAL_I2C_AbortCpltCallback                         build/stm32f7xx_hal_i2c.o
HAL_I2C_AddrCallback                              build/stm32f7xx_hal_i2c.o
HAL_I2C_DeInit                                    build/stm32f7xx_hal_i2c.o
                                                  build/bsp_i2c.o
HAL_I2C_DisableListen_IT                          build/stm32f7xx_hal_i2c.o
HAL_I2C_ER_IRQHandler                             build/stm32f7xx_hal_i2c.o
HAL_I2C_EV_IRQHandler                             build/stm32f7xx_hal_i2c.o
HAL_I2C_EnableListen_IT                           build/stm32f7xx_hal_i2c.o
HAL_I2C_ErrorCallback                             build/stm32f7xx_hal_i2c.o
HAL_I2C_GetError                                  build/stm32f7xx_hal_i2c.o
HAL_I2C_GetMode                                   build/stm32f7xx_hal_i2c.o
HAL_I2C_GetState                                  build/stm32f7xx_hal_i2c.o
HAL_I2C_Init                                      build/stm32f7xx_hal_i2c.o
                                                  build/i2c.o
HAL_I2C_IsDeviceReady                             build/stm32f7xx_hal_i2c.o
HAL_I2C_ListenCpltCallback                        build/stm32f7xx_hal_i2c.o
HAL_I2C_MasterRxCpltCallback                      build/stm32f7xx_hal_i2c.o
HAL_I2C_MasterTxCpltCallback                      build/stm32f7xx_hal_i2c.o
HAL_I2C_Master_Abort_IT                           build/stm32f7xx_hal_i2c.o
HAL_I2C_Master_Receive                            build/stm32f7xx_hal_i2c.o
HAL_I2C_Master_Receive_DMA                        build/stm32f7xx_hal_i2c.o
HAL_I2C_Master_Receive_IT                         build/stm32f7xx_hal_i2c.o
HAL_I2C_Master_Seq_Receive_DMA                    build/stm32f7xx_hal_i2c.o
HAL_I2C_Master_Seq_Receive_IT                     build/stm32f7xx_hal_i2c.o
HAL_I2C_Master_Seq_Transmit_DMA                   build/stm32f7xx_hal_i2c.o
HAL_I2C_Master_Seq_Transmit_IT                    build/stm32f7xx_hal_i2c.o
HAL_I2C_Master_Transmit                           build/stm32f7xx_hal_i2c.o
HAL_I2C_Master_Transmit_DMA                       build/stm32f7xx_hal_i2c.o
HAL_I2C_Master_Transmit_IT                        build/stm32f7xx_hal_i2c.o
HAL_I2C_MemRxCpltCallback                         build/stm32f7xx_hal_i2c.o
HAL_I2C_MemTxCpltCallback                         build/stm32f7xx_hal_i2c.o
HAL_I2C_Mem_Read                                  build/stm32f7xx_hal_i2c.o
                                                  build/bsp_i2c.o
HAL_I2C_Mem_Read_DMA                              build/stm32f7xx_hal_i2c.o
HAL_I2C_Mem_Read_IT                               build/stm32f7xx_hal_i2c.o
HAL_I2C_Mem_Write                                 build/stm32f7xx_hal_i2c.o
                                                  build/bsp_i2c.o
HAL_I2C_Mem_Write_DMA                             build/stm32f7xx_hal_i2c.o
HAL_I2C_Mem_Write_IT                              build/stm32f7xx_hal_i2c.o
HAL_I2C_MspDeInit                                 build/i2c.o
HAL_I2C_MspInit                                   build/i2c.o
HAL_I2C_SlaveRxCpltCallback                       build/stm32f7xx_hal_i2c.o
HAL_I2C_SlaveTxCpltCallback                       build/stm32f7xx_hal_i2c.o
HAL_I2C_Slave_Receive                             build/stm32f7xx_hal_i2c.o
HAL_I2C_Slave_Receive_DMA                         build/stm32f7xx_hal_i2c.o
HAL_I2C_Slave_Receive_IT                          build/stm32f7xx_hal_i2c.o
HAL_I2C_Slave_Seq_Receive_DMA                     build/stm32f7xx_hal_i2c.o
HAL_I2C_Slave_Seq_Receive_IT                      build/stm32f7xx_hal_i2c.o
HAL_I2C_Slave_Seq_Transmit_DMA                    build/stm32f7xx_hal_i2c.o
HAL_I2C_Slave_Seq_Transmit_IT                     build/stm32f7xx_hal_i2c.o
HAL_I2C_Slave_Transmit                            build/stm32f7xx_hal_i2c.o
HAL_I2C_Slave_Transmit_DMA                        build/stm32f7xx_hal_i2c.o
HAL_I2C_Slave_Transmit_IT                         build/stm32f7xx_hal_i2c.o
HAL_IncTick                                       build/stm32f7xx_hal.o
                                                  build/main.o
HAL_Init                                          build/stm32f7xx_hal.o
                                                  build/main.o
HAL_InitTick                                      build/stm32f7xx_hal_timebase_tim.o
                                                  build/stm32f7xx_hal_rcc.o
HAL_LIN_Init                                      build/stm32f7xx_hal_uart.o
HAL_LIN_SendBreak                                 build/stm32f7xx_hal_uart.o
HAL_MPU_ConfigRegion                              build/stm32f7xx_hal_cortex.o
HAL_MPU_Disable                                   build/stm32f7xx_hal_cortex.o
HAL_MPU_Enable                                    build/stm32f7xx_hal_cortex.o
HAL_MspDeInit                                     build/stm32f7xx_hal.o
HAL_MspInit                                       build/stm32f7xx_hal_msp.o
HAL_MultiProcessorEx_AddressLength_Set            build/stm32f7xx_hal_uart_ex.o
HAL_MultiProcessor_DisableMuteMode                build/stm32f7xx_hal_uart.o
HAL_MultiProcessor_EnableMuteMode                 build/stm32f7xx_hal_uart.o
HAL_MultiProcessor_EnterMuteMode                  build/stm32f7xx_hal_uart.o
HAL_MultiProcessor_Init                           build/stm32f7xx_hal_uart.o
HAL_NVIC_ClearPendingIRQ                          build/stm32f7xx_hal_cortex.o
HAL_NVIC_DisableIRQ                               build/stm32f7xx_hal_cortex.o
HAL_NVIC_EnableIRQ                                build/stm32f7xx_hal_cortex.o
                                                  build/stm32f7xx_hal_timebase_tim.o
HAL_NVIC_GetActive                                build/stm32f7xx_hal_cortex.o
HAL_NVIC_GetPendingIRQ                            build/stm32f7xx_hal_cortex.o
HAL_NVIC_GetPriority                              build/stm32f7xx_hal_cortex.o
HAL_NVIC_GetPriorityGrouping                      build/stm32f7xx_hal_cortex.o
HAL_NVIC_SetPendingIRQ                            build/stm32f7xx_hal_cortex.o
HAL_NVIC_SetPriority                              build/stm32f7xx_hal_cortex.o
                                                  build/stm32f7xx_hal.o
                                                  build/stm32f7xx_hal_timebase_tim.o
                                                  build/stm32f7xx_hal_msp.o
HAL_NVIC_SetPriorityGrouping                      build/stm32f7xx_hal_cortex.o
                                                  build/stm32f7xx_hal.o
HAL_NVIC_SystemReset                              build/stm32f7xx_hal_cortex.o
HAL_PWREx_ControlVoltageScaling                   build/stm32f7xx_hal_pwr_ex.o
HAL_PWREx_DisableBkUpReg                          build/stm32f7xx_hal_pwr_ex.o
HAL_PWREx_DisableFlashPowerDown                   build/stm32f7xx_hal_pwr_ex.o
HAL_PWREx_DisableLowRegulatorLowVoltage           build/stm32f7xx_hal_pwr_ex.o
HAL_PWREx_DisableMainRegulatorLowVoltage          build/stm32f7xx_hal_pwr_ex.o
HAL_PWREx_DisableOverDrive                        build/stm32f7xx_hal_pwr_ex.o
HAL_PWREx_EnableBkUpReg                           build/stm32f7xx_hal_pwr_ex.o
HAL_PWREx_EnableFlashPowerDown                    build/stm32f7xx_hal_pwr_ex.o
HAL_PWREx_EnableLowRegulatorLowVoltage            build/stm32f7xx_hal_pwr_ex.o
HAL_PWREx_EnableMainRegulatorLowVoltage           build/stm32f7xx_hal_pwr_ex.o
HAL_PWREx_EnableOverDrive                         build/stm32f7xx_hal_pwr_ex.o
                                                  build/main.o
HAL_PWREx_EnterUnderDriveSTOPMode                 build/stm32f7xx_hal_pwr_ex.o
HAL_PWREx_GetVoltageRange                         build/stm32f7xx_hal_pwr_ex.o
HAL_PWR_ConfigPVD                                 build/stm32f7xx_hal_pwr.o
HAL_PWR_DeInit                                    build/stm32f7xx_hal_pwr.o
HAL_PWR_DisableBkUpAccess                         build/stm32f7xx_hal_pwr.o
HAL_PWR_DisablePVD                                build/stm32f7xx_hal_pwr.o
HAL_PWR_DisableSEVOnPend                          build/stm32f7xx_hal_pwr.o
HAL_PWR_DisableSleepOnExit                        build/stm32f7xx_hal_pwr.o
HAL_PWR_DisableWakeUpPin                          build/stm32f7xx_hal_pwr.o
HAL_PWR_EnableBkUpAccess                          build/stm32f7xx_hal_pwr.o
HAL_PWR_EnablePVD                                 build/stm32f7xx_hal_pwr.o
HAL_PWR_EnableSEVOnPend                           build/stm32f7xx_hal_pwr.o
HAL_PWR_EnableSleepOnExit                         build/stm32f7xx_hal_pwr.o
HAL_PWR_EnableWakeUpPin                           build/stm32f7xx_hal_pwr.o
HAL_PWR_EnterSLEEPMode                            build/stm32f7xx_hal_pwr.o
HAL_PWR_EnterSTANDBYMode                          build/stm32f7xx_hal_pwr.o
HAL_PWR_EnterSTOPMode                             build/stm32f7xx_hal_pwr.o
HAL_PWR_PVDCallback                               build/stm32f7xx_hal_pwr.o
HAL_PWR_PVD_IRQHandler                            build/stm32f7xx_hal_pwr.o
HAL_RCCEx_DisablePLLI2S                           build/stm32f7xx_hal_rcc_ex.o
HAL_RCCEx_DisablePLLSAI                           build/stm32f7xx_hal_rcc_ex.o
HAL_RCCEx_EnablePLLI2S                            build/stm32f7xx_hal_rcc_ex.o
HAL_RCCEx_EnablePLLSAI                            build/stm32f7xx_hal_rcc_ex.o
HAL_RCCEx_GetPeriphCLKConfig                      build/stm32f7xx_hal_rcc_ex.o
HAL_RCCEx_GetPeriphCLKFreq                        build/stm32f7xx_hal_rcc_ex.o
HAL_RCCEx_PeriphCLKConfig                         build/stm32f7xx_hal_rcc_ex.o
                                                  build/main.o
HAL_RCC_CSSCallback                               build/stm32f7xx_hal_rcc.o
HAL_RCC_ClockConfig                               build/stm32f7xx_hal_rcc.o
                                                  build/main.o
HAL_RCC_DeInit                                    build/stm32f7xx_hal_rcc.o
HAL_RCC_DisableCSS                                build/stm32f7xx_hal_rcc.o
HAL_RCC_EnableCSS                                 build/stm32f7xx_hal_rcc.o
HAL_RCC_GetClockConfig                            build/stm32f7xx_hal_rcc.o
                                                  build/stm32f7xx_hal_timebase_tim.o
HAL_RCC_GetHCLKFreq                               build/stm32f7xx_hal_rcc.o
HAL_RCC_GetOscConfig                              build/stm32f7xx_hal_rcc.o
HAL_RCC_GetPCLK1Freq                              build/stm32f7xx_hal_rcc.o
                                                  build/stm32f7xx_hal_uart.o
HAL_RCC_GetPCLK2Freq                              build/stm32f7xx_hal_rcc.o
                                                  build/stm32f7xx_hal_uart.o
                                                  build/stm32f7xx_hal_timebase_tim.o
HAL_RCC_GetSysClockFreq                           build/stm32f7xx_hal_rcc.o
                                                  build/stm32f7xx_hal_uart.o
HAL_RCC_MCOConfig                                 build/stm32f7xx_hal_rcc.o
HAL_RCC_NMI_IRQHandler                            build/stm32f7xx_hal_rcc.o
HAL_RCC_OscConfig                                 build/stm32f7xx_hal_rcc.o
                                                  build/main.o
HAL_RS485Ex_Init                                  build/stm32f7xx_hal_uart_ex.o
HAL_ResumeTick                                    build/stm32f7xx_hal_timebase_tim.o
HAL_SYSTICK_CLKSourceConfig                       build/stm32f7xx_hal_cortex.o
HAL_SYSTICK_Callback                              build/stm32f7xx_hal_cortex.o
HAL_SYSTICK_Config                                build/stm32f7xx_hal_cortex.o
                                                  build/stm32f7xx_hal.o
HAL_SYSTICK_IRQHandler                            build/stm32f7xx_hal_cortex.o
HAL_SetTickFreq                                   build/stm32f7xx_hal.o
HAL_SuspendTick                                   build/stm32f7xx_hal_timebase_tim.o
HAL_TIMEx_Break2Callback                          build/stm32f7xx_hal_tim_ex.o
                                                  build/stm32f7xx_hal_tim.o
HAL_TIMEx_BreakCallback                           build/stm32f7xx_hal_tim_ex.o
                                                  build/stm32f7xx_hal_tim.o
HAL_TIMEx_CommutCallback                          build/stm32f7xx_hal_tim_ex.o
                                                  build/stm32f7xx_hal_tim.o
HAL_TIMEx_CommutHalfCpltCallback                  build/stm32f7xx_hal_tim_ex.o
HAL_TIMEx_ConfigBreakDeadTime                     build/stm32f7xx_hal_tim_ex.o
HAL_TIMEx_ConfigBreakInput                        build/stm32f7xx_hal_tim_ex.o
HAL_TIMEx_ConfigCommutEvent                       build/stm32f7xx_hal_tim_ex.o
HAL_TIMEx_ConfigCommutEvent_DMA                   build/stm32f7xx_hal_tim_ex.o
HAL_TIMEx_ConfigCommutEvent_IT                    build/stm32f7xx_hal_tim_ex.o
HAL_TIMEx_GroupChannel5                           build/stm32f7xx_hal_tim_ex.o
HAL_TIMEx_HallSensor_DeInit                       build/stm32f7xx_hal_tim_ex.o
HAL_TIMEx_HallSensor_GetState                     build/stm32f7xx_hal_tim_ex.o
HAL_TIMEx_HallSensor_Init                         build/stm32f7xx_hal_tim_ex.o
HAL_TIMEx_HallSensor_MspDeInit                    build/stm32f7xx_hal_tim_ex.o
HAL_TIMEx_HallSensor_MspInit                      build/stm32f7xx_hal_tim_ex.o
HAL_TIMEx_HallSensor_Start                        build/stm32f7xx_hal_tim_ex.o
HAL_TIMEx_HallSensor_Start_DMA                    build/stm32f7xx_hal_tim_ex.o
HAL_TIMEx_HallSensor_Start_IT                     build/stm32f7xx_hal_tim_ex.o
HAL_TIMEx_HallSensor_Stop                         build/stm32f7xx_hal_tim_ex.o
HAL_TIMEx_HallSensor_Stop_DMA                     build/stm32f7xx_hal_tim_ex.o
HAL_TIMEx_HallSensor_Stop_IT                      build/stm32f7xx_hal_tim_ex.o
HAL_TIMEx_MasterConfigSynchronization             build/stm32f7xx_hal_tim_ex.o
HAL_TIMEx_OCN_Start                               build/stm32f7xx_hal_tim_ex.o
HAL_TIMEx_OCN_Start_DMA                           build/stm32f7xx_hal_tim_ex.o
HAL_TIMEx_OCN_Start_IT                            build/stm32f7xx_hal_tim_ex.o
HAL_TIMEx_OCN_Stop                                build/stm32f7xx_hal_tim_ex.o
HAL_TIMEx_OCN_Stop_DMA                            build/stm32f7xx_hal_tim_ex.o
HAL_TIMEx_OCN_Stop_IT                             build/stm32f7xx_hal_tim_ex.o
HAL_TIMEx_OnePulseN_Start                         build/stm32f7xx_hal_tim_ex.o
HAL_TIMEx_OnePulseN_Start_IT                      build/stm32f7xx_hal_tim_ex.o
HAL_TIMEx_OnePulseN_Stop                          build/stm32f7xx_hal_tim_ex.o
HAL_TIMEx_OnePulseN_Stop_IT                       build/stm32f7xx_hal_tim_ex.o
HAL_TIMEx_PWMN_Start                              build/stm32f7xx_hal_tim_ex.o
HAL_TIMEx_PWMN_Start_DMA                          build/stm32f7xx_hal_tim_ex.o
HAL_TIMEx_PWMN_Start_IT                           build/stm32f7xx_hal_tim_ex.o
HAL_TIMEx_PWMN_Stop                               build/stm32f7xx_hal_tim_ex.o
HAL_TIMEx_PWMN_Stop_DMA                           build/stm32f7xx_hal_tim_ex.o
HAL_TIMEx_PWMN_Stop_IT                            build/stm32f7xx_hal_tim_ex.o
HAL_TIMEx_RemapConfig                             build/stm32f7xx_hal_tim_ex.o
HAL_TIM_Base_DeInit                               build/stm32f7xx_hal_tim.o
HAL_TIM_Base_GetState                             build/stm32f7xx_hal_tim.o
HAL_TIM_Base_Init                                 build/stm32f7xx_hal_tim.o
                                                  build/stm32f7xx_hal_timebase_tim.o
HAL_TIM_Base_MspDeInit                            build/stm32f7xx_hal_tim.o
HAL_TIM_Base_MspInit                              build/stm32f7xx_hal_tim.o
HAL_TIM_Base_Start                                build/stm32f7xx_hal_tim.o
HAL_TIM_Base_Start_DMA                            build/stm32f7xx_hal_tim.o
HAL_TIM_Base_Start_IT                             build/stm32f7xx_hal_tim.o
                                                  build/stm32f7xx_hal_timebase_tim.o
HAL_TIM_Base_Stop                                 build/stm32f7xx_hal_tim.o
HAL_TIM_Base_Stop_DMA                             build/stm32f7xx_hal_tim.o
HAL_TIM_Base_Stop_IT                              build/stm32f7xx_hal_tim.o
HAL_TIM_ConfigClockSource                         build/stm32f7xx_hal_tim.o
HAL_TIM_ConfigOCrefClear                          build/stm32f7xx_hal_tim.o
HAL_TIM_ConfigTI1Input                            build/stm32f7xx_hal_tim.o
HAL_TIM_DMABurst_ReadStart                        build/stm32f7xx_hal_tim.o
HAL_TIM_DMABurst_ReadStop                         build/stm32f7xx_hal_tim.o
HAL_TIM_DMABurst_WriteStart                       build/stm32f7xx_hal_tim.o
HAL_TIM_DMABurst_WriteStop                        build/stm32f7xx_hal_tim.o
HAL_TIM_Encoder_DeInit                            build/stm32f7xx_hal_tim.o
HAL_TIM_Encoder_GetState                          build/stm32f7xx_hal_tim.o
HAL_TIM_Encoder_Init                              build/stm32f7xx_hal_tim.o
HAL_TIM_Encoder_MspDeInit                         build/stm32f7xx_hal_tim.o
HAL_TIM_Encoder_MspInit                           build/stm32f7xx_hal_tim.o
HAL_TIM_Encoder_Start                             build/stm32f7xx_hal_tim.o
HAL_TIM_Encoder_Start_DMA                         build/stm32f7xx_hal_tim.o
HAL_TIM_Encoder_Start_IT                          build/stm32f7xx_hal_tim.o
HAL_TIM_Encoder_Stop                              build/stm32f7xx_hal_tim.o
HAL_TIM_Encoder_Stop_DMA                          build/stm32f7xx_hal_tim.o
HAL_TIM_Encoder_Stop_IT                           build/stm32f7xx_hal_tim.o
HAL_TIM_ErrorCallback                             build/stm32f7xx_hal_tim.o
HAL_TIM_GenerateEvent                             build/stm32f7xx_hal_tim.o
HAL_TIM_IC_CaptureCallback                        build/stm32f7xx_hal_tim.o
HAL_TIM_IC_CaptureHalfCpltCallback                build/stm32f7xx_hal_tim.o
HAL_TIM_IC_ConfigChannel                          build/stm32f7xx_hal_tim.o
HAL_TIM_IC_DeInit                                 build/stm32f7xx_hal_tim.o
HAL_TIM_IC_GetState                               build/stm32f7xx_hal_tim.o
HAL_TIM_IC_Init                                   build/stm32f7xx_hal_tim.o
HAL_TIM_IC_MspDeInit                              build/stm32f7xx_hal_tim.o
HAL_TIM_IC_MspInit                                build/stm32f7xx_hal_tim.o
HAL_TIM_IC_Start                                  build/stm32f7xx_hal_tim.o
HAL_TIM_IC_Start_DMA                              build/stm32f7xx_hal_tim.o
HAL_TIM_IC_Start_IT                               build/stm32f7xx_hal_tim.o
HAL_TIM_IC_Stop                                   build/stm32f7xx_hal_tim.o
HAL_TIM_IC_Stop_DMA                               build/stm32f7xx_hal_tim.o
HAL_TIM_IC_Stop_IT                                build/stm32f7xx_hal_tim.o
HAL_TIM_IRQHandler                                build/stm32f7xx_hal_tim.o
                                                  build/stm32f7xx_it.o
HAL_TIM_OC_ConfigChannel                          build/stm32f7xx_hal_tim.o
HAL_TIM_OC_DeInit                                 build/stm32f7xx_hal_tim.o
HAL_TIM_OC_DelayElapsedCallback                   build/stm32f7xx_hal_tim.o
HAL_TIM_OC_GetState                               build/stm32f7xx_hal_tim.o
HAL_TIM_OC_Init                                   build/stm32f7xx_hal_tim.o
HAL_TIM_OC_MspDeInit                              build/stm32f7xx_hal_tim.o
HAL_TIM_OC_MspInit                                build/stm32f7xx_hal_tim.o
HAL_TIM_OC_Start                                  build/stm32f7xx_hal_tim.o
HAL_TIM_OC_Start_DMA                              build/stm32f7xx_hal_tim.o
HAL_TIM_OC_Start_IT                               build/stm32f7xx_hal_tim.o
HAL_TIM_OC_Stop                                   build/stm32f7xx_hal_tim.o
HAL_TIM_OC_Stop_DMA                               build/stm32f7xx_hal_tim.o
HAL_TIM_OC_Stop_IT                                build/stm32f7xx_hal_tim.o
HAL_TIM_OnePulse_ConfigChannel                    build/stm32f7xx_hal_tim.o
HAL_TIM_OnePulse_DeInit                           build/stm32f7xx_hal_tim.o
HAL_TIM_OnePulse_GetState                         build/stm32f7xx_hal_tim.o
HAL_TIM_OnePulse_Init                             build/stm32f7xx_hal_tim.o
HAL_TIM_OnePulse_MspDeInit                        build/stm32f7xx_hal_tim.o
HAL_TIM_OnePulse_MspInit                          build/stm32f7xx_hal_tim.o
HAL_TIM_OnePulse_Start                            build/stm32f7xx_hal_tim.o
HAL_TIM_OnePulse_Start_IT                         build/stm32f7xx_hal_tim.o
HAL_TIM_OnePulse_Stop                             build/stm32f7xx_hal_tim.o
HAL_TIM_OnePulse_Stop_IT                          build/stm32f7xx_hal_tim.o
HAL_TIM_PWM_ConfigChannel                         build/stm32f7xx_hal_tim.o
HAL_TIM_PWM_DeInit                                build/stm32f7xx_hal_tim.o
HAL_TIM_PWM_GetState                              build/stm32f7xx_hal_tim.o
HAL_TIM_PWM_Init                                  build/stm32f7xx_hal_tim.o
HAL_TIM_PWM_MspDeInit                             build/stm32f7xx_hal_tim.o
HAL_TIM_PWM_MspInit                               build/stm32f7xx_hal_tim.o
HAL_TIM_PWM_PulseFinishedCallback                 build/stm32f7xx_hal_tim.o
HAL_TIM_PWM_PulseFinishedHalfCpltCallback         build/stm32f7xx_hal_tim.o
HAL_TIM_PWM_Start                                 build/stm32f7xx_hal_tim.o
HAL_TIM_PWM_Start_DMA                             build/stm32f7xx_hal_tim.o
HAL_TIM_PWM_Start_IT                              build/stm32f7xx_hal_tim.o
HAL_TIM_PWM_Stop                                  build/stm32f7xx_hal_tim.o
HAL_TIM_PWM_Stop_DMA                              build/stm32f7xx_hal_tim.o
HAL_TIM_PWM_Stop_IT                               build/stm32f7xx_hal_tim.o
HAL_TIM_PeriodElapsedCallback                     build/main.o
HAL_TIM_PeriodElapsedHalfCpltCallback             build/stm32f7xx_hal_tim.o
HAL_TIM_ReadCapturedValue                         build/stm32f7xx_hal_tim.o
HAL_TIM_SlaveConfigSynchro                        build/stm32f7xx_hal_tim.o
HAL_TIM_SlaveConfigSynchro_IT                     build/stm32f7xx_hal_tim.o
HAL_TIM_TriggerCallback                           build/stm32f7xx_hal_tim.o
HAL_TIM_TriggerHalfCpltCallback                   build/stm32f7xx_hal_tim.o
HAL_UARTEx_DisableClockStopMode                   build/stm32f7xx_hal_uart_ex.o
HAL_UARTEx_DisableStopMode                        build/stm32f7xx_hal_uart_ex.o
HAL_UARTEx_EnableClockStopMode                    build/stm32f7xx_hal_uart_ex.o
HAL_UARTEx_EnableStopMode                         build/stm32f7xx_hal_uart_ex.o
HAL_UARTEx_StopModeWakeUpSourceConfig             build/stm32f7xx_hal_uart_ex.o
HAL_UARTEx_WakeupCallback                         build/stm32f7xx_hal_uart.o
HAL_UART_Abort                                    build/stm32f7xx_hal_uart.o
HAL_UART_AbortCpltCallback                        build/stm32f7xx_hal_uart.o
HAL_UART_AbortReceive                             build/stm32f7xx_hal_uart.o
HAL_UART_AbortReceiveCpltCallback                 build/stm32f7xx_hal_uart.o
HAL_UART_AbortReceive_IT                          build/stm32f7xx_hal_uart.o
HAL_UART_AbortTransmit                            build/stm32f7xx_hal_uart.o
HAL_UART_AbortTransmitCpltCallback                build/stm32f7xx_hal_uart.o
HAL_UART_AbortTransmit_IT                         build/stm32f7xx_hal_uart.o
HAL_UART_Abort_IT                                 build/stm32f7xx_hal_uart.o
HAL_UART_DMAPause                                 build/stm32f7xx_hal_uart.o
HAL_UART_DMAResume                                build/stm32f7xx_hal_uart.o
HAL_UART_DMAStop                                  build/stm32f7xx_hal_uart.o
HAL_UART_DeInit                                   build/stm32f7xx_hal_uart.o
HAL_UART_DisableReceiverTimeout                   build/stm32f7xx_hal_uart.o
HAL_UART_EnableReceiverTimeout                    build/stm32f7xx_hal_uart.o
HAL_UART_ErrorCallback                            build/stm32f7xx_hal_uart.o
HAL_UART_GetError                                 build/stm32f7xx_hal_uart.o
HAL_UART_GetState                                 build/stm32f7xx_hal_uart.o
HAL_UART_IRQHandler                               build/stm32f7xx_hal_uart.o
HAL_UART_Init                                     build/stm32f7xx_hal_uart.o
                                                  build/usart.o
HAL_UART_MspDeInit                                build/usart.o
HAL_UART_MspInit                                  build/usart.o
                                                  build/stm32f7xx_hal_uart_ex.o
HAL_UART_Receive                                  build/stm32f7xx_hal_uart.o
HAL_UART_Receive_DMA                              build/stm32f7xx_hal_uart.o
HAL_UART_Receive_IT                               build/stm32f7xx_hal_uart.o
HAL_UART_ReceiverTimeout_Config                   build/stm32f7xx_hal_uart.o
HAL_UART_RxCpltCallback                           build/stm32f7xx_hal_uart.o
HAL_UART_RxHalfCpltCallback                       build/stm32f7xx_hal_uart.o
HAL_UART_Transmit                                 build/stm32f7xx_hal_uart.o
                                                  build/printf_redefine.o
HAL_UART_Transmit_DMA                             build/stm32f7xx_hal_uart.o
HAL_UART_Transmit_IT                              build/stm32f7xx_hal_uart.o
HAL_UART_TxCpltCallback                           build/stm32f7xx_hal_uart.o
HAL_UART_TxHalfCpltCallback                       build/stm32f7xx_hal_uart.o
HardFault_Handler                                 build/stm32f7xx_it.o
I2C1_ER_IRQHandler                                build/startup_stm32f767xx.o
I2C1_EV_IRQHandler                                build/startup_stm32f767xx.o
I2C2_ER_IRQHandler                                build/startup_stm32f767xx.o
I2C2_EV_IRQHandler                                build/startup_stm32f767xx.o
I2C3_ER_IRQHandler                                build/startup_stm32f767xx.o
I2C3_EV_IRQHandler                                build/startup_stm32f767xx.o
I2C4_ER_IRQHandler                                build/startup_stm32f767xx.o
I2C4_EV_IRQHandler                                build/startup_stm32f767xx.o
JPEG_IRQHandler                                   build/startup_stm32f767xx.o
LPTIM1_IRQHandler                                 build/startup_stm32f767xx.o
LTDC_ER_IRQHandler                                build/startup_stm32f767xx.o
LTDC_IRQHandler                                   build/startup_stm32f767xx.o
MDIOS_IRQHandler                                  build/startup_stm32f767xx.o
MPU6050_Self_Creat                                build/mpu6050.o
                                                  build/attitude.o
MPU6050_Self_Delete                               build/mpu6050.o
MX_FREERTOS_Init                                  build/freertos.o
                                                  build/main.o
MX_GPIO_Init                                      build/gpio.o
                                                  build/main.o
MX_I2C4_Init                                      build/i2c.o
                                                  build/main.o
                                                  build/bsp_i2c.o
MX_UART5_Init                                     build/usart.o
                                                  build/main.o
MemManage_Handler                                 build/stm32f7xx_it.o
NMI_Handler                                       build/stm32f7xx_it.o
OTG_FS_IRQHandler                                 build/startup_stm32f767xx.o
OTG_FS_WKUP_IRQHandler                            build/startup_stm32f767xx.o
OTG_HS_EP1_IN_IRQHandler                          build/startup_stm32f767xx.o
OTG_HS_EP1_OUT_IRQHandler                         build/startup_stm32f767xx.o
OTG_HS_IRQHandler                                 build/startup_stm32f767xx.o
OTG_HS_WKUP_IRQHandler                            build/startup_stm32f767xx.o
PVD_IRQHandler                                    build/startup_stm32f767xx.o
PendSV_Handler                                    build/port.o
QUADSPI_IRQHandler                                build/startup_stm32f767xx.o
RCC_IRQHandler                                    build/startup_stm32f767xx.o
RNG_IRQHandler                                    build/startup_stm32f767xx.o
RTC_Alarm_IRQHandler                              build/startup_stm32f767xx.o
RTC_WKUP_IRQHandler                               build/startup_stm32f767xx.o
Reset_Handler                                     build/startup_stm32f767xx.o
SAI1_IRQHandler                                   build/startup_stm32f767xx.o
SAI2_IRQHandler                                   build/startup_stm32f767xx.o
SDMMC1_IRQHandler                                 build/startup_stm32f767xx.o
SDMMC2_IRQHandler                                 build/startup_stm32f767xx.o
SPDIF_RX_IRQHandler                               build/startup_stm32f767xx.o
SPI1_IRQHandler                                   build/startup_stm32f767xx.o
SPI2_IRQHandler                                   build/startup_stm32f767xx.o
SPI3_IRQHandler                                   build/startup_stm32f767xx.o
SPI4_IRQHandler                                   build/startup_stm32f767xx.o
SPI5_IRQHandler                                   build/startup_stm32f767xx.o
SPI6_IRQHandler                                   build/startup_stm32f767xx.o
SVC_Handler                                       build/port.o
Sensors_I2C_ReadRegister                          build/bsp_i2c.o
                                                  build/mpu6050.o
                                                  build/inv_mpu.o
Sensors_I2C_WriteRegister                         build/bsp_i2c.o
                                                  build/mpu6050.o
                                                  build/inv_mpu.o
StartDefaultTask                                  build/freertos.o
SysTick_Handler                                   build/port.o
SystemClock_Config                                build/main.o
SystemCoreClock                                   build/system_stm32f7xx.o
                                                  build/port.o
                                                  build/cmsis_os2.o
                                                  build/stm32f7xx_hal.o
                                                  build/stm32f7xx_hal_dma.o
                                                  build/stm32f7xx_hal_rcc.o
SystemCoreClockUpdate                             build/system_stm32f7xx.o
SystemInit                                        build/system_stm32f7xx.o
                                                  build/startup_stm32f767xx.o
TAMP_STAMP_IRQHandler                             build/startup_stm32f767xx.o
TIM1_BRK_TIM9_IRQHandler                          build/startup_stm32f767xx.o
TIM1_CC_IRQHandler                                build/startup_stm32f767xx.o
TIM1_TRG_COM_TIM11_IRQHandler                     build/startup_stm32f767xx.o
TIM1_UP_TIM10_IRQHandler                          build/stm32f7xx_it.o
TIM2_IRQHandler                                   build/startup_stm32f767xx.o
TIM3_IRQHandler                                   build/startup_stm32f767xx.o
TIM4_IRQHandler                                   build/startup_stm32f767xx.o
TIM5_IRQHandler                                   build/startup_stm32f767xx.o
TIM6_DAC_IRQHandler                               build/startup_stm32f767xx.o
TIM7_IRQHandler                                   build/startup_stm32f767xx.o
TIM8_BRK_TIM12_IRQHandler                         build/startup_stm32f767xx.o
TIM8_CC_IRQHandler                                build/startup_stm32f767xx.o
TIM8_TRG_COM_TIM14_IRQHandler                     build/startup_stm32f767xx.o
TIM8_UP_TIM13_IRQHandler                          build/startup_stm32f767xx.o
TIMEx_DMACommutationCplt                          build/stm32f7xx_hal_tim_ex.o
                                                  build/stm32f7xx_hal_tim.o
TIMEx_DMACommutationHalfCplt                      build/stm32f7xx_hal_tim_ex.o
                                                  build/stm32f7xx_hal_tim.o
TIM_Base_SetConfig                                build/stm32f7xx_hal_tim.o
                                                  build/stm32f7xx_hal_tim_ex.o
TIM_CCxChannelCmd                                 build/stm32f7xx_hal_tim.o
                                                  build/stm32f7xx_hal_tim_ex.o
TIM_DMACaptureCplt                                build/stm32f7xx_hal_tim.o
                                                  build/stm32f7xx_hal_tim_ex.o
TIM_DMACaptureHalfCplt                            build/stm32f7xx_hal_tim.o
                                                  build/stm32f7xx_hal_tim_ex.o
TIM_DMADelayPulseCplt                             build/stm32f7xx_hal_tim.o
                                                  build/stm32f7xx_hal_tim_ex.o
TIM_DMADelayPulseHalfCplt                         build/stm32f7xx_hal_tim.o
                                                  build/stm32f7xx_hal_tim_ex.o
TIM_DMAError                                      build/stm32f7xx_hal_tim.o
                                                  build/stm32f7xx_hal_tim_ex.o
TIM_ETR_SetConfig                                 build/stm32f7xx_hal_tim.o
TIM_OC2_SetConfig                                 build/stm32f7xx_hal_tim.o
                                                  build/stm32f7xx_hal_tim_ex.o
TIM_TI1_SetConfig                                 build/stm32f7xx_hal_tim.o
                                                  build/stm32f7xx_hal_tim_ex.o
UART4_IRQHandler                                  build/startup_stm32f767xx.o
UART5_IRQHandler                                  build/startup_stm32f767xx.o
UART7_IRQHandler                                  build/startup_stm32f767xx.o
UART8_IRQHandler                                  build/startup_stm32f767xx.o
UART_AdvFeatureConfig                             build/stm32f7xx_hal_uart.o
                                                  build/stm32f7xx_hal_uart_ex.o
UART_CheckIdleState                               build/stm32f7xx_hal_uart.o
                                                  build/stm32f7xx_hal_uart_ex.o
UART_SetConfig                                    build/stm32f7xx_hal_uart.o
                                                  build/stm32f7xx_hal_uart_ex.o
UART_WaitOnFlagUntilTimeout                       build/stm32f7xx_hal_uart.o
                                                  build/stm32f7xx_hal_uart_ex.o
USART1_IRQHandler                                 build/startup_stm32f767xx.o
USART2_IRQHandler                                 build/startup_stm32f767xx.o
USART3_IRQHandler                                 build/startup_stm32f767xx.o
USART6_IRQHandler                                 build/startup_stm32f767xx.o
UsageFault_Handler                                build/stm32f7xx_it.o
WWDG_IRQHandler                                   build/startup_stm32f767xx.o
_Balloc                                           f:/prosoft/gcc_arm_none/2019q4/9 2019-q4-major/bin/../lib/gcc/arm-none-eabi/9.2.1/../../../../arm-none-eabi/lib/thumb/v7e-m+dp/hard\libc_nano.a(lib_a-mprec.o)
                                                  f:/prosoft/gcc_arm_none/2019q4/9 2019-q4-major/bin/../lib/gcc/arm-none-eabi/9.2.1/../../../../arm-none-eabi/lib/thumb/v7e-m+dp/hard\libc_nano.a(lib_a-dtoa.o)
_Bfree                                            f:/prosoft/gcc_arm_none/2019q4/9 2019-q4-major/bin/../lib/gcc/arm-none-eabi/9.2.1/../../../../arm-none-eabi/lib/thumb/v7e-m+dp/hard\libc_nano.a(lib_a-mprec.o)
                                                  f:/prosoft/gcc_arm_none/2019q4/9 2019-q4-major/bin/../lib/gcc/arm-none-eabi/9.2.1/../../../../arm-none-eabi/lib/thumb/v7e-m+dp/hard\libc_nano.a(lib_a-dtoa.o)
_PathLocale                                       f:/prosoft/gcc_arm_none/2019q4/9 2019-q4-major/bin/../lib/gcc/arm-none-eabi/9.2.1/../../../../arm-none-eabi/lib/thumb/v7e-m+dp/hard\libc_nano.a(lib_a-locale.o)
__aeabi_idiv0                                     f:/prosoft/gcc_arm_none/2019q4/9 2019-q4-major/bin/../lib/gcc/arm-none-eabi/9.2.1/thumb/v7e-m+dp/hard\libgcc.a(_dvmd_tls.o)
__aeabi_ldiv0                                     f:/prosoft/gcc_arm_none/2019q4/9 2019-q4-major/bin/../lib/gcc/arm-none-eabi/9.2.1/thumb/v7e-m+dp/hard\libgcc.a(_dvmd_tls.o)
                                                  f:/prosoft/gcc_arm_none/2019q4/9 2019-q4-major/bin/../lib/gcc/arm-none-eabi/9.2.1/thumb/v7e-m+dp/hard\libgcc.a(_aeabi_uldivmod.o)
                                                  f:/prosoft/gcc_arm_none/2019q4/9 2019-q4-major/bin/../lib/gcc/arm-none-eabi/9.2.1/thumb/v7e-m+dp/hard\libgcc.a(_aeabi_ldivmod.o)
__aeabi_ldivmod                                   f:/prosoft/gcc_arm_none/2019q4/9 2019-q4-major/bin/../lib/gcc/arm-none-eabi/9.2.1/thumb/v7e-m+dp/hard\libgcc.a(_aeabi_ldivmod.o)
                                                  build/inv_mpu.o
__aeabi_uldivmod                                  f:/prosoft/gcc_arm_none/2019q4/9 2019-q4-major/bin/../lib/gcc/arm-none-eabi/9.2.1/thumb/v7e-m+dp/hard\libgcc.a(_aeabi_uldivmod.o)
                                                  build/stm32f7xx_hal_rcc.o
__any_on                                          f:/prosoft/gcc_arm_none/2019q4/9 2019-q4-major/bin/../lib/gcc/arm-none-eabi/9.2.1/../../../../arm-none-eabi/lib/thumb/v7e-m+dp/hard\libc_nano.a(lib_a-mprec.o)
__ascii_mbtowc                                    f:/prosoft/gcc_arm_none/2019q4/9 2019-q4-major/bin/../lib/gcc/arm-none-eabi/9.2.1/../../../../arm-none-eabi/lib/thumb/v7e-m+dp/hard\libc_nano.a(lib_a-mbtowc_r.o)
                                                  f:/prosoft/gcc_arm_none/2019q4/9 2019-q4-major/bin/../lib/gcc/arm-none-eabi/9.2.1/../../../../arm-none-eabi/lib/thumb/v7e-m+dp/hard\libc_nano.a(lib_a-locale.o)
__ascii_wctomb                                    f:/prosoft/gcc_arm_none/2019q4/9 2019-q4-major/bin/../lib/gcc/arm-none-eabi/9.2.1/../../../../arm-none-eabi/lib/thumb/v7e-m+dp/hard\libc_nano.a(lib_a-wctomb_r.o)
                                                  f:/prosoft/gcc_arm_none/2019q4/9 2019-q4-major/bin/../lib/gcc/arm-none-eabi/9.2.1/../../../../arm-none-eabi/lib/thumb/v7e-m+dp/hard\libc_nano.a(lib_a-locale.o)
__b2d                                             f:/prosoft/gcc_arm_none/2019q4/9 2019-q4-major/bin/../lib/gcc/arm-none-eabi/9.2.1/../../../../arm-none-eabi/lib/thumb/v7e-m+dp/hard\libc_nano.a(lib_a-mprec.o)
__bss_end__                                       f:/prosoft/gcc_arm_none/2019q4/9 2019-q4-major/bin/../lib/gcc/arm-none-eabi/9.2.1/../../../../arm-none-eabi/lib/thumb/v7e-m+dp/hard/crt0.o
__bss_start__                                     f:/prosoft/gcc_arm_none/2019q4/9 2019-q4-major/bin/../lib/gcc/arm-none-eabi/9.2.1/../../../../arm-none-eabi/lib/thumb/v7e-m+dp/hard/crt0.o
__call_exitprocs                                  f:/prosoft/gcc_arm_none/2019q4/9 2019-q4-major/bin/../lib/gcc/arm-none-eabi/9.2.1/../../../../arm-none-eabi/lib/thumb/v7e-m+dp/hard\libc_nano.a(lib_a-exit.o)
__copybits                                        f:/prosoft/gcc_arm_none/2019q4/9 2019-q4-major/bin/../lib/gcc/arm-none-eabi/9.2.1/../../../../arm-none-eabi/lib/thumb/v7e-m+dp/hard\libc_nano.a(lib_a-mprec.o)
__cvt                                             f:/prosoft/gcc_arm_none/2019q4/9 2019-q4-major/bin/../lib/gcc/arm-none-eabi/9.2.1/../../../../arm-none-eabi/lib/thumb/v7e-m+dp/hard\libc_nano.a(lib_a-nano-vfprintf_float.o)
__d2b                                             f:/prosoft/gcc_arm_none/2019q4/9 2019-q4-major/bin/../lib/gcc/arm-none-eabi/9.2.1/../../../../arm-none-eabi/lib/thumb/v7e-m+dp/hard\libc_nano.a(lib_a-mprec.o)
                                                  f:/prosoft/gcc_arm_none/2019q4/9 2019-q4-major/bin/../lib/gcc/arm-none-eabi/9.2.1/../../../../arm-none-eabi/lib/thumb/v7e-m+dp/hard\libc_nano.a(lib_a-dtoa.o)
__deregister_frame_info                           f:/prosoft/gcc_arm_none/2019q4/9 2019-q4-major/bin/../lib/gcc/arm-none-eabi/9.2.1/thumb/v7e-m+dp/hard/crtbegin.o
__dso_handle                                      f:/prosoft/gcc_arm_none/2019q4/9 2019-q4-major/bin/../lib/gcc/arm-none-eabi/9.2.1/thumb/v7e-m+dp/hard/crtbegin.o
__errno                                           f:/prosoft/gcc_arm_none/2019q4/9 2019-q4-major/bin/../lib/gcc/arm-none-eabi/9.2.1/../../../../arm-none-eabi/lib/thumb/v7e-m+dp/hard\libc_nano.a(lib_a-errno.o)
                                                  f:/prosoft/gcc_arm_none/2019q4/9 2019-q4-major/bin/../lib/gcc/arm-none-eabi/9.2.1/../../../../arm-none-eabi/lib/thumb/v7e-m+dp/hard\libm.a(lib_a-w_asin.o)
__exponent                                        f:/prosoft/gcc_arm_none/2019q4/9 2019-q4-major/bin/../lib/gcc/arm-none-eabi/9.2.1/../../../../arm-none-eabi/lib/thumb/v7e-m+dp/hard\libc_nano.a(lib_a-nano-vfprintf_float.o)
__fdlib_version                                   f:/prosoft/gcc_arm_none/2019q4/9 2019-q4-major/bin/../lib/gcc/arm-none-eabi/9.2.1/../../../../arm-none-eabi/lib/thumb/v7e-m+dp/hard\libm.a(lib_a-s_lib_ver.o)
                                                  f:/prosoft/gcc_arm_none/2019q4/9 2019-q4-major/bin/../lib/gcc/arm-none-eabi/9.2.1/../../../../arm-none-eabi/lib/thumb/v7e-m+dp/hard\libm.a(lib_a-w_asin.o)
__fp_lock_all                                     f:/prosoft/gcc_arm_none/2019q4/9 2019-q4-major/bin/../lib/gcc/arm-none-eabi/9.2.1/../../../../arm-none-eabi/lib/thumb/v7e-m+dp/hard\libc_nano.a(lib_a-findfp.o)
__fp_unlock_all                                   f:/prosoft/gcc_arm_none/2019q4/9 2019-q4-major/bin/../lib/gcc/arm-none-eabi/9.2.1/../../../../arm-none-eabi/lib/thumb/v7e-m+dp/hard\libc_nano.a(lib_a-findfp.o)
__global_locale                                   f:/prosoft/gcc_arm_none/2019q4/9 2019-q4-major/bin/../lib/gcc/arm-none-eabi/9.2.1/../../../../arm-none-eabi/lib/thumb/v7e-m+dp/hard\libc_nano.a(lib_a-locale.o)
                                                  f:/prosoft/gcc_arm_none/2019q4/9 2019-q4-major/bin/../lib/gcc/arm-none-eabi/9.2.1/../../../../arm-none-eabi/lib/thumb/v7e-m+dp/hard\libc_nano.a(lib_a-wctomb_r.o)
                                                  f:/prosoft/gcc_arm_none/2019q4/9 2019-q4-major/bin/../lib/gcc/arm-none-eabi/9.2.1/../../../../arm-none-eabi/lib/thumb/v7e-m+dp/hard\libc_nano.a(lib_a-mbtowc_r.o)
                                                  f:/prosoft/gcc_arm_none/2019q4/9 2019-q4-major/bin/../lib/gcc/arm-none-eabi/9.2.1/../../../../arm-none-eabi/lib/thumb/v7e-m+dp/hard\libc_nano.a(lib_a-localeconv.o)
__hi0bits                                         f:/prosoft/gcc_arm_none/2019q4/9 2019-q4-major/bin/../lib/gcc/arm-none-eabi/9.2.1/../../../../arm-none-eabi/lib/thumb/v7e-m+dp/hard\libc_nano.a(lib_a-mprec.o)
                                                  f:/prosoft/gcc_arm_none/2019q4/9 2019-q4-major/bin/../lib/gcc/arm-none-eabi/9.2.1/../../../../arm-none-eabi/lib/thumb/v7e-m+dp/hard\libc_nano.a(lib_a-dtoa.o)
__i2b                                             f:/prosoft/gcc_arm_none/2019q4/9 2019-q4-major/bin/../lib/gcc/arm-none-eabi/9.2.1/../../../../arm-none-eabi/lib/thumb/v7e-m+dp/hard\libc_nano.a(lib_a-mprec.o)
                                                  f:/prosoft/gcc_arm_none/2019q4/9 2019-q4-major/bin/../lib/gcc/arm-none-eabi/9.2.1/../../../../arm-none-eabi/lib/thumb/v7e-m+dp/hard\libc_nano.a(lib_a-dtoa.o)
__ieee754_asin                                    f:/prosoft/gcc_arm_none/2019q4/9 2019-q4-major/bin/../lib/gcc/arm-none-eabi/9.2.1/../../../../arm-none-eabi/lib/thumb/v7e-m+dp/hard\libm.a(lib_a-e_asin.o)
                                                  f:/prosoft/gcc_arm_none/2019q4/9 2019-q4-major/bin/../lib/gcc/arm-none-eabi/9.2.1/../../../../arm-none-eabi/lib/thumb/v7e-m+dp/hard\libm.a(lib_a-w_asin.o)
__ieee754_atan2                                   f:/prosoft/gcc_arm_none/2019q4/9 2019-q4-major/bin/../lib/gcc/arm-none-eabi/9.2.1/../../../../arm-none-eabi/lib/thumb/v7e-m+dp/hard\libm.a(lib_a-e_atan2.o)
                                                  f:/prosoft/gcc_arm_none/2019q4/9 2019-q4-major/bin/../lib/gcc/arm-none-eabi/9.2.1/../../../../arm-none-eabi/lib/thumb/v7e-m+dp/hard\libm.a(lib_a-w_atan2.o)
__ieee754_sqrt                                    f:/prosoft/gcc_arm_none/2019q4/9 2019-q4-major/bin/../lib/gcc/arm-none-eabi/9.2.1/../../../../arm-none-eabi/lib/thumb/v7e-m+dp/hard\libm.a(lib_a-e_sqrt.o)
                                                  f:/prosoft/gcc_arm_none/2019q4/9 2019-q4-major/bin/../lib/gcc/arm-none-eabi/9.2.1/../../../../arm-none-eabi/lib/thumb/v7e-m+dp/hard\libm.a(lib_a-e_asin.o)
__init_array_end                                  f:/prosoft/gcc_arm_none/2019q4/9 2019-q4-major/bin/../lib/gcc/arm-none-eabi/9.2.1/../../../../arm-none-eabi/lib/thumb/v7e-m+dp/hard\libc_nano.a(lib_a-init.o)
__init_array_start                                f:/prosoft/gcc_arm_none/2019q4/9 2019-q4-major/bin/../lib/gcc/arm-none-eabi/9.2.1/../../../../arm-none-eabi/lib/thumb/v7e-m+dp/hard\libc_nano.a(lib_a-init.o)
__libc_fini_array                                 f:/prosoft/gcc_arm_none/2019q4/9 2019-q4-major/bin/../lib/gcc/arm-none-eabi/9.2.1/../../../../arm-none-eabi/lib/thumb/v7e-m+dp/hard/crt0.o
__libc_init_array                                 f:/prosoft/gcc_arm_none/2019q4/9 2019-q4-major/bin/../lib/gcc/arm-none-eabi/9.2.1/../../../../arm-none-eabi/lib/thumb/v7e-m+dp/hard\libc_nano.a(lib_a-init.o)
                                                  build/startup_stm32f767xx.o
                                                  f:/prosoft/gcc_arm_none/2019q4/9 2019-q4-major/bin/../lib/gcc/arm-none-eabi/9.2.1/../../../../arm-none-eabi/lib/thumb/v7e-m+dp/hard/crt0.o
__lo0bits                                         f:/prosoft/gcc_arm_none/2019q4/9 2019-q4-major/bin/../lib/gcc/arm-none-eabi/9.2.1/../../../../arm-none-eabi/lib/thumb/v7e-m+dp/hard\libc_nano.a(lib_a-mprec.o)
__locale_mb_cur_max                               f:/prosoft/gcc_arm_none/2019q4/9 2019-q4-major/bin/../lib/gcc/arm-none-eabi/9.2.1/../../../../arm-none-eabi/lib/thumb/v7e-m+dp/hard\libc_nano.a(lib_a-locale.o)
__localeconv_l                                    f:/prosoft/gcc_arm_none/2019q4/9 2019-q4-major/bin/../lib/gcc/arm-none-eabi/9.2.1/../../../../arm-none-eabi/lib/thumb/v7e-m+dp/hard\libc_nano.a(lib_a-localeconv.o)
__lock___arc4random_mutex                         f:/prosoft/gcc_arm_none/2019q4/9 2019-q4-major/bin/../lib/gcc/arm-none-eabi/9.2.1/../../../../arm-none-eabi/lib/thumb/v7e-m+dp/hard\libc_nano.a(lib_a-lock.o)
__lock___at_quick_exit_mutex                      f:/prosoft/gcc_arm_none/2019q4/9 2019-q4-major/bin/../lib/gcc/arm-none-eabi/9.2.1/../../../../arm-none-eabi/lib/thumb/v7e-m+dp/hard\libc_nano.a(lib_a-lock.o)
__lock___atexit_recursive_mutex                   f:/prosoft/gcc_arm_none/2019q4/9 2019-q4-major/bin/../lib/gcc/arm-none-eabi/9.2.1/../../../../arm-none-eabi/lib/thumb/v7e-m+dp/hard\libc_nano.a(lib_a-lock.o)
__lock___dd_hash_mutex                            f:/prosoft/gcc_arm_none/2019q4/9 2019-q4-major/bin/../lib/gcc/arm-none-eabi/9.2.1/../../../../arm-none-eabi/lib/thumb/v7e-m+dp/hard\libc_nano.a(lib_a-lock.o)
__lock___env_recursive_mutex                      f:/prosoft/gcc_arm_none/2019q4/9 2019-q4-major/bin/../lib/gcc/arm-none-eabi/9.2.1/../../../../arm-none-eabi/lib/thumb/v7e-m+dp/hard\libc_nano.a(lib_a-lock.o)
__lock___malloc_recursive_mutex                   f:/prosoft/gcc_arm_none/2019q4/9 2019-q4-major/bin/../lib/gcc/arm-none-eabi/9.2.1/../../../../arm-none-eabi/lib/thumb/v7e-m+dp/hard\libc_nano.a(lib_a-lock.o)
                                                  f:/prosoft/gcc_arm_none/2019q4/9 2019-q4-major/bin/../lib/gcc/arm-none-eabi/9.2.1/../../../../arm-none-eabi/lib/thumb/v7e-m+dp/hard\libc_nano.a(lib_a-mlock.o)
__lock___sfp_recursive_mutex                      f:/prosoft/gcc_arm_none/2019q4/9 2019-q4-major/bin/../lib/gcc/arm-none-eabi/9.2.1/../../../../arm-none-eabi/lib/thumb/v7e-m+dp/hard\libc_nano.a(lib_a-lock.o)
                                                  f:/prosoft/gcc_arm_none/2019q4/9 2019-q4-major/bin/../lib/gcc/arm-none-eabi/9.2.1/../../../../arm-none-eabi/lib/thumb/v7e-m+dp/hard\libc_nano.a(lib_a-findfp.o)
__lock___sinit_recursive_mutex                    f:/prosoft/gcc_arm_none/2019q4/9 2019-q4-major/bin/../lib/gcc/arm-none-eabi/9.2.1/../../../../arm-none-eabi/lib/thumb/v7e-m+dp/hard\libc_nano.a(lib_a-lock.o)
                                                  f:/prosoft/gcc_arm_none/2019q4/9 2019-q4-major/bin/../lib/gcc/arm-none-eabi/9.2.1/../../../../arm-none-eabi/lib/thumb/v7e-m+dp/hard\libc_nano.a(lib_a-findfp.o)
__lock___tz_mutex                                 f:/prosoft/gcc_arm_none/2019q4/9 2019-q4-major/bin/../lib/gcc/arm-none-eabi/9.2.1/../../../../arm-none-eabi/lib/thumb/v7e-m+dp/hard\libc_nano.a(lib_a-lock.o)
__lshift                                          f:/prosoft/gcc_arm_none/2019q4/9 2019-q4-major/bin/../lib/gcc/arm-none-eabi/9.2.1/../../../../arm-none-eabi/lib/thumb/v7e-m+dp/hard\libc_nano.a(lib_a-mprec.o)
                                                  f:/prosoft/gcc_arm_none/2019q4/9 2019-q4-major/bin/../lib/gcc/arm-none-eabi/9.2.1/../../../../arm-none-eabi/lib/thumb/v7e-m+dp/hard\libc_nano.a(lib_a-dtoa.o)
__malloc_free_list                                f:/prosoft/gcc_arm_none/2019q4/9 2019-q4-major/bin/../lib/gcc/arm-none-eabi/9.2.1/../../../../arm-none-eabi/lib/thumb/v7e-m+dp/hard\libc_nano.a(lib_a-nano-mallocr.o)
                                                  f:/prosoft/gcc_arm_none/2019q4/9 2019-q4-major/bin/../lib/gcc/arm-none-eabi/9.2.1/../../../../arm-none-eabi/lib/thumb/v7e-m+dp/hard\libc_nano.a(lib_a-nano-freer.o)
__malloc_lock                                     f:/prosoft/gcc_arm_none/2019q4/9 2019-q4-major/bin/../lib/gcc/arm-none-eabi/9.2.1/../../../../arm-none-eabi/lib/thumb/v7e-m+dp/hard\libc_nano.a(lib_a-mlock.o)
                                                  f:/prosoft/gcc_arm_none/2019q4/9 2019-q4-major/bin/../lib/gcc/arm-none-eabi/9.2.1/../../../../arm-none-eabi/lib/thumb/v7e-m+dp/hard\libc_nano.a(lib_a-nano-mallocr.o)
                                                  f:/prosoft/gcc_arm_none/2019q4/9 2019-q4-major/bin/../lib/gcc/arm-none-eabi/9.2.1/../../../../arm-none-eabi/lib/thumb/v7e-m+dp/hard\libc_nano.a(lib_a-nano-freer.o)
__malloc_sbrk_start                               f:/prosoft/gcc_arm_none/2019q4/9 2019-q4-major/bin/../lib/gcc/arm-none-eabi/9.2.1/../../../../arm-none-eabi/lib/thumb/v7e-m+dp/hard\libc_nano.a(lib_a-nano-mallocr.o)
__malloc_unlock                                   f:/prosoft/gcc_arm_none/2019q4/9 2019-q4-major/bin/../lib/gcc/arm-none-eabi/9.2.1/../../../../arm-none-eabi/lib/thumb/v7e-m+dp/hard\libc_nano.a(lib_a-mlock.o)
                                                  f:/prosoft/gcc_arm_none/2019q4/9 2019-q4-major/bin/../lib/gcc/arm-none-eabi/9.2.1/../../../../arm-none-eabi/lib/thumb/v7e-m+dp/hard\libc_nano.a(lib_a-nano-mallocr.o)
                                                  f:/prosoft/gcc_arm_none/2019q4/9 2019-q4-major/bin/../lib/gcc/arm-none-eabi/9.2.1/../../../../arm-none-eabi/lib/thumb/v7e-m+dp/hard\libc_nano.a(lib_a-nano-freer.o)
__mcmp                                            f:/prosoft/gcc_arm_none/2019q4/9 2019-q4-major/bin/../lib/gcc/arm-none-eabi/9.2.1/../../../../arm-none-eabi/lib/thumb/v7e-m+dp/hard\libc_nano.a(lib_a-mprec.o)
                                                  f:/prosoft/gcc_arm_none/2019q4/9 2019-q4-major/bin/../lib/gcc/arm-none-eabi/9.2.1/../../../../arm-none-eabi/lib/thumb/v7e-m+dp/hard\libc_nano.a(lib_a-dtoa.o)
__mdiff                                           f:/prosoft/gcc_arm_none/2019q4/9 2019-q4-major/bin/../lib/gcc/arm-none-eabi/9.2.1/../../../../arm-none-eabi/lib/thumb/v7e-m+dp/hard\libc_nano.a(lib_a-mprec.o)
                                                  f:/prosoft/gcc_arm_none/2019q4/9 2019-q4-major/bin/../lib/gcc/arm-none-eabi/9.2.1/../../../../arm-none-eabi/lib/thumb/v7e-m+dp/hard\libc_nano.a(lib_a-dtoa.o)
__mprec_bigtens                                   f:/prosoft/gcc_arm_none/2019q4/9 2019-q4-major/bin/../lib/gcc/arm-none-eabi/9.2.1/../../../../arm-none-eabi/lib/thumb/v7e-m+dp/hard\libc_nano.a(lib_a-mprec.o)
                                                  f:/prosoft/gcc_arm_none/2019q4/9 2019-q4-major/bin/../lib/gcc/arm-none-eabi/9.2.1/../../../../arm-none-eabi/lib/thumb/v7e-m+dp/hard\libc_nano.a(lib_a-dtoa.o)
__mprec_tens                                      f:/prosoft/gcc_arm_none/2019q4/9 2019-q4-major/bin/../lib/gcc/arm-none-eabi/9.2.1/../../../../arm-none-eabi/lib/thumb/v7e-m+dp/hard\libc_nano.a(lib_a-mprec.o)
                                                  f:/prosoft/gcc_arm_none/2019q4/9 2019-q4-major/bin/../lib/gcc/arm-none-eabi/9.2.1/../../../../arm-none-eabi/lib/thumb/v7e-m+dp/hard\libc_nano.a(lib_a-dtoa.o)
__mprec_tinytens                                  f:/prosoft/gcc_arm_none/2019q4/9 2019-q4-major/bin/../lib/gcc/arm-none-eabi/9.2.1/../../../../arm-none-eabi/lib/thumb/v7e-m+dp/hard\libc_nano.a(lib_a-mprec.o)
__multadd                                         f:/prosoft/gcc_arm_none/2019q4/9 2019-q4-major/bin/../lib/gcc/arm-none-eabi/9.2.1/../../../../arm-none-eabi/lib/thumb/v7e-m+dp/hard\libc_nano.a(lib_a-mprec.o)
                                                  f:/prosoft/gcc_arm_none/2019q4/9 2019-q4-major/bin/../lib/gcc/arm-none-eabi/9.2.1/../../../../arm-none-eabi/lib/thumb/v7e-m+dp/hard\libc_nano.a(lib_a-dtoa.o)
__multiply                                        f:/prosoft/gcc_arm_none/2019q4/9 2019-q4-major/bin/../lib/gcc/arm-none-eabi/9.2.1/../../../../arm-none-eabi/lib/thumb/v7e-m+dp/hard\libc_nano.a(lib_a-mprec.o)
                                                  f:/prosoft/gcc_arm_none/2019q4/9 2019-q4-major/bin/../lib/gcc/arm-none-eabi/9.2.1/../../../../arm-none-eabi/lib/thumb/v7e-m+dp/hard\libc_nano.a(lib_a-dtoa.o)
__no_operation                                    build/inv_mpu_dmp_motion_driver.o
__pow5mult                                        f:/prosoft/gcc_arm_none/2019q4/9 2019-q4-major/bin/../lib/gcc/arm-none-eabi/9.2.1/../../../../arm-none-eabi/lib/thumb/v7e-m+dp/hard\libc_nano.a(lib_a-mprec.o)
                                                  f:/prosoft/gcc_arm_none/2019q4/9 2019-q4-major/bin/../lib/gcc/arm-none-eabi/9.2.1/../../../../arm-none-eabi/lib/thumb/v7e-m+dp/hard\libc_nano.a(lib_a-dtoa.o)
__preinit_array_end                               f:/prosoft/gcc_arm_none/2019q4/9 2019-q4-major/bin/../lib/gcc/arm-none-eabi/9.2.1/../../../../arm-none-eabi/lib/thumb/v7e-m+dp/hard\libc_nano.a(lib_a-init.o)
__preinit_array_start                             f:/prosoft/gcc_arm_none/2019q4/9 2019-q4-major/bin/../lib/gcc/arm-none-eabi/9.2.1/../../../../arm-none-eabi/lib/thumb/v7e-m+dp/hard\libc_nano.a(lib_a-init.o)
__ratio                                           f:/prosoft/gcc_arm_none/2019q4/9 2019-q4-major/bin/../lib/gcc/arm-none-eabi/9.2.1/../../../../arm-none-eabi/lib/thumb/v7e-m+dp/hard\libc_nano.a(lib_a-mprec.o)
__register_frame_info                             f:/prosoft/gcc_arm_none/2019q4/9 2019-q4-major/bin/../lib/gcc/arm-none-eabi/9.2.1/thumb/v7e-m+dp/hard/crtbegin.o
__retarget_lock_acquire                           f:/prosoft/gcc_arm_none/2019q4/9 2019-q4-major/bin/../lib/gcc/arm-none-eabi/9.2.1/../../../../arm-none-eabi/lib/thumb/v7e-m+dp/hard\libc_nano.a(lib_a-lock.o)
__retarget_lock_acquire_recursive                 f:/prosoft/gcc_arm_none/2019q4/9 2019-q4-major/bin/../lib/gcc/arm-none-eabi/9.2.1/../../../../arm-none-eabi/lib/thumb/v7e-m+dp/hard\libc_nano.a(lib_a-lock.o)
                                                  f:/prosoft/gcc_arm_none/2019q4/9 2019-q4-major/bin/../lib/gcc/arm-none-eabi/9.2.1/../../../../arm-none-eabi/lib/thumb/v7e-m+dp/hard\libc_nano.a(lib_a-mlock.o)
                                                  f:/prosoft/gcc_arm_none/2019q4/9 2019-q4-major/bin/../lib/gcc/arm-none-eabi/9.2.1/../../../../arm-none-eabi/lib/thumb/v7e-m+dp/hard\libc_nano.a(lib_a-fflush.o)
                                                  f:/prosoft/gcc_arm_none/2019q4/9 2019-q4-major/bin/../lib/gcc/arm-none-eabi/9.2.1/../../../../arm-none-eabi/lib/thumb/v7e-m+dp/hard\libc_nano.a(lib_a-nano-vfprintf.o)
                                                  f:/prosoft/gcc_arm_none/2019q4/9 2019-q4-major/bin/../lib/gcc/arm-none-eabi/9.2.1/../../../../arm-none-eabi/lib/thumb/v7e-m+dp/hard\libc_nano.a(lib_a-findfp.o)
__retarget_lock_close                             f:/prosoft/gcc_arm_none/2019q4/9 2019-q4-major/bin/../lib/gcc/arm-none-eabi/9.2.1/../../../../arm-none-eabi/lib/thumb/v7e-m+dp/hard\libc_nano.a(lib_a-lock.o)
__retarget_lock_close_recursive                   f:/prosoft/gcc_arm_none/2019q4/9 2019-q4-major/bin/../lib/gcc/arm-none-eabi/9.2.1/../../../../arm-none-eabi/lib/thumb/v7e-m+dp/hard\libc_nano.a(lib_a-lock.o)
__retarget_lock_init                              f:/prosoft/gcc_arm_none/2019q4/9 2019-q4-major/bin/../lib/gcc/arm-none-eabi/9.2.1/../../../../arm-none-eabi/lib/thumb/v7e-m+dp/hard\libc_nano.a(lib_a-lock.o)
__retarget_lock_init_recursive                    f:/prosoft/gcc_arm_none/2019q4/9 2019-q4-major/bin/../lib/gcc/arm-none-eabi/9.2.1/../../../../arm-none-eabi/lib/thumb/v7e-m+dp/hard\libc_nano.a(lib_a-lock.o)
                                                  f:/prosoft/gcc_arm_none/2019q4/9 2019-q4-major/bin/../lib/gcc/arm-none-eabi/9.2.1/../../../../arm-none-eabi/lib/thumb/v7e-m+dp/hard\libc_nano.a(lib_a-findfp.o)
__retarget_lock_release                           f:/prosoft/gcc_arm_none/2019q4/9 2019-q4-major/bin/../lib/gcc/arm-none-eabi/9.2.1/../../../../arm-none-eabi/lib/thumb/v7e-m+dp/hard\libc_nano.a(lib_a-lock.o)
__retarget_lock_release_recursive                 f:/prosoft/gcc_arm_none/2019q4/9 2019-q4-major/bin/../lib/gcc/arm-none-eabi/9.2.1/../../../../arm-none-eabi/lib/thumb/v7e-m+dp/hard\libc_nano.a(lib_a-lock.o)
                                                  f:/prosoft/gcc_arm_none/2019q4/9 2019-q4-major/bin/../lib/gcc/arm-none-eabi/9.2.1/../../../../arm-none-eabi/lib/thumb/v7e-m+dp/hard\libc_nano.a(lib_a-mlock.o)
                                                  f:/prosoft/gcc_arm_none/2019q4/9 2019-q4-major/bin/../lib/gcc/arm-none-eabi/9.2.1/../../../../arm-none-eabi/lib/thumb/v7e-m+dp/hard\libc_nano.a(lib_a-fflush.o)
                                                  f:/prosoft/gcc_arm_none/2019q4/9 2019-q4-major/bin/../lib/gcc/arm-none-eabi/9.2.1/../../../../arm-none-eabi/lib/thumb/v7e-m+dp/hard\libc_nano.a(lib_a-nano-vfprintf.o)
                                                  f:/prosoft/gcc_arm_none/2019q4/9 2019-q4-major/bin/../lib/gcc/arm-none-eabi/9.2.1/../../../../arm-none-eabi/lib/thumb/v7e-m+dp/hard\libc_nano.a(lib_a-findfp.o)
__retarget_lock_try_acquire                       f:/prosoft/gcc_arm_none/2019q4/9 2019-q4-major/bin/../lib/gcc/arm-none-eabi/9.2.1/../../../../arm-none-eabi/lib/thumb/v7e-m+dp/hard\libc_nano.a(lib_a-lock.o)
__retarget_lock_try_acquire_recursive             f:/prosoft/gcc_arm_none/2019q4/9 2019-q4-major/bin/../lib/gcc/arm-none-eabi/9.2.1/../../../../arm-none-eabi/lib/thumb/v7e-m+dp/hard\libc_nano.a(lib_a-lock.o)
__s2b                                             f:/prosoft/gcc_arm_none/2019q4/9 2019-q4-major/bin/../lib/gcc/arm-none-eabi/9.2.1/../../../../arm-none-eabi/lib/thumb/v7e-m+dp/hard\libc_nano.a(lib_a-mprec.o)
__sclose                                          f:/prosoft/gcc_arm_none/2019q4/9 2019-q4-major/bin/../lib/gcc/arm-none-eabi/9.2.1/../../../../arm-none-eabi/lib/thumb/v7e-m+dp/hard\libc_nano.a(lib_a-stdio.o)
                                                  f:/prosoft/gcc_arm_none/2019q4/9 2019-q4-major/bin/../lib/gcc/arm-none-eabi/9.2.1/../../../../arm-none-eabi/lib/thumb/v7e-m+dp/hard\libc_nano.a(lib_a-findfp.o)
__seofread                                        f:/prosoft/gcc_arm_none/2019q4/9 2019-q4-major/bin/../lib/gcc/arm-none-eabi/9.2.1/../../../../arm-none-eabi/lib/thumb/v7e-m+dp/hard\libc_nano.a(lib_a-stdio.o)
__sf_fake_stderr                                  f:/prosoft/gcc_arm_none/2019q4/9 2019-q4-major/bin/../lib/gcc/arm-none-eabi/9.2.1/../../../../arm-none-eabi/lib/thumb/v7e-m+dp/hard\libc_nano.a(lib_a-findfp.o)
                                                  f:/prosoft/gcc_arm_none/2019q4/9 2019-q4-major/bin/../lib/gcc/arm-none-eabi/9.2.1/../../../../arm-none-eabi/lib/thumb/v7e-m+dp/hard\libc_nano.a(lib_a-fflush.o)
                                                  f:/prosoft/gcc_arm_none/2019q4/9 2019-q4-major/bin/../lib/gcc/arm-none-eabi/9.2.1/../../../../arm-none-eabi/lib/thumb/v7e-m+dp/hard\libc_nano.a(lib_a-wsetup.o)
                                                  f:/prosoft/gcc_arm_none/2019q4/9 2019-q4-major/bin/../lib/gcc/arm-none-eabi/9.2.1/../../../../arm-none-eabi/lib/thumb/v7e-m+dp/hard\libc_nano.a(lib_a-wbuf.o)
                                                  f:/prosoft/gcc_arm_none/2019q4/9 2019-q4-major/bin/../lib/gcc/arm-none-eabi/9.2.1/../../../../arm-none-eabi/lib/thumb/v7e-m+dp/hard\libc_nano.a(lib_a-nano-vfprintf.o)
                                                  f:/prosoft/gcc_arm_none/2019q4/9 2019-q4-major/bin/../lib/gcc/arm-none-eabi/9.2.1/../../../../arm-none-eabi/lib/thumb/v7e-m+dp/hard\libc_nano.a(lib_a-impure.o)
__sf_fake_stdin                                   f:/prosoft/gcc_arm_none/2019q4/9 2019-q4-major/bin/../lib/gcc/arm-none-eabi/9.2.1/../../../../arm-none-eabi/lib/thumb/v7e-m+dp/hard\libc_nano.a(lib_a-findfp.o)
                                                  f:/prosoft/gcc_arm_none/2019q4/9 2019-q4-major/bin/../lib/gcc/arm-none-eabi/9.2.1/../../../../arm-none-eabi/lib/thumb/v7e-m+dp/hard\libc_nano.a(lib_a-fflush.o)
                                                  f:/prosoft/gcc_arm_none/2019q4/9 2019-q4-major/bin/../lib/gcc/arm-none-eabi/9.2.1/../../../../arm-none-eabi/lib/thumb/v7e-m+dp/hard\libc_nano.a(lib_a-wsetup.o)
                                                  f:/prosoft/gcc_arm_none/2019q4/9 2019-q4-major/bin/../lib/gcc/arm-none-eabi/9.2.1/../../../../arm-none-eabi/lib/thumb/v7e-m+dp/hard\libc_nano.a(lib_a-wbuf.o)
                                                  f:/prosoft/gcc_arm_none/2019q4/9 2019-q4-major/bin/../lib/gcc/arm-none-eabi/9.2.1/../../../../arm-none-eabi/lib/thumb/v7e-m+dp/hard\libc_nano.a(lib_a-nano-vfprintf.o)
                                                  f:/prosoft/gcc_arm_none/2019q4/9 2019-q4-major/bin/../lib/gcc/arm-none-eabi/9.2.1/../../../../arm-none-eabi/lib/thumb/v7e-m+dp/hard\libc_nano.a(lib_a-impure.o)
__sf_fake_stdout                                  f:/prosoft/gcc_arm_none/2019q4/9 2019-q4-major/bin/../lib/gcc/arm-none-eabi/9.2.1/../../../../arm-none-eabi/lib/thumb/v7e-m+dp/hard\libc_nano.a(lib_a-findfp.o)
                                                  f:/prosoft/gcc_arm_none/2019q4/9 2019-q4-major/bin/../lib/gcc/arm-none-eabi/9.2.1/../../../../arm-none-eabi/lib/thumb/v7e-m+dp/hard\libc_nano.a(lib_a-fflush.o)
                                                  f:/prosoft/gcc_arm_none/2019q4/9 2019-q4-major/bin/../lib/gcc/arm-none-eabi/9.2.1/../../../../arm-none-eabi/lib/thumb/v7e-m+dp/hard\libc_nano.a(lib_a-wsetup.o)
                                                  f:/prosoft/gcc_arm_none/2019q4/9 2019-q4-major/bin/../lib/gcc/arm-none-eabi/9.2.1/../../../../arm-none-eabi/lib/thumb/v7e-m+dp/hard\libc_nano.a(lib_a-wbuf.o)
                                                  f:/prosoft/gcc_arm_none/2019q4/9 2019-q4-major/bin/../lib/gcc/arm-none-eabi/9.2.1/../../../../arm-none-eabi/lib/thumb/v7e-m+dp/hard\libc_nano.a(lib_a-nano-vfprintf.o)
                                                  f:/prosoft/gcc_arm_none/2019q4/9 2019-q4-major/bin/../lib/gcc/arm-none-eabi/9.2.1/../../../../arm-none-eabi/lib/thumb/v7e-m+dp/hard\libc_nano.a(lib_a-impure.o)
__sflush_r                                        f:/prosoft/gcc_arm_none/2019q4/9 2019-q4-major/bin/../lib/gcc/arm-none-eabi/9.2.1/../../../../arm-none-eabi/lib/thumb/v7e-m+dp/hard\libc_nano.a(lib_a-fflush.o)
__sfmoreglue                                      f:/prosoft/gcc_arm_none/2019q4/9 2019-q4-major/bin/../lib/gcc/arm-none-eabi/9.2.1/../../../../arm-none-eabi/lib/thumb/v7e-m+dp/hard\libc_nano.a(lib_a-findfp.o)
__sfp                                             f:/prosoft/gcc_arm_none/2019q4/9 2019-q4-major/bin/../lib/gcc/arm-none-eabi/9.2.1/../../../../arm-none-eabi/lib/thumb/v7e-m+dp/hard\libc_nano.a(lib_a-findfp.o)
__sfp_lock_acquire                                f:/prosoft/gcc_arm_none/2019q4/9 2019-q4-major/bin/../lib/gcc/arm-none-eabi/9.2.1/../../../../arm-none-eabi/lib/thumb/v7e-m+dp/hard\libc_nano.a(lib_a-findfp.o)
__sfp_lock_release                                f:/prosoft/gcc_arm_none/2019q4/9 2019-q4-major/bin/../lib/gcc/arm-none-eabi/9.2.1/../../../../arm-none-eabi/lib/thumb/v7e-m+dp/hard\libc_nano.a(lib_a-findfp.o)
__sfputs_r                                        f:/prosoft/gcc_arm_none/2019q4/9 2019-q4-major/bin/../lib/gcc/arm-none-eabi/9.2.1/../../../../arm-none-eabi/lib/thumb/v7e-m+dp/hard\libc_nano.a(lib_a-nano-vfprintf.o)
__sfvwrite_r                                      f:/prosoft/gcc_arm_none/2019q4/9 2019-q4-major/bin/../lib/gcc/arm-none-eabi/9.2.1/../../../../arm-none-eabi/lib/thumb/v7e-m+dp/hard\libc_nano.a(lib_a-fvwrite.o)
                                                  f:/prosoft/gcc_arm_none/2019q4/9 2019-q4-major/bin/../lib/gcc/arm-none-eabi/9.2.1/../../../../arm-none-eabi/lib/thumb/v7e-m+dp/hard\libc_nano.a(lib_a-nano-vfprintf.o)
__sinit                                           f:/prosoft/gcc_arm_none/2019q4/9 2019-q4-major/bin/../lib/gcc/arm-none-eabi/9.2.1/../../../../arm-none-eabi/lib/thumb/v7e-m+dp/hard\libc_nano.a(lib_a-findfp.o)
                                                  f:/prosoft/gcc_arm_none/2019q4/9 2019-q4-major/bin/../lib/gcc/arm-none-eabi/9.2.1/../../../../arm-none-eabi/lib/thumb/v7e-m+dp/hard\libc_nano.a(lib_a-fflush.o)
                                                  f:/prosoft/gcc_arm_none/2019q4/9 2019-q4-major/bin/../lib/gcc/arm-none-eabi/9.2.1/../../../../arm-none-eabi/lib/thumb/v7e-m+dp/hard\libc_nano.a(lib_a-wsetup.o)
                                                  f:/prosoft/gcc_arm_none/2019q4/9 2019-q4-major/bin/../lib/gcc/arm-none-eabi/9.2.1/../../../../arm-none-eabi/lib/thumb/v7e-m+dp/hard\libc_nano.a(lib_a-wbuf.o)
                                                  f:/prosoft/gcc_arm_none/2019q4/9 2019-q4-major/bin/../lib/gcc/arm-none-eabi/9.2.1/../../../../arm-none-eabi/lib/thumb/v7e-m+dp/hard\libc_nano.a(lib_a-nano-vfprintf.o)
                                                  f:/prosoft/gcc_arm_none/2019q4/9 2019-q4-major/bin/../lib/gcc/arm-none-eabi/9.2.1/../../../../arm-none-eabi/lib/thumb/v7e-m+dp/hard\libc_nano.a(lib_a-printf.o)
__sinit_lock_acquire                              f:/prosoft/gcc_arm_none/2019q4/9 2019-q4-major/bin/../lib/gcc/arm-none-eabi/9.2.1/../../../../arm-none-eabi/lib/thumb/v7e-m+dp/hard\libc_nano.a(lib_a-findfp.o)
__sinit_lock_release                              f:/prosoft/gcc_arm_none/2019q4/9 2019-q4-major/bin/../lib/gcc/arm-none-eabi/9.2.1/../../../../arm-none-eabi/lib/thumb/v7e-m+dp/hard\libc_nano.a(lib_a-findfp.o)
__smakebuf_r                                      f:/prosoft/gcc_arm_none/2019q4/9 2019-q4-major/bin/../lib/gcc/arm-none-eabi/9.2.1/../../../../arm-none-eabi/lib/thumb/v7e-m+dp/hard\libc_nano.a(lib_a-makebuf.o)
                                                  f:/prosoft/gcc_arm_none/2019q4/9 2019-q4-major/bin/../lib/gcc/arm-none-eabi/9.2.1/../../../../arm-none-eabi/lib/thumb/v7e-m+dp/hard\libc_nano.a(lib_a-wsetup.o)
__sprint_r                                        f:/prosoft/gcc_arm_none/2019q4/9 2019-q4-major/bin/../lib/gcc/arm-none-eabi/9.2.1/../../../../arm-none-eabi/lib/thumb/v7e-m+dp/hard\libc_nano.a(lib_a-nano-vfprintf.o)
__sread                                           f:/prosoft/gcc_arm_none/2019q4/9 2019-q4-major/bin/../lib/gcc/arm-none-eabi/9.2.1/../../../../arm-none-eabi/lib/thumb/v7e-m+dp/hard\libc_nano.a(lib_a-stdio.o)
                                                  f:/prosoft/gcc_arm_none/2019q4/9 2019-q4-major/bin/../lib/gcc/arm-none-eabi/9.2.1/../../../../arm-none-eabi/lib/thumb/v7e-m+dp/hard\libc_nano.a(lib_a-findfp.o)
__sseek                                           f:/prosoft/gcc_arm_none/2019q4/9 2019-q4-major/bin/../lib/gcc/arm-none-eabi/9.2.1/../../../../arm-none-eabi/lib/thumb/v7e-m+dp/hard\libc_nano.a(lib_a-stdio.o)
                                                  f:/prosoft/gcc_arm_none/2019q4/9 2019-q4-major/bin/../lib/gcc/arm-none-eabi/9.2.1/../../../../arm-none-eabi/lib/thumb/v7e-m+dp/hard\libc_nano.a(lib_a-findfp.o)
__stack                                           f:/prosoft/gcc_arm_none/2019q4/9 2019-q4-major/bin/../lib/gcc/arm-none-eabi/9.2.1/../../../../arm-none-eabi/lib/thumb/v7e-m+dp/hard/crt0.o
__swbuf                                           f:/prosoft/gcc_arm_none/2019q4/9 2019-q4-major/bin/../lib/gcc/arm-none-eabi/9.2.1/../../../../arm-none-eabi/lib/thumb/v7e-m+dp/hard\libc_nano.a(lib_a-wbuf.o)
__swbuf_r                                         f:/prosoft/gcc_arm_none/2019q4/9 2019-q4-major/bin/../lib/gcc/arm-none-eabi/9.2.1/../../../../arm-none-eabi/lib/thumb/v7e-m+dp/hard\libc_nano.a(lib_a-wbuf.o)
                                                  f:/prosoft/gcc_arm_none/2019q4/9 2019-q4-major/bin/../lib/gcc/arm-none-eabi/9.2.1/../../../../arm-none-eabi/lib/thumb/v7e-m+dp/hard\libc_nano.a(lib_a-nano-vfprintf.o)
__swhatbuf_r                                      f:/prosoft/gcc_arm_none/2019q4/9 2019-q4-major/bin/../lib/gcc/arm-none-eabi/9.2.1/../../../../arm-none-eabi/lib/thumb/v7e-m+dp/hard\libc_nano.a(lib_a-makebuf.o)
__swrite                                          f:/prosoft/gcc_arm_none/2019q4/9 2019-q4-major/bin/../lib/gcc/arm-none-eabi/9.2.1/../../../../arm-none-eabi/lib/thumb/v7e-m+dp/hard\libc_nano.a(lib_a-stdio.o)
                                                  f:/prosoft/gcc_arm_none/2019q4/9 2019-q4-major/bin/../lib/gcc/arm-none-eabi/9.2.1/../../../../arm-none-eabi/lib/thumb/v7e-m+dp/hard\libc_nano.a(lib_a-findfp.o)
__swsetup_r                                       f:/prosoft/gcc_arm_none/2019q4/9 2019-q4-major/bin/../lib/gcc/arm-none-eabi/9.2.1/../../../../arm-none-eabi/lib/thumb/v7e-m+dp/hard\libc_nano.a(lib_a-wsetup.o)
                                                  f:/prosoft/gcc_arm_none/2019q4/9 2019-q4-major/bin/../lib/gcc/arm-none-eabi/9.2.1/../../../../arm-none-eabi/lib/thumb/v7e-m+dp/hard\libc_nano.a(lib_a-fvwrite.o)
                                                  f:/prosoft/gcc_arm_none/2019q4/9 2019-q4-major/bin/../lib/gcc/arm-none-eabi/9.2.1/../../../../arm-none-eabi/lib/thumb/v7e-m+dp/hard\libc_nano.a(lib_a-wbuf.o)
                                                  f:/prosoft/gcc_arm_none/2019q4/9 2019-q4-major/bin/../lib/gcc/arm-none-eabi/9.2.1/../../../../arm-none-eabi/lib/thumb/v7e-m+dp/hard\libc_nano.a(lib_a-nano-vfprintf.o)
__udivmoddi4                                      f:/prosoft/gcc_arm_none/2019q4/9 2019-q4-major/bin/../lib/gcc/arm-none-eabi/9.2.1/thumb/v7e-m+dp/hard\libgcc.a(_udivmoddi4.o)
                                                  f:/prosoft/gcc_arm_none/2019q4/9 2019-q4-major/bin/../lib/gcc/arm-none-eabi/9.2.1/thumb/v7e-m+dp/hard\libgcc.a(_aeabi_uldivmod.o)
                                                  f:/prosoft/gcc_arm_none/2019q4/9 2019-q4-major/bin/../lib/gcc/arm-none-eabi/9.2.1/thumb/v7e-m+dp/hard\libgcc.a(_aeabi_ldivmod.o)
__ulp                                             f:/prosoft/gcc_arm_none/2019q4/9 2019-q4-major/bin/../lib/gcc/arm-none-eabi/9.2.1/../../../../arm-none-eabi/lib/thumb/v7e-m+dp/hard\libc_nano.a(lib_a-mprec.o)
_calloc_r                                         f:/prosoft/gcc_arm_none/2019q4/9 2019-q4-major/bin/../lib/gcc/arm-none-eabi/9.2.1/../../../../arm-none-eabi/lib/thumb/v7e-m+dp/hard\libc_nano.a(lib_a-nano-callocr.o)
                                                  f:/prosoft/gcc_arm_none/2019q4/9 2019-q4-major/bin/../lib/gcc/arm-none-eabi/9.2.1/../../../../arm-none-eabi/lib/thumb/v7e-m+dp/hard\libc_nano.a(lib_a-mprec.o)
_cleanup                                          f:/prosoft/gcc_arm_none/2019q4/9 2019-q4-major/bin/../lib/gcc/arm-none-eabi/9.2.1/../../../../arm-none-eabi/lib/thumb/v7e-m+dp/hard\libc_nano.a(lib_a-findfp.o)
_cleanup_r                                        f:/prosoft/gcc_arm_none/2019q4/9 2019-q4-major/bin/../lib/gcc/arm-none-eabi/9.2.1/../../../../arm-none-eabi/lib/thumb/v7e-m+dp/hard\libc_nano.a(lib_a-findfp.o)
                                                  f:/prosoft/gcc_arm_none/2019q4/9 2019-q4-major/bin/../lib/gcc/arm-none-eabi/9.2.1/../../../../arm-none-eabi/lib/thumb/v7e-m+dp/hard\libc_nano.a(lib_a-makebuf.o)
_close                                            f:/prosoft/gcc_arm_none/2019q4/9 2019-q4-major/bin/../lib/gcc/arm-none-eabi/9.2.1/../../../../arm-none-eabi/lib/thumb/v7e-m+dp/hard\libnosys.a(close.o)
                                                  f:/prosoft/gcc_arm_none/2019q4/9 2019-q4-major/bin/../lib/gcc/arm-none-eabi/9.2.1/../../../../arm-none-eabi/lib/thumb/v7e-m+dp/hard\libc_nano.a(lib_a-closer.o)
_close_r                                          f:/prosoft/gcc_arm_none/2019q4/9 2019-q4-major/bin/../lib/gcc/arm-none-eabi/9.2.1/../../../../arm-none-eabi/lib/thumb/v7e-m+dp/hard\libc_nano.a(lib_a-closer.o)
                                                  f:/prosoft/gcc_arm_none/2019q4/9 2019-q4-major/bin/../lib/gcc/arm-none-eabi/9.2.1/../../../../arm-none-eabi/lib/thumb/v7e-m+dp/hard\libc_nano.a(lib_a-stdio.o)
_ctype_                                           f:/prosoft/gcc_arm_none/2019q4/9 2019-q4-major/bin/../lib/gcc/arm-none-eabi/9.2.1/../../../../arm-none-eabi/lib/thumb/v7e-m+dp/hard\libc_nano.a(lib_a-ctype_.o)
                                                  f:/prosoft/gcc_arm_none/2019q4/9 2019-q4-major/bin/../lib/gcc/arm-none-eabi/9.2.1/../../../../arm-none-eabi/lib/thumb/v7e-m+dp/hard\libc_nano.a(lib_a-locale.o)
_dtoa_r                                           f:/prosoft/gcc_arm_none/2019q4/9 2019-q4-major/bin/../lib/gcc/arm-none-eabi/9.2.1/../../../../arm-none-eabi/lib/thumb/v7e-m+dp/hard\libc_nano.a(lib_a-dtoa.o)
                                                  f:/prosoft/gcc_arm_none/2019q4/9 2019-q4-major/bin/../lib/gcc/arm-none-eabi/9.2.1/../../../../arm-none-eabi/lib/thumb/v7e-m+dp/hard\libc_nano.a(lib_a-nano-vfprintf_float.o)
_ebss                                             build/startup_stm32f767xx.o
_edata                                            build/startup_stm32f767xx.o
_estack                                           build/startup_stm32f767xx.o
_exit                                             f:/prosoft/gcc_arm_none/2019q4/9 2019-q4-major/bin/../lib/gcc/arm-none-eabi/9.2.1/../../../../arm-none-eabi/lib/thumb/v7e-m+dp/hard\libnosys.a(_exit.o)
                                                  f:/prosoft/gcc_arm_none/2019q4/9 2019-q4-major/bin/../lib/gcc/arm-none-eabi/9.2.1/../../../../arm-none-eabi/lib/thumb/v7e-m+dp/hard\libc_nano.a(lib_a-exit.o)
_fflush_r                                         f:/prosoft/gcc_arm_none/2019q4/9 2019-q4-major/bin/../lib/gcc/arm-none-eabi/9.2.1/../../../../arm-none-eabi/lib/thumb/v7e-m+dp/hard\libc_nano.a(lib_a-fflush.o)
                                                  f:/prosoft/gcc_arm_none/2019q4/9 2019-q4-major/bin/../lib/gcc/arm-none-eabi/9.2.1/../../../../arm-none-eabi/lib/thumb/v7e-m+dp/hard\libc_nano.a(lib_a-fvwrite.o)
                                                  f:/prosoft/gcc_arm_none/2019q4/9 2019-q4-major/bin/../lib/gcc/arm-none-eabi/9.2.1/../../../../arm-none-eabi/lib/thumb/v7e-m+dp/hard\libc_nano.a(lib_a-wbuf.o)
                                                  f:/prosoft/gcc_arm_none/2019q4/9 2019-q4-major/bin/../lib/gcc/arm-none-eabi/9.2.1/../../../../arm-none-eabi/lib/thumb/v7e-m+dp/hard\libc_nano.a(lib_a-findfp.o)
_fini                                             f:/prosoft/gcc_arm_none/2019q4/9 2019-q4-major/bin/../lib/gcc/arm-none-eabi/9.2.1/thumb/v7e-m+dp/hard/crti.o
_free_r                                           f:/prosoft/gcc_arm_none/2019q4/9 2019-q4-major/bin/../lib/gcc/arm-none-eabi/9.2.1/../../../../arm-none-eabi/lib/thumb/v7e-m+dp/hard\libc_nano.a(lib_a-nano-freer.o)
                                                  f:/prosoft/gcc_arm_none/2019q4/9 2019-q4-major/bin/../lib/gcc/arm-none-eabi/9.2.1/../../../../arm-none-eabi/lib/thumb/v7e-m+dp/hard\libc_nano.a(lib_a-reent.o)
                                                  f:/prosoft/gcc_arm_none/2019q4/9 2019-q4-major/bin/../lib/gcc/arm-none-eabi/9.2.1/../../../../arm-none-eabi/lib/thumb/v7e-m+dp/hard\libc_nano.a(lib_a-nano-reallocr.o)
                                                  f:/prosoft/gcc_arm_none/2019q4/9 2019-q4-major/bin/../lib/gcc/arm-none-eabi/9.2.1/../../../../arm-none-eabi/lib/thumb/v7e-m+dp/hard\libc_nano.a(lib_a-fvwrite.o)
                                                  f:/prosoft/gcc_arm_none/2019q4/9 2019-q4-major/bin/../lib/gcc/arm-none-eabi/9.2.1/../../../../arm-none-eabi/lib/thumb/v7e-m+dp/hard\libc_nano.a(lib_a-fflush.o)
                                                  f:/prosoft/gcc_arm_none/2019q4/9 2019-q4-major/bin/../lib/gcc/arm-none-eabi/9.2.1/../../../../arm-none-eabi/lib/thumb/v7e-m+dp/hard\libc_nano.a(lib_a-wsetup.o)
                                                  f:/prosoft/gcc_arm_none/2019q4/9 2019-q4-major/bin/../lib/gcc/arm-none-eabi/9.2.1/../../../../arm-none-eabi/lib/thumb/v7e-m+dp/hard\libc_nano.a(lib_a-malloc.o)
_fstat                                            f:/prosoft/gcc_arm_none/2019q4/9 2019-q4-major/bin/../lib/gcc/arm-none-eabi/9.2.1/../../../../arm-none-eabi/lib/thumb/v7e-m+dp/hard\libnosys.a(fstat.o)
                                                  f:/prosoft/gcc_arm_none/2019q4/9 2019-q4-major/bin/../lib/gcc/arm-none-eabi/9.2.1/../../../../arm-none-eabi/lib/thumb/v7e-m+dp/hard\libc_nano.a(lib_a-fstatr.o)
_fstat_r                                          f:/prosoft/gcc_arm_none/2019q4/9 2019-q4-major/bin/../lib/gcc/arm-none-eabi/9.2.1/../../../../arm-none-eabi/lib/thumb/v7e-m+dp/hard\libc_nano.a(lib_a-fstatr.o)
                                                  f:/prosoft/gcc_arm_none/2019q4/9 2019-q4-major/bin/../lib/gcc/arm-none-eabi/9.2.1/../../../../arm-none-eabi/lib/thumb/v7e-m+dp/hard\libc_nano.a(lib_a-makebuf.o)
_fwalk                                            f:/prosoft/gcc_arm_none/2019q4/9 2019-q4-major/bin/../lib/gcc/arm-none-eabi/9.2.1/../../../../arm-none-eabi/lib/thumb/v7e-m+dp/hard\libc_nano.a(lib_a-fwalk.o)
                                                  f:/prosoft/gcc_arm_none/2019q4/9 2019-q4-major/bin/../lib/gcc/arm-none-eabi/9.2.1/../../../../arm-none-eabi/lib/thumb/v7e-m+dp/hard\libc_nano.a(lib_a-findfp.o)
_fwalk_reent                                      f:/prosoft/gcc_arm_none/2019q4/9 2019-q4-major/bin/../lib/gcc/arm-none-eabi/9.2.1/../../../../arm-none-eabi/lib/thumb/v7e-m+dp/hard\libc_nano.a(lib_a-fwalk.o)
                                                  f:/prosoft/gcc_arm_none/2019q4/9 2019-q4-major/bin/../lib/gcc/arm-none-eabi/9.2.1/../../../../arm-none-eabi/lib/thumb/v7e-m+dp/hard\libc_nano.a(lib_a-fflush.o)
                                                  f:/prosoft/gcc_arm_none/2019q4/9 2019-q4-major/bin/../lib/gcc/arm-none-eabi/9.2.1/../../../../arm-none-eabi/lib/thumb/v7e-m+dp/hard\libc_nano.a(lib_a-findfp.o)
_global_impure_ptr                                f:/prosoft/gcc_arm_none/2019q4/9 2019-q4-major/bin/../lib/gcc/arm-none-eabi/9.2.1/../../../../arm-none-eabi/lib/thumb/v7e-m+dp/hard\libc_nano.a(lib_a-impure.o)
                                                  f:/prosoft/gcc_arm_none/2019q4/9 2019-q4-major/bin/../lib/gcc/arm-none-eabi/9.2.1/../../../../arm-none-eabi/lib/thumb/v7e-m+dp/hard\libc_nano.a(lib_a-fflush.o)
                                                  f:/prosoft/gcc_arm_none/2019q4/9 2019-q4-major/bin/../lib/gcc/arm-none-eabi/9.2.1/../../../../arm-none-eabi/lib/thumb/v7e-m+dp/hard\libc_nano.a(lib_a-findfp.o)
                                                  f:/prosoft/gcc_arm_none/2019q4/9 2019-q4-major/bin/../lib/gcc/arm-none-eabi/9.2.1/../../../../arm-none-eabi/lib/thumb/v7e-m+dp/hard\libc_nano.a(lib_a-exit.o)
_impure_ptr                                       f:/prosoft/gcc_arm_none/2019q4/9 2019-q4-major/bin/../lib/gcc/arm-none-eabi/9.2.1/../../../../arm-none-eabi/lib/thumb/v7e-m+dp/hard\libc_nano.a(lib_a-impure.o)
                                                  f:/prosoft/gcc_arm_none/2019q4/9 2019-q4-major/bin/../lib/gcc/arm-none-eabi/9.2.1/../../../../arm-none-eabi/lib/thumb/v7e-m+dp/hard\libc_nano.a(lib_a-errno.o)
                                                  f:/prosoft/gcc_arm_none/2019q4/9 2019-q4-major/bin/../lib/gcc/arm-none-eabi/9.2.1/../../../../arm-none-eabi/lib/thumb/v7e-m+dp/hard\libc_nano.a(lib_a-reent.o)
                                                  f:/prosoft/gcc_arm_none/2019q4/9 2019-q4-major/bin/../lib/gcc/arm-none-eabi/9.2.1/../../../../arm-none-eabi/lib/thumb/v7e-m+dp/hard\libc_nano.a(lib_a-locale.o)
                                                  f:/prosoft/gcc_arm_none/2019q4/9 2019-q4-major/bin/../lib/gcc/arm-none-eabi/9.2.1/../../../../arm-none-eabi/lib/thumb/v7e-m+dp/hard\libc_nano.a(lib_a-fflush.o)
                                                  f:/prosoft/gcc_arm_none/2019q4/9 2019-q4-major/bin/../lib/gcc/arm-none-eabi/9.2.1/../../../../arm-none-eabi/lib/thumb/v7e-m+dp/hard\libc_nano.a(lib_a-wsetup.o)
                                                  f:/prosoft/gcc_arm_none/2019q4/9 2019-q4-major/bin/../lib/gcc/arm-none-eabi/9.2.1/../../../../arm-none-eabi/lib/thumb/v7e-m+dp/hard\libc_nano.a(lib_a-wbuf.o)
                                                  f:/prosoft/gcc_arm_none/2019q4/9 2019-q4-major/bin/../lib/gcc/arm-none-eabi/9.2.1/../../../../arm-none-eabi/lib/thumb/v7e-m+dp/hard\libc_nano.a(lib_a-nano-vfprintf.o)
                                                  f:/prosoft/gcc_arm_none/2019q4/9 2019-q4-major/bin/../lib/gcc/arm-none-eabi/9.2.1/../../../../arm-none-eabi/lib/thumb/v7e-m+dp/hard\libc_nano.a(lib_a-malloc.o)
                                                  f:/prosoft/gcc_arm_none/2019q4/9 2019-q4-major/bin/../lib/gcc/arm-none-eabi/9.2.1/../../../../arm-none-eabi/lib/thumb/v7e-m+dp/hard\libc_nano.a(lib_a-findfp.o)
                                                  f:/prosoft/gcc_arm_none/2019q4/9 2019-q4-major/bin/../lib/gcc/arm-none-eabi/9.2.1/../../../../arm-none-eabi/lib/thumb/v7e-m+dp/hard\libc_nano.a(lib_a-printf.o)
_init                                             f:/prosoft/gcc_arm_none/2019q4/9 2019-q4-major/bin/../lib/gcc/arm-none-eabi/9.2.1/thumb/v7e-m+dp/hard/crti.o
                                                  f:/prosoft/gcc_arm_none/2019q4/9 2019-q4-major/bin/../lib/gcc/arm-none-eabi/9.2.1/../../../../arm-none-eabi/lib/thumb/v7e-m+dp/hard\libc_nano.a(lib_a-init.o)
_iprintf_r                                        f:/prosoft/gcc_arm_none/2019q4/9 2019-q4-major/bin/../lib/gcc/arm-none-eabi/9.2.1/../../../../arm-none-eabi/lib/thumb/v7e-m+dp/hard\libc_nano.a(lib_a-printf.o)
_isatty                                           f:/prosoft/gcc_arm_none/2019q4/9 2019-q4-major/bin/../lib/gcc/arm-none-eabi/9.2.1/../../../../arm-none-eabi/lib/thumb/v7e-m+dp/hard\libnosys.a(isatty.o)
                                                  f:/prosoft/gcc_arm_none/2019q4/9 2019-q4-major/bin/../lib/gcc/arm-none-eabi/9.2.1/../../../../arm-none-eabi/lib/thumb/v7e-m+dp/hard\libc_nano.a(lib_a-isattyr.o)
_isatty_r                                         f:/prosoft/gcc_arm_none/2019q4/9 2019-q4-major/bin/../lib/gcc/arm-none-eabi/9.2.1/../../../../arm-none-eabi/lib/thumb/v7e-m+dp/hard\libc_nano.a(lib_a-isattyr.o)
                                                  f:/prosoft/gcc_arm_none/2019q4/9 2019-q4-major/bin/../lib/gcc/arm-none-eabi/9.2.1/../../../../arm-none-eabi/lib/thumb/v7e-m+dp/hard\libc_nano.a(lib_a-makebuf.o)
_localeconv_r                                     f:/prosoft/gcc_arm_none/2019q4/9 2019-q4-major/bin/../lib/gcc/arm-none-eabi/9.2.1/../../../../arm-none-eabi/lib/thumb/v7e-m+dp/hard\libc_nano.a(lib_a-localeconv.o)
                                                  f:/prosoft/gcc_arm_none/2019q4/9 2019-q4-major/bin/../lib/gcc/arm-none-eabi/9.2.1/../../../../arm-none-eabi/lib/thumb/v7e-m+dp/hard\libc_nano.a(lib_a-nano-vfprintf_float.o)
_lseek                                            f:/prosoft/gcc_arm_none/2019q4/9 2019-q4-major/bin/../lib/gcc/arm-none-eabi/9.2.1/../../../../arm-none-eabi/lib/thumb/v7e-m+dp/hard\libnosys.a(lseek.o)
                                                  f:/prosoft/gcc_arm_none/2019q4/9 2019-q4-major/bin/../lib/gcc/arm-none-eabi/9.2.1/../../../../arm-none-eabi/lib/thumb/v7e-m+dp/hard\libc_nano.a(lib_a-lseekr.o)
_lseek_r                                          f:/prosoft/gcc_arm_none/2019q4/9 2019-q4-major/bin/../lib/gcc/arm-none-eabi/9.2.1/../../../../arm-none-eabi/lib/thumb/v7e-m+dp/hard\libc_nano.a(lib_a-lseekr.o)
                                                  f:/prosoft/gcc_arm_none/2019q4/9 2019-q4-major/bin/../lib/gcc/arm-none-eabi/9.2.1/../../../../arm-none-eabi/lib/thumb/v7e-m+dp/hard\libc_nano.a(lib_a-stdio.o)
_mainCRTStartup                                   f:/prosoft/gcc_arm_none/2019q4/9 2019-q4-major/bin/../lib/gcc/arm-none-eabi/9.2.1/../../../../arm-none-eabi/lib/thumb/v7e-m+dp/hard/crt0.o
_malloc_r                                         f:/prosoft/gcc_arm_none/2019q4/9 2019-q4-major/bin/../lib/gcc/arm-none-eabi/9.2.1/../../../../arm-none-eabi/lib/thumb/v7e-m+dp/hard\libc_nano.a(lib_a-nano-mallocr.o)
                                                  f:/prosoft/gcc_arm_none/2019q4/9 2019-q4-major/bin/../lib/gcc/arm-none-eabi/9.2.1/../../../../arm-none-eabi/lib/thumb/v7e-m+dp/hard\libc_nano.a(lib_a-nano-reallocr.o)
                                                  f:/prosoft/gcc_arm_none/2019q4/9 2019-q4-major/bin/../lib/gcc/arm-none-eabi/9.2.1/../../../../arm-none-eabi/lib/thumb/v7e-m+dp/hard\libc_nano.a(lib_a-makebuf.o)
                                                  f:/prosoft/gcc_arm_none/2019q4/9 2019-q4-major/bin/../lib/gcc/arm-none-eabi/9.2.1/../../../../arm-none-eabi/lib/thumb/v7e-m+dp/hard\libc_nano.a(lib_a-fvwrite.o)
                                                  f:/prosoft/gcc_arm_none/2019q4/9 2019-q4-major/bin/../lib/gcc/arm-none-eabi/9.2.1/../../../../arm-none-eabi/lib/thumb/v7e-m+dp/hard\libc_nano.a(lib_a-nano-callocr.o)
                                                  f:/prosoft/gcc_arm_none/2019q4/9 2019-q4-major/bin/../lib/gcc/arm-none-eabi/9.2.1/../../../../arm-none-eabi/lib/thumb/v7e-m+dp/hard\libc_nano.a(lib_a-malloc.o)
                                                  f:/prosoft/gcc_arm_none/2019q4/9 2019-q4-major/bin/../lib/gcc/arm-none-eabi/9.2.1/../../../../arm-none-eabi/lib/thumb/v7e-m+dp/hard\libc_nano.a(lib_a-findfp.o)
_malloc_usable_size_r                             f:/prosoft/gcc_arm_none/2019q4/9 2019-q4-major/bin/../lib/gcc/arm-none-eabi/9.2.1/../../../../arm-none-eabi/lib/thumb/v7e-m+dp/hard\libc_nano.a(lib_a-nano-msizer.o)
                                                  f:/prosoft/gcc_arm_none/2019q4/9 2019-q4-major/bin/../lib/gcc/arm-none-eabi/9.2.1/../../../../arm-none-eabi/lib/thumb/v7e-m+dp/hard\libc_nano.a(lib_a-nano-reallocr.o)
_mbtowc_r                                         f:/prosoft/gcc_arm_none/2019q4/9 2019-q4-major/bin/../lib/gcc/arm-none-eabi/9.2.1/../../../../arm-none-eabi/lib/thumb/v7e-m+dp/hard\libc_nano.a(lib_a-mbtowc_r.o)
_mprec_log10                                      f:/prosoft/gcc_arm_none/2019q4/9 2019-q4-major/bin/../lib/gcc/arm-none-eabi/9.2.1/../../../../arm-none-eabi/lib/thumb/v7e-m+dp/hard\libc_nano.a(lib_a-mprec.o)
_printf_common                                    f:/prosoft/gcc_arm_none/2019q4/9 2019-q4-major/bin/../lib/gcc/arm-none-eabi/9.2.1/../../../../arm-none-eabi/lib/thumb/v7e-m+dp/hard\libc_nano.a(lib_a-nano-vfprintf_i.o)
                                                  f:/prosoft/gcc_arm_none/2019q4/9 2019-q4-major/bin/../lib/gcc/arm-none-eabi/9.2.1/../../../../arm-none-eabi/lib/thumb/v7e-m+dp/hard\libc_nano.a(lib_a-nano-vfprintf_float.o)
_printf_float                                     f:/prosoft/gcc_arm_none/2019q4/9 2019-q4-major/bin/../lib/gcc/arm-none-eabi/9.2.1/../../../../arm-none-eabi/lib/thumb/v7e-m+dp/hard\libc_nano.a(lib_a-nano-vfprintf_float.o)
                                                  f:/prosoft/gcc_arm_none/2019q4/9 2019-q4-major/bin/../lib/gcc/arm-none-eabi/9.2.1/../../../../arm-none-eabi/lib/thumb/v7e-m+dp/hard\libc_nano.a(lib_a-nano-vfprintf.o)
_printf_i                                         f:/prosoft/gcc_arm_none/2019q4/9 2019-q4-major/bin/../lib/gcc/arm-none-eabi/9.2.1/../../../../arm-none-eabi/lib/thumb/v7e-m+dp/hard\libc_nano.a(lib_a-nano-vfprintf_i.o)
                                                  f:/prosoft/gcc_arm_none/2019q4/9 2019-q4-major/bin/../lib/gcc/arm-none-eabi/9.2.1/../../../../arm-none-eabi/lib/thumb/v7e-m+dp/hard\libc_nano.a(lib_a-nano-vfprintf.o)
_printf_r                                         f:/prosoft/gcc_arm_none/2019q4/9 2019-q4-major/bin/../lib/gcc/arm-none-eabi/9.2.1/../../../../arm-none-eabi/lib/thumb/v7e-m+dp/hard\libc_nano.a(lib_a-printf.o)
_read                                             f:/prosoft/gcc_arm_none/2019q4/9 2019-q4-major/bin/../lib/gcc/arm-none-eabi/9.2.1/../../../../arm-none-eabi/lib/thumb/v7e-m+dp/hard\libnosys.a(read.o)
                                                  f:/prosoft/gcc_arm_none/2019q4/9 2019-q4-major/bin/../lib/gcc/arm-none-eabi/9.2.1/../../../../arm-none-eabi/lib/thumb/v7e-m+dp/hard\libc_nano.a(lib_a-readr.o)
_read_r                                           f:/prosoft/gcc_arm_none/2019q4/9 2019-q4-major/bin/../lib/gcc/arm-none-eabi/9.2.1/../../../../arm-none-eabi/lib/thumb/v7e-m+dp/hard\libc_nano.a(lib_a-readr.o)
                                                  f:/prosoft/gcc_arm_none/2019q4/9 2019-q4-major/bin/../lib/gcc/arm-none-eabi/9.2.1/../../../../arm-none-eabi/lib/thumb/v7e-m+dp/hard\libc_nano.a(lib_a-stdio.o)
_realloc_r                                        f:/prosoft/gcc_arm_none/2019q4/9 2019-q4-major/bin/../lib/gcc/arm-none-eabi/9.2.1/../../../../arm-none-eabi/lib/thumb/v7e-m+dp/hard\libc_nano.a(lib_a-nano-reallocr.o)
                                                  f:/prosoft/gcc_arm_none/2019q4/9 2019-q4-major/bin/../lib/gcc/arm-none-eabi/9.2.1/../../../../arm-none-eabi/lib/thumb/v7e-m+dp/hard\libc_nano.a(lib_a-fvwrite.o)
_reclaim_reent                                    f:/prosoft/gcc_arm_none/2019q4/9 2019-q4-major/bin/../lib/gcc/arm-none-eabi/9.2.1/../../../../arm-none-eabi/lib/thumb/v7e-m+dp/hard\libc_nano.a(lib_a-reent.o)
_sbrk                                             f:/prosoft/gcc_arm_none/2019q4/9 2019-q4-major/bin/../lib/gcc/arm-none-eabi/9.2.1/../../../../arm-none-eabi/lib/thumb/v7e-m+dp/hard\libnosys.a(sbrk.o)
                                                  f:/prosoft/gcc_arm_none/2019q4/9 2019-q4-major/bin/../lib/gcc/arm-none-eabi/9.2.1/../../../../arm-none-eabi/lib/thumb/v7e-m+dp/hard\libc_nano.a(lib_a-sbrkr.o)
_sbrk_r                                           f:/prosoft/gcc_arm_none/2019q4/9 2019-q4-major/bin/../lib/gcc/arm-none-eabi/9.2.1/../../../../arm-none-eabi/lib/thumb/v7e-m+dp/hard\libc_nano.a(lib_a-sbrkr.o)
                                                  f:/prosoft/gcc_arm_none/2019q4/9 2019-q4-major/bin/../lib/gcc/arm-none-eabi/9.2.1/../../../../arm-none-eabi/lib/thumb/v7e-m+dp/hard\libc_nano.a(lib_a-nano-mallocr.o)
_sbss                                             build/startup_stm32f767xx.o
_sdata                                            build/startup_stm32f767xx.o
_setlocale_r                                      f:/prosoft/gcc_arm_none/2019q4/9 2019-q4-major/bin/../lib/gcc/arm-none-eabi/9.2.1/../../../../arm-none-eabi/lib/thumb/v7e-m+dp/hard\libc_nano.a(lib_a-locale.o)
_sidata                                           build/startup_stm32f767xx.o
_start                                            f:/prosoft/gcc_arm_none/2019q4/9 2019-q4-major/bin/../lib/gcc/arm-none-eabi/9.2.1/../../../../arm-none-eabi/lib/thumb/v7e-m+dp/hard/crt0.o
_vfiprintf_r                                      f:/prosoft/gcc_arm_none/2019q4/9 2019-q4-major/bin/../lib/gcc/arm-none-eabi/9.2.1/../../../../arm-none-eabi/lib/thumb/v7e-m+dp/hard\libc_nano.a(lib_a-nano-vfprintf.o)
_vfprintf_r                                       f:/prosoft/gcc_arm_none/2019q4/9 2019-q4-major/bin/../lib/gcc/arm-none-eabi/9.2.1/../../../../arm-none-eabi/lib/thumb/v7e-m+dp/hard\libc_nano.a(lib_a-nano-vfprintf.o)
                                                  f:/prosoft/gcc_arm_none/2019q4/9 2019-q4-major/bin/../lib/gcc/arm-none-eabi/9.2.1/../../../../arm-none-eabi/lib/thumb/v7e-m+dp/hard\libc_nano.a(lib_a-printf.o)
_wctomb_r                                         f:/prosoft/gcc_arm_none/2019q4/9 2019-q4-major/bin/../lib/gcc/arm-none-eabi/9.2.1/../../../../arm-none-eabi/lib/thumb/v7e-m+dp/hard\libc_nano.a(lib_a-wctomb_r.o)
_write                                            build/printf_redefine.o
                                                  f:/prosoft/gcc_arm_none/2019q4/9 2019-q4-major/bin/../lib/gcc/arm-none-eabi/9.2.1/../../../../arm-none-eabi/lib/thumb/v7e-m+dp/hard\libc_nano.a(lib_a-writer.o)
_write_r                                          f:/prosoft/gcc_arm_none/2019q4/9 2019-q4-major/bin/../lib/gcc/arm-none-eabi/9.2.1/../../../../arm-none-eabi/lib/thumb/v7e-m+dp/hard\libc_nano.a(lib_a-writer.o)
                                                  f:/prosoft/gcc_arm_none/2019q4/9 2019-q4-major/bin/../lib/gcc/arm-none-eabi/9.2.1/../../../../arm-none-eabi/lib/thumb/v7e-m+dp/hard\libc_nano.a(lib_a-stdio.o)
asin                                              f:/prosoft/gcc_arm_none/2019q4/9 2019-q4-major/bin/../lib/gcc/arm-none-eabi/9.2.1/../../../../arm-none-eabi/lib/thumb/v7e-m+dp/hard\libm.a(lib_a-w_asin.o)
                                                  build/attitude.o
atan                                              f:/prosoft/gcc_arm_none/2019q4/9 2019-q4-major/bin/../lib/gcc/arm-none-eabi/9.2.1/../../../../arm-none-eabi/lib/thumb/v7e-m+dp/hard\libm.a(lib_a-s_atan.o)
                                                  f:/prosoft/gcc_arm_none/2019q4/9 2019-q4-major/bin/../lib/gcc/arm-none-eabi/9.2.1/../../../../arm-none-eabi/lib/thumb/v7e-m+dp/hard\libm.a(lib_a-e_atan2.o)
atan2                                             f:/prosoft/gcc_arm_none/2019q4/9 2019-q4-major/bin/../lib/gcc/arm-none-eabi/9.2.1/../../../../arm-none-eabi/lib/thumb/v7e-m+dp/hard\libm.a(lib_a-w_atan2.o)
                                                  build/attitude.o
atexit                                            f:/prosoft/gcc_arm_none/2019q4/9 2019-q4-major/bin/../lib/gcc/arm-none-eabi/9.2.1/../../../../arm-none-eabi/lib/thumb/v7e-m+dp/hard/crt0.o
attitude_self_Creat                               build/attitude.o
                                                  build/attitude_task.o
attitude_self_delete                              build/attitude.o
cleanup_glue                                      f:/prosoft/gcc_arm_none/2019q4/9 2019-q4-major/bin/../lib/gcc/arm-none-eabi/9.2.1/../../../../arm-none-eabi/lib/thumb/v7e-m+dp/hard\libc_nano.a(lib_a-reent.o)
defaultTaskHandle                                 build/freertos.o
defaultTask_attributes                            build/freertos.o
dmp_enable_6x_lp_quat                             build/inv_mpu_dmp_motion_driver.o
dmp_enable_feature                                build/inv_mpu_dmp_motion_driver.o
                                                  build/mpu6050.o
dmp_enable_gyro_cal                               build/inv_mpu_dmp_motion_driver.o
dmp_enable_lp_quat                                build/inv_mpu_dmp_motion_driver.o
dmp_get_enabled_features                          build/inv_mpu_dmp_motion_driver.o
dmp_get_fifo_rate                                 build/inv_mpu_dmp_motion_driver.o
dmp_get_pedometer_step_count                      build/inv_mpu_dmp_motion_driver.o
dmp_get_pedometer_walk_time                       build/inv_mpu_dmp_motion_driver.o
dmp_load_motion_driver_firmware                   build/inv_mpu_dmp_motion_driver.o
                                                  build/mpu6050.o
dmp_read_fifo                                     build/inv_mpu_dmp_motion_driver.o
                                                  build/mpu6050.o
dmp_register_android_orient_cb                    build/inv_mpu_dmp_motion_driver.o
dmp_register_tap_cb                               build/inv_mpu_dmp_motion_driver.o
dmp_set_accel_bias                                build/inv_mpu_dmp_motion_driver.o
dmp_set_fifo_rate                                 build/inv_mpu_dmp_motion_driver.o
                                                  build/mpu6050.o
dmp_set_gyro_bias                                 build/inv_mpu_dmp_motion_driver.o
dmp_set_interrupt_mode                            build/inv_mpu_dmp_motion_driver.o
dmp_set_orientation                               build/inv_mpu_dmp_motion_driver.o
                                                  build/mpu6050.o
dmp_set_pedometer_step_count                      build/inv_mpu_dmp_motion_driver.o
dmp_set_pedometer_walk_time                       build/inv_mpu_dmp_motion_driver.o
dmp_set_shake_reject_thresh                       build/inv_mpu_dmp_motion_driver.o
dmp_set_shake_reject_time                         build/inv_mpu_dmp_motion_driver.o
dmp_set_shake_reject_timeout                      build/inv_mpu_dmp_motion_driver.o
dmp_set_tap_axes                                  build/inv_mpu_dmp_motion_driver.o
dmp_set_tap_count                                 build/inv_mpu_dmp_motion_driver.o
dmp_set_tap_thresh                                build/inv_mpu_dmp_motion_driver.o
dmp_set_tap_time                                  build/inv_mpu_dmp_motion_driver.o
dmp_set_tap_time_multi                            build/inv_mpu_dmp_motion_driver.o
eTaskGetState                                     build/tasks.o
                                                  build/cmsis_os2.o
end                                               f:/prosoft/gcc_arm_none/2019q4/9 2019-q4-major/bin/../lib/gcc/arm-none-eabi/9.2.1/../../../../arm-none-eabi/lib/thumb/v7e-m+dp/hard\libnosys.a(sbrk.o)
errno                                             f:/prosoft/gcc_arm_none/2019q4/9 2019-q4-major/bin/../lib/gcc/arm-none-eabi/9.2.1/../../../../arm-none-eabi/lib/thumb/v7e-m+dp/hard\libc_nano.a(lib_a-reent.o)
                                                  f:/prosoft/gcc_arm_none/2019q4/9 2019-q4-major/bin/../lib/gcc/arm-none-eabi/9.2.1/../../../../arm-none-eabi/lib/thumb/v7e-m+dp/hard\libnosys.a(read.o)
                                                  f:/prosoft/gcc_arm_none/2019q4/9 2019-q4-major/bin/../lib/gcc/arm-none-eabi/9.2.1/../../../../arm-none-eabi/lib/thumb/v7e-m+dp/hard\libnosys.a(lseek.o)
                                                  f:/prosoft/gcc_arm_none/2019q4/9 2019-q4-major/bin/../lib/gcc/arm-none-eabi/9.2.1/../../../../arm-none-eabi/lib/thumb/v7e-m+dp/hard\libnosys.a(isatty.o)
                                                  f:/prosoft/gcc_arm_none/2019q4/9 2019-q4-major/bin/../lib/gcc/arm-none-eabi/9.2.1/../../../../arm-none-eabi/lib/thumb/v7e-m+dp/hard\libnosys.a(fstat.o)
                                                  f:/prosoft/gcc_arm_none/2019q4/9 2019-q4-major/bin/../lib/gcc/arm-none-eabi/9.2.1/../../../../arm-none-eabi/lib/thumb/v7e-m+dp/hard\libnosys.a(close.o)
                                                  f:/prosoft/gcc_arm_none/2019q4/9 2019-q4-major/bin/../lib/gcc/arm-none-eabi/9.2.1/../../../../arm-none-eabi/lib/thumb/v7e-m+dp/hard\libc_nano.a(lib_a-isattyr.o)
                                                  f:/prosoft/gcc_arm_none/2019q4/9 2019-q4-major/bin/../lib/gcc/arm-none-eabi/9.2.1/../../../../arm-none-eabi/lib/thumb/v7e-m+dp/hard\libc_nano.a(lib_a-fstatr.o)
                                                  f:/prosoft/gcc_arm_none/2019q4/9 2019-q4-major/bin/../lib/gcc/arm-none-eabi/9.2.1/../../../../arm-none-eabi/lib/thumb/v7e-m+dp/hard\libc_nano.a(lib_a-readr.o)
                                                  f:/prosoft/gcc_arm_none/2019q4/9 2019-q4-major/bin/../lib/gcc/arm-none-eabi/9.2.1/../../../../arm-none-eabi/lib/thumb/v7e-m+dp/hard\libc_nano.a(lib_a-lseekr.o)
                                                  f:/prosoft/gcc_arm_none/2019q4/9 2019-q4-major/bin/../lib/gcc/arm-none-eabi/9.2.1/../../../../arm-none-eabi/lib/thumb/v7e-m+dp/hard\libc_nano.a(lib_a-closer.o)
                                                  f:/prosoft/gcc_arm_none/2019q4/9 2019-q4-major/bin/../lib/gcc/arm-none-eabi/9.2.1/../../../../arm-none-eabi/lib/thumb/v7e-m+dp/hard\libc_nano.a(lib_a-writer.o)
                                                  f:/prosoft/gcc_arm_none/2019q4/9 2019-q4-major/bin/../lib/gcc/arm-none-eabi/9.2.1/../../../../arm-none-eabi/lib/thumb/v7e-m+dp/hard\libc_nano.a(lib_a-sbrkr.o)
exit                                              f:/prosoft/gcc_arm_none/2019q4/9 2019-q4-major/bin/../lib/gcc/arm-none-eabi/9.2.1/../../../../arm-none-eabi/lib/thumb/v7e-m+dp/hard\libc_nano.a(lib_a-exit.o)
                                                  f:/prosoft/gcc_arm_none/2019q4/9 2019-q4-major/bin/../lib/gcc/arm-none-eabi/9.2.1/../../../../arm-none-eabi/lib/thumb/v7e-m+dp/hard/crt0.o
fabs                                              f:/prosoft/gcc_arm_none/2019q4/9 2019-q4-major/bin/../lib/gcc/arm-none-eabi/9.2.1/../../../../arm-none-eabi/lib/thumb/v7e-m+dp/hard\libm.a(lib_a-s_fabs.o)
                                                  f:/prosoft/gcc_arm_none/2019q4/9 2019-q4-major/bin/../lib/gcc/arm-none-eabi/9.2.1/../../../../arm-none-eabi/lib/thumb/v7e-m+dp/hard\libm.a(lib_a-s_atan.o)
                                                  f:/prosoft/gcc_arm_none/2019q4/9 2019-q4-major/bin/../lib/gcc/arm-none-eabi/9.2.1/../../../../arm-none-eabi/lib/thumb/v7e-m+dp/hard\libm.a(lib_a-e_atan2.o)
                                                  f:/prosoft/gcc_arm_none/2019q4/9 2019-q4-major/bin/../lib/gcc/arm-none-eabi/9.2.1/../../../../arm-none-eabi/lib/thumb/v7e-m+dp/hard\libm.a(lib_a-e_asin.o)
                                                  f:/prosoft/gcc_arm_none/2019q4/9 2019-q4-major/bin/../lib/gcc/arm-none-eabi/9.2.1/../../../../arm-none-eabi/lib/thumb/v7e-m+dp/hard\libm.a(lib_a-w_asin.o)
fflush                                            f:/prosoft/gcc_arm_none/2019q4/9 2019-q4-major/bin/../lib/gcc/arm-none-eabi/9.2.1/../../../../arm-none-eabi/lib/thumb/v7e-m+dp/hard\libc_nano.a(lib_a-fflush.o)
free                                              f:/prosoft/gcc_arm_none/2019q4/9 2019-q4-major/bin/../lib/gcc/arm-none-eabi/9.2.1/../../../../arm-none-eabi/lib/thumb/v7e-m+dp/hard\libc_nano.a(lib_a-malloc.o)
g_pfnVectors                                      build/startup_stm32f767xx.o
get_tick_count                                    build/bsp_i2c.o
                                                  build/mpu6050.o
                                                  build/inv_mpu.o
                                                  build/inv_mpu_dmp_motion_driver.o
hardware_init_hook                                f:/prosoft/gcc_arm_none/2019q4/9 2019-q4-major/bin/../lib/gcc/arm-none-eabi/9.2.1/../../../../arm-none-eabi/lib/thumb/v7e-m+dp/hard/crt0.o
hi2c4                                             build/i2c.o
                                                  build/bsp_i2c.o
htim1                                             build/stm32f7xx_hal_timebase_tim.o
                                                  build/stm32f7xx_it.o
huart5                                            build/usart.o
                                                  build/printf_redefine.o
hw                                                build/inv_mpu.o
inv_orientation_matrix_to_scalar                  build/mpu6050.o
iprintf                                           f:/prosoft/gcc_arm_none/2019q4/9 2019-q4-major/bin/../lib/gcc/arm-none-eabi/9.2.1/../../../../arm-none-eabi/lib/thumb/v7e-m+dp/hard\libc_nano.a(lib_a-printf.o)
localeconv                                        f:/prosoft/gcc_arm_none/2019q4/9 2019-q4-major/bin/../lib/gcc/arm-none-eabi/9.2.1/../../../../arm-none-eabi/lib/thumb/v7e-m+dp/hard\libc_nano.a(lib_a-localeconv.o)
main                                              build/main.o
                                                  build/startup_stm32f767xx.o
                                                  f:/prosoft/gcc_arm_none/2019q4/9 2019-q4-major/bin/../lib/gcc/arm-none-eabi/9.2.1/../../../../arm-none-eabi/lib/thumb/v7e-m+dp/hard/crt0.o
malloc                                            f:/prosoft/gcc_arm_none/2019q4/9 2019-q4-major/bin/../lib/gcc/arm-none-eabi/9.2.1/../../../../arm-none-eabi/lib/thumb/v7e-m+dp/hard\libc_nano.a(lib_a-malloc.o)
                                                  f:/prosoft/gcc_arm_none/2019q4/9 2019-q4-major/bin/../lib/gcc/arm-none-eabi/9.2.1/../../../../arm-none-eabi/lib/thumb/v7e-m+dp/hard\libc_nano.a(lib_a-mprec.o)
                                                  f:/prosoft/gcc_arm_none/2019q4/9 2019-q4-major/bin/../lib/gcc/arm-none-eabi/9.2.1/../../../../arm-none-eabi/lib/thumb/v7e-m+dp/hard\libc_nano.a(lib_a-dtoa.o)
matherr                                           f:/prosoft/gcc_arm_none/2019q4/9 2019-q4-major/bin/../lib/gcc/arm-none-eabi/9.2.1/../../../../arm-none-eabi/lib/thumb/v7e-m+dp/hard\libm.a(lib_a-s_matherr.o)
                                                  f:/prosoft/gcc_arm_none/2019q4/9 2019-q4-major/bin/../lib/gcc/arm-none-eabi/9.2.1/../../../../arm-none-eabi/lib/thumb/v7e-m+dp/hard\libm.a(lib_a-w_asin.o)
memchr                                            f:/prosoft/gcc_arm_none/2019q4/9 2019-q4-major/bin/../lib/gcc/arm-none-eabi/9.2.1/../../../../arm-none-eabi/lib/thumb/v7e-m+dp/hard\libc_nano.a(lib_a-memchr.o)
                                                  f:/prosoft/gcc_arm_none/2019q4/9 2019-q4-major/bin/../lib/gcc/arm-none-eabi/9.2.1/../../../../arm-none-eabi/lib/thumb/v7e-m+dp/hard\libc_nano.a(lib_a-fvwrite.o)
                                                  f:/prosoft/gcc_arm_none/2019q4/9 2019-q4-major/bin/../lib/gcc/arm-none-eabi/9.2.1/../../../../arm-none-eabi/lib/thumb/v7e-m+dp/hard\libc_nano.a(lib_a-nano-vfprintf.o)
                                                  f:/prosoft/gcc_arm_none/2019q4/9 2019-q4-major/bin/../lib/gcc/arm-none-eabi/9.2.1/../../../../arm-none-eabi/lib/thumb/v7e-m+dp/hard\libc_nano.a(lib_a-nano-vfprintf_i.o)
memcpy                                            f:/prosoft/gcc_arm_none/2019q4/9 2019-q4-major/bin/../lib/gcc/arm-none-eabi/9.2.1/../../../../arm-none-eabi/lib/thumb/v7e-m+dp/hard\libc_nano.a(lib_a-memcpy-stub.o)
                                                  f:/prosoft/gcc_arm_none/2019q4/9 2019-q4-major/bin/../lib/gcc/arm-none-eabi/9.2.1/../../../../arm-none-eabi/lib/thumb/v7e-m+dp/hard\libc_nano.a(lib_a-nano-reallocr.o)
                                                  f:/prosoft/gcc_arm_none/2019q4/9 2019-q4-major/bin/../lib/gcc/arm-none-eabi/9.2.1/../../../../arm-none-eabi/lib/thumb/v7e-m+dp/hard\libc_nano.a(lib_a-fvwrite.o)
                                                  f:/prosoft/gcc_arm_none/2019q4/9 2019-q4-major/bin/../lib/gcc/arm-none-eabi/9.2.1/../../../../arm-none-eabi/lib/thumb/v7e-m+dp/hard\libc_nano.a(lib_a-mprec.o)
                                                  f:/prosoft/gcc_arm_none/2019q4/9 2019-q4-major/bin/../lib/gcc/arm-none-eabi/9.2.1/../../../../arm-none-eabi/lib/thumb/v7e-m+dp/hard\libc_nano.a(lib_a-dtoa.o)
                                                  build/cmsis_os2.o
                                                  build/stream_buffer.o
                                                  build/queue.o
memmove                                           f:/prosoft/gcc_arm_none/2019q4/9 2019-q4-major/bin/../lib/gcc/arm-none-eabi/9.2.1/../../../../arm-none-eabi/lib/thumb/v7e-m+dp/hard\libc_nano.a(lib_a-memmove.o)
                                                  f:/prosoft/gcc_arm_none/2019q4/9 2019-q4-major/bin/../lib/gcc/arm-none-eabi/9.2.1/../../../../arm-none-eabi/lib/thumb/v7e-m+dp/hard\libc_nano.a(lib_a-fvwrite.o)
memset                                            f:/prosoft/gcc_arm_none/2019q4/9 2019-q4-major/bin/../lib/gcc/arm-none-eabi/9.2.1/../../../../arm-none-eabi/lib/thumb/v7e-m+dp/hard\libc_nano.a(lib_a-memset.o)
                                                  f:/prosoft/gcc_arm_none/2019q4/9 2019-q4-major/bin/../lib/gcc/arm-none-eabi/9.2.1/../../../../arm-none-eabi/lib/thumb/v7e-m+dp/hard\libc_nano.a(lib_a-nano-callocr.o)
                                                  f:/prosoft/gcc_arm_none/2019q4/9 2019-q4-major/bin/../lib/gcc/arm-none-eabi/9.2.1/../../../../arm-none-eabi/lib/thumb/v7e-m+dp/hard\libc_nano.a(lib_a-findfp.o)
                                                  build/tasks.o
                                                  build/stream_buffer.o
                                                  build/main.o
                                                  f:/prosoft/gcc_arm_none/2019q4/9 2019-q4-major/bin/../lib/gcc/arm-none-eabi/9.2.1/../../../../arm-none-eabi/lib/thumb/v7e-m+dp/hard/crt0.o
mpu_configure_fifo                                build/inv_mpu.o
                                                  build/mpu6050.o
mpu_get_accel_fsr                                 build/inv_mpu.o
                                                  build/inv_mpu_dmp_motion_driver.o
mpu_get_accel_reg                                 build/inv_mpu.o
mpu_get_accel_sens                                build/inv_mpu.o
                                                  build/inv_mpu_dmp_motion_driver.o
mpu_get_compass_fsr                               build/inv_mpu.o
mpu_get_compass_reg                               build/inv_mpu.o
mpu_get_compass_sample_rate                       build/inv_mpu.o
mpu_get_dmp_state                                 build/inv_mpu.o
mpu_get_fifo_config                               build/inv_mpu.o
mpu_get_gyro_fsr                                  build/inv_mpu.o
mpu_get_gyro_reg                                  build/inv_mpu.o
mpu_get_gyro_sens                                 build/inv_mpu.o
mpu_get_int_status                                build/inv_mpu.o
mpu_get_lpf                                       build/inv_mpu.o
mpu_get_power_state                               build/inv_mpu.o
mpu_get_sample_rate                               build/inv_mpu.o
mpu_get_temperature                               build/inv_mpu.o
mpu_init                                          build/inv_mpu.o
                                                  build/mpu6050.o
mpu_load_firmware                                 build/inv_mpu.o
                                                  build/inv_mpu_dmp_motion_driver.o
mpu_lp_accel_mode                                 build/inv_mpu.o
mpu_lp_motion_interrupt                           build/inv_mpu.o
mpu_read_6050_accel_bias                          build/inv_mpu.o
mpu_read_6500_accel_bias                          build/inv_mpu.o
mpu_read_6500_gyro_bias                           build/inv_mpu.o
mpu_read_fifo                                     build/inv_mpu.o
mpu_read_fifo_stream                              build/inv_mpu.o
                                                  build/inv_mpu_dmp_motion_driver.o
mpu_read_mem                                      build/inv_mpu.o
                                                  build/inv_mpu_dmp_motion_driver.o
mpu_read_reg                                      build/inv_mpu.o
mpu_reg_dump                                      build/inv_mpu.o
mpu_reset_fifo                                    build/inv_mpu.o
                                                  build/inv_mpu_dmp_motion_driver.o
mpu_run_self_test                                 build/inv_mpu.o
mpu_set_accel_bias_6050_reg                       build/inv_mpu.o
mpu_set_accel_bias_6500_reg                       build/inv_mpu.o
mpu_set_accel_fsr                                 build/inv_mpu.o
mpu_set_bypass                                    build/inv_mpu.o
mpu_set_compass_sample_rate                       build/inv_mpu.o
mpu_set_dmp_state                                 build/inv_mpu.o
                                                  build/mpu6050.o
mpu_set_gyro_bias_reg                             build/inv_mpu.o
mpu_set_gyro_fsr                                  build/inv_mpu.o
mpu_set_int_latched                               build/inv_mpu.o
mpu_set_int_level                                 build/inv_mpu.o
mpu_set_lpf                                       build/inv_mpu.o
mpu_set_sample_rate                               build/inv_mpu.o
                                                  build/mpu6050.o
mpu_set_sensors                                   build/inv_mpu.o
                                                  build/mpu6050.o
mpu_write_mem                                     build/inv_mpu.o
                                                  build/inv_mpu_dmp_motion_driver.o
nan                                               f:/prosoft/gcc_arm_none/2019q4/9 2019-q4-major/bin/../lib/gcc/arm-none-eabi/9.2.1/../../../../arm-none-eabi/lib/thumb/v7e-m+dp/hard\libm.a(lib_a-s_nan.o)
                                                  f:/prosoft/gcc_arm_none/2019q4/9 2019-q4-major/bin/../lib/gcc/arm-none-eabi/9.2.1/../../../../arm-none-eabi/lib/thumb/v7e-m+dp/hard\libm.a(lib_a-w_asin.o)
osDelay                                           build/cmsis_os2.o
                                                  build/freertos.o
osDelayUntil                                      build/cmsis_os2.o
osEventFlagsClear                                 build/cmsis_os2.o
osEventFlagsDelete                                build/cmsis_os2.o
osEventFlagsGet                                   build/cmsis_os2.o
osEventFlagsNew                                   build/cmsis_os2.o
osEventFlagsSet                                   build/cmsis_os2.o
osEventFlagsWait                                  build/cmsis_os2.o
osKernelGetInfo                                   build/cmsis_os2.o
osKernelGetState                                  build/cmsis_os2.o
osKernelGetSysTimerCount                          build/cmsis_os2.o
osKernelGetSysTimerFreq                           build/cmsis_os2.o
osKernelGetTickCount                              build/cmsis_os2.o
osKernelGetTickFreq                               build/cmsis_os2.o
osKernelInitialize                                build/cmsis_os2.o
                                                  build/main.o
osKernelLock                                      build/cmsis_os2.o
osKernelRestoreLock                               build/cmsis_os2.o
osKernelStart                                     build/cmsis_os2.o
                                                  build/main.o
osKernelUnlock                                    build/cmsis_os2.o
osMessageQueueDelete                              build/cmsis_os2.o
osMessageQueueGet                                 build/cmsis_os2.o
osMessageQueueGetCapacity                         build/cmsis_os2.o
osMessageQueueGetCount                            build/cmsis_os2.o
osMessageQueueGetMsgSize                          build/cmsis_os2.o
osMessageQueueGetSpace                            build/cmsis_os2.o
osMessageQueueNew                                 build/cmsis_os2.o
osMessageQueuePut                                 build/cmsis_os2.o
osMessageQueueReset                               build/cmsis_os2.o
osMutexAcquire                                    build/cmsis_os2.o
osMutexDelete                                     build/cmsis_os2.o
osMutexGetOwner                                   build/cmsis_os2.o
osMutexNew                                        build/cmsis_os2.o
osMutexRelease                                    build/cmsis_os2.o
osSemaphoreAcquire                                build/cmsis_os2.o
osSemaphoreDelete                                 build/cmsis_os2.o
osSemaphoreGetCount                               build/cmsis_os2.o
osSemaphoreNew                                    build/cmsis_os2.o
osSemaphoreRelease                                build/cmsis_os2.o
osThreadEnumerate                                 build/cmsis_os2.o
osThreadExit                                      build/cmsis_os2.o
osThreadFlagsClear                                build/cmsis_os2.o
osThreadFlagsGet                                  build/cmsis_os2.o
osThreadFlagsSet                                  build/cmsis_os2.o
osThreadFlagsWait                                 build/cmsis_os2.o
osThreadGetCount                                  build/cmsis_os2.o
osThreadGetId                                     build/cmsis_os2.o
osThreadGetName                                   build/cmsis_os2.o
osThreadGetPriority                               build/cmsis_os2.o
osThreadGetStackSpace                             build/cmsis_os2.o
osThreadGetState                                  build/cmsis_os2.o
osThreadNew                                       build/cmsis_os2.o
                                                  build/freertos.o
osThreadResume                                    build/cmsis_os2.o
osThreadSetPriority                               build/cmsis_os2.o
osThreadSuspend                                   build/cmsis_os2.o
osThreadTerminate                                 build/cmsis_os2.o
osThreadYield                                     build/cmsis_os2.o
osTimerDelete                                     build/cmsis_os2.o
osTimerGetName                                    build/cmsis_os2.o
osTimerIsRunning                                  build/cmsis_os2.o
osTimerNew                                        build/cmsis_os2.o
osTimerStart                                      build/cmsis_os2.o
osTimerStop                                       build/cmsis_os2.o
pFlash                                            build/stm32f7xx_hal_flash.o
                                                  build/stm32f7xx_hal_flash_ex.o
pcQueueGetName                                    build/queue.o
pcTaskGetName                                     build/tasks.o
                                                  build/cmsis_os2.o
pcTimerGetName                                    build/timers.o
                                                  build/cmsis_os2.o
printf                                            f:/prosoft/gcc_arm_none/2019q4/9 2019-q4-major/bin/../lib/gcc/arm-none-eabi/9.2.1/../../../../arm-none-eabi/lib/thumb/v7e-m+dp/hard\libc_nano.a(lib_a-printf.o)
                                                  build/attitude_task.o
                                                  build/inv_mpu.o
pvPortMalloc                                      build/heap_4.o
                                                  build/cmsis_os2.o
                                                  build/timers.o
                                                  build/tasks.o
                                                  build/stream_buffer.o
                                                  build/queue.o
                                                  build/event_groups.o
                                                  build/attitude.o
                                                  build/mpu6050.o
pvTaskIncrementMutexHeldCount                     build/tasks.o
                                                  build/queue.o
pvTimerGetTimerID                                 build/timers.o
                                                  build/cmsis_os2.o
pxCurrentTCB                                      build/tasks.o
                                                  build/port.o
pxPortInitialiseStack                             build/port.o
                                                  build/tasks.o
reg                                               build/inv_mpu.o
setlocale                                         f:/prosoft/gcc_arm_none/2019q4/9 2019-q4-major/bin/../lib/gcc/arm-none-eabi/9.2.1/../../../../arm-none-eabi/lib/thumb/v7e-m+dp/hard\libc_nano.a(lib_a-locale.o)
software_init_hook                                f:/prosoft/gcc_arm_none/2019q4/9 2019-q4-major/bin/../lib/gcc/arm-none-eabi/9.2.1/../../../../arm-none-eabi/lib/thumb/v7e-m+dp/hard/crt0.o
strcmp                                            f:/prosoft/gcc_arm_none/2019q4/9 2019-q4-major/bin/../lib/gcc/arm-none-eabi/9.2.1/../../../../arm-none-eabi/lib/thumb/v7e-m+dp/hard\libc_nano.a(lib_a-strcmp.o)
                                                  f:/prosoft/gcc_arm_none/2019q4/9 2019-q4-major/bin/../lib/gcc/arm-none-eabi/9.2.1/../../../../arm-none-eabi/lib/thumb/v7e-m+dp/hard\libc_nano.a(lib_a-locale.o)
strlen                                            f:/prosoft/gcc_arm_none/2019q4/9 2019-q4-major/bin/../lib/gcc/arm-none-eabi/9.2.1/../../../../arm-none-eabi/lib/thumb/v7e-m+dp/hard\libc_nano.a(lib_a-strlen.o)
                                                  f:/prosoft/gcc_arm_none/2019q4/9 2019-q4-major/bin/../lib/gcc/arm-none-eabi/9.2.1/../../../../arm-none-eabi/lib/thumb/v7e-m+dp/hard\libc_nano.a(lib_a-nano-vfprintf_float.o)
test                                              build/inv_mpu.o
ucQueueGetQueueType                               build/queue.o
ucStreamBufferGetStreamBufferType                 build/stream_buffer.o
ulTaskNotifyTake                                  build/tasks.o
uwTick                                            build/stm32f7xx_hal.o
uwTickFreq                                        build/stm32f7xx_hal.o
uwTickPrio                                        build/stm32f7xx_hal.o
                                                  build/stm32f7xx_hal_rcc.o
uxEventGroupGetNumber                             build/event_groups.o
uxListRemove                                      build/list.o
                                                  build/timers.o
                                                  build/tasks.o
uxQueueGetQueueNumber                             build/queue.o
uxQueueMessagesWaiting                            build/queue.o
                                                  build/cmsis_os2.o
uxQueueMessagesWaitingFromISR                     build/queue.o
                                                  build/cmsis_os2.o
uxQueueSpacesAvailable                            build/queue.o
                                                  build/cmsis_os2.o
uxStreamBufferGetStreamBufferNumber               build/stream_buffer.o
uxTaskGetNumberOfTasks                            build/tasks.o
                                                  build/cmsis_os2.o
uxTaskGetStackHighWaterMark                       build/tasks.o
                                                  build/cmsis_os2.o
uxTaskGetSystemState                              build/tasks.o
                                                  build/cmsis_os2.o
uxTaskGetTaskNumber                               build/tasks.o
uxTaskPriorityGet                                 build/tasks.o
                                                  build/cmsis_os2.o
uxTaskPriorityGetFromISR                          build/tasks.o
uxTaskResetEventItemValue                         build/tasks.o
                                                  build/event_groups.o
uxTimerGetTimerNumber                             build/timers.o
vApplicationGetIdleTaskMemory                     build/cmsis_os2.o
                                                  build/tasks.o
vApplicationGetTimerTaskMemory                    build/cmsis_os2.o
                                                  build/timers.o
vEventGroupClearBitsCallback                      build/event_groups.o
vEventGroupDelete                                 build/event_groups.o
                                                  build/cmsis_os2.o
vEventGroupSetBitsCallback                        build/event_groups.o
vEventGroupSetNumber                              build/event_groups.o
vListInitialise                                   build/list.o
                                                  build/timers.o
                                                  build/tasks.o
                                                  build/queue.o
                                                  build/event_groups.o
vListInitialiseItem                               build/list.o
                                                  build/timers.o
                                                  build/tasks.o
vListInsert                                       build/list.o
                                                  build/timers.o
                                                  build/tasks.o
vListInsertEnd                                    build/list.o
                                                  build/tasks.o
vPortEndScheduler                                 build/port.o
                                                  build/tasks.o
vPortEnterCritical                                build/port.o
                                                  build/timers.o
                                                  build/tasks.o
                                                  build/stream_buffer.o
                                                  build/queue.o
                                                  build/event_groups.o
vPortExitCritical                                 build/port.o
                                                  build/timers.o
                                                  build/tasks.o
                                                  build/stream_buffer.o
                                                  build/queue.o
                                                  build/event_groups.o
vPortFree                                         build/heap_4.o
                                                  build/cmsis_os2.o
                                                  build/timers.o
                                                  build/tasks.o
                                                  build/stream_buffer.o
                                                  build/queue.o
                                                  build/event_groups.o
                                                  build/attitude.o
                                                  build/mpu6050.o
vPortInitialiseBlocks                             build/heap_4.o
vPortSetupTimerInterrupt                          build/port.o
vPortValidateInterruptPriority                    build/port.o
                                                  build/tasks.o
                                                  build/queue.o
vQueueAddToRegistry                               build/queue.o
                                                  build/cmsis_os2.o
                                                  build/timers.o
vQueueDelete                                      build/queue.o
                                                  build/cmsis_os2.o
vQueueSetQueueNumber                              build/queue.o
vQueueUnregisterQueue                             build/queue.o
                                                  build/cmsis_os2.o
vQueueWaitForMessageRestricted                    build/queue.o
                                                  build/timers.o
vStreamBufferDelete                               build/stream_buffer.o
vStreamBufferSetStreamBufferNumber                build/stream_buffer.o
vTaskDelay                                        build/tasks.o
                                                  build/cmsis_os2.o
                                                  build/mpu6050.o
                                                  build/inv_mpu.o
                                                  build/bsp_i2c.o
vTaskDelayUntil                                   build/tasks.o
                                                  build/cmsis_os2.o
vTaskDelete                                       build/tasks.o
                                                  build/cmsis_os2.o
vTaskEndScheduler                                 build/tasks.o
vTaskGetInfo                                      build/tasks.o
vTaskInternalSetTimeOutState                      build/tasks.o
                                                  build/queue.o
vTaskMissedYield                                  build/tasks.o
                                                  build/queue.o
vTaskNotifyGiveFromISR                            build/tasks.o
vTaskPlaceOnEventList                             build/tasks.o
                                                  build/queue.o
vTaskPlaceOnEventListRestricted                   build/tasks.o
                                                  build/queue.o
vTaskPlaceOnUnorderedEventList                    build/tasks.o
                                                  build/event_groups.o
vTaskPriorityDisinheritAfterTimeout               build/tasks.o
                                                  build/queue.o
vTaskPrioritySet                                  build/tasks.o
                                                  build/cmsis_os2.o
vTaskRemoveFromUnorderedEventList                 build/tasks.o
                                                  build/event_groups.o
vTaskResume                                       build/tasks.o
                                                  build/cmsis_os2.o
vTaskSetTaskNumber                                build/tasks.o
vTaskSetTimeOutState                              build/tasks.o
                                                  build/stream_buffer.o
vTaskStartScheduler                               build/tasks.o
                                                  build/cmsis_os2.o
vTaskSuspend                                      build/tasks.o
                                                  build/cmsis_os2.o
vTaskSuspendAll                                   build/tasks.o
                                                  build/heap_4.o
                                                  build/cmsis_os2.o
                                                  build/timers.o
                                                  build/stream_buffer.o
                                                  build/queue.o
                                                  build/event_groups.o
vTaskSwitchContext                                build/tasks.o
                                                  build/port.o
vTimerSetReloadMode                               build/timers.o
vTimerSetTimerID                                  build/timers.o
vTimerSetTimerNumber                              build/timers.o
vfiprintf                                         f:/prosoft/gcc_arm_none/2019q4/9 2019-q4-major/bin/../lib/gcc/arm-none-eabi/9.2.1/../../../../arm-none-eabi/lib/thumb/v7e-m+dp/hard\libc_nano.a(lib_a-nano-vfprintf.o)
vfprintf                                          f:/prosoft/gcc_arm_none/2019q4/9 2019-q4-major/bin/../lib/gcc/arm-none-eabi/9.2.1/../../../../arm-none-eabi/lib/thumb/v7e-m+dp/hard\libc_nano.a(lib_a-nano-vfprintf.o)
xAttitudeTsakCreat                                build/attitude_task.o
                                                  build/freertos.o
xEventGroupClearBits                              build/event_groups.o
                                                  build/cmsis_os2.o
xEventGroupClearBitsFromISR                       build/event_groups.o
                                                  build/cmsis_os2.o
xEventGroupCreate                                 build/event_groups.o
                                                  build/cmsis_os2.o
xEventGroupCreateStatic                           build/event_groups.o
                                                  build/cmsis_os2.o
xEventGroupGetBitsFromISR                         build/event_groups.o
                                                  build/cmsis_os2.o
xEventGroupSetBits                                build/event_groups.o
                                                  build/cmsis_os2.o
xEventGroupSetBitsFromISR                         build/event_groups.o
                                                  build/cmsis_os2.o
xEventGroupSync                                   build/event_groups.o
xEventGroupWaitBits                               build/event_groups.o
                                                  build/cmsis_os2.o
xPortGetFreeHeapSize                              build/heap_4.o
xPortGetMinimumEverFreeHeapSize                   build/heap_4.o
xPortStartScheduler                               build/port.o
                                                  build/tasks.o
xQueueCreateCountingSemaphore                     build/queue.o
                                                  build/cmsis_os2.o
xQueueCreateCountingSemaphoreStatic               build/queue.o
                                                  build/cmsis_os2.o
xQueueCreateMutex                                 build/queue.o
                                                  build/cmsis_os2.o
xQueueCreateMutexStatic                           build/queue.o
                                                  build/cmsis_os2.o
xQueueGenericCreate                               build/queue.o
                                                  build/cmsis_os2.o
                                                  build/attitude_task.o
xQueueGenericCreateStatic                         build/queue.o
                                                  build/cmsis_os2.o
                                                  build/timers.o
xQueueGenericReset                                build/queue.o
                                                  build/cmsis_os2.o
xQueueGenericSend                                 build/queue.o
                                                  build/cmsis_os2.o
                                                  build/timers.o
                                                  build/attitude_task.o
xQueueGenericSendFromISR                          build/queue.o
                                                  build/cmsis_os2.o
                                                  build/timers.o
xQueueGetMutexHolder                              build/queue.o
                                                  build/cmsis_os2.o
xQueueGetMutexHolderFromISR                       build/queue.o
xQueueGiveFromISR                                 build/queue.o
                                                  build/cmsis_os2.o
xQueueGiveMutexRecursive                          build/queue.o
                                                  build/cmsis_os2.o
xQueueIsQueueEmptyFromISR                         build/queue.o
xQueueIsQueueFullFromISR                          build/queue.o
xQueuePeek                                        build/queue.o
xQueuePeekFromISR                                 build/queue.o
xQueueReceive                                     build/queue.o
                                                  build/cmsis_os2.o
                                                  build/timers.o
xQueueReceiveFromISR                              build/queue.o
                                                  build/cmsis_os2.o
xQueueRegistry                                    build/queue.o
xQueueSemaphoreTake                               build/queue.o
                                                  build/cmsis_os2.o
xQueueTakeMutexRecursive                          build/queue.o
                                                  build/cmsis_os2.o
xStreamBufferBytesAvailable                       build/stream_buffer.o
xStreamBufferGenericCreate                        build/stream_buffer.o
xStreamBufferGenericCreateStatic                  build/stream_buffer.o
xStreamBufferIsEmpty                              build/stream_buffer.o
xStreamBufferIsFull                               build/stream_buffer.o
xStreamBufferNextMessageLengthBytes               build/stream_buffer.o
xStreamBufferReceive                              build/stream_buffer.o
xStreamBufferReceiveCompletedFromISR              build/stream_buffer.o
xStreamBufferReceiveFromISR                       build/stream_buffer.o
xStreamBufferReset                                build/stream_buffer.o
xStreamBufferSend                                 build/stream_buffer.o
xStreamBufferSendCompletedFromISR                 build/stream_buffer.o
xStreamBufferSendFromISR                          build/stream_buffer.o
xStreamBufferSetTriggerLevel                      build/stream_buffer.o
xStreamBufferSpacesAvailable                      build/stream_buffer.o
xTaskCheckForTimeOut                              build/tasks.o
                                                  build/stream_buffer.o
                                                  build/queue.o
xTaskCreate                                       build/tasks.o
                                                  build/cmsis_os2.o
                                                  build/attitude_task.o
xTaskCreateStatic                                 build/tasks.o
                                                  build/cmsis_os2.o
                                                  build/timers.o
xTaskGenericNotify                                build/tasks.o
                                                  build/cmsis_os2.o
                                                  build/stream_buffer.o
xTaskGenericNotifyFromISR                         build/tasks.o
                                                  build/cmsis_os2.o
                                                  build/stream_buffer.o
xTaskGetCurrentTaskHandle                         build/tasks.o
                                                  build/cmsis_os2.o
                                                  build/stream_buffer.o
                                                  build/queue.o
xTaskGetSchedulerState                            build/tasks.o
                                                  build/cmsis_os2.o
                                                  build/timers.o
                                                  build/queue.o
                                                  build/event_groups.o
xTaskGetTickCount                                 build/tasks.o
                                                  build/cmsis_os2.o
                                                  build/timers.o
                                                  build/mpu6050.o
                                                  build/bsp_i2c.o
xTaskGetTickCountFromISR                          build/tasks.o
                                                  build/cmsis_os2.o
xTaskIncrementTick                                build/tasks.o
                                                  build/port.o
xTaskNotifyStateClear                             build/tasks.o
                                                  build/stream_buffer.o
xTaskNotifyWait                                   build/tasks.o
                                                  build/cmsis_os2.o
                                                  build/stream_buffer.o
xTaskPriorityDisinherit                           build/tasks.o
                                                  build/queue.o
xTaskPriorityInherit                              build/tasks.o
                                                  build/queue.o
xTaskRemoveFromEventList                          build/tasks.o
                                                  build/queue.o
xTaskResumeAll                                    build/tasks.o
                                                  build/heap_4.o
                                                  build/cmsis_os2.o
                                                  build/timers.o
                                                  build/stream_buffer.o
                                                  build/queue.o
                                                  build/event_groups.o
xTaskResumeFromISR                                build/tasks.o
xTimerCreate                                      build/timers.o
                                                  build/cmsis_os2.o
xTimerCreateStatic                                build/timers.o
                                                  build/cmsis_os2.o
xTimerCreateTimerTask                             build/timers.o
                                                  build/tasks.o
xTimerGenericCommand                              build/timers.o
                                                  build/cmsis_os2.o
xTimerGetExpiryTime                               build/timers.o
xTimerGetPeriod                                   build/timers.o
xTimerGetTimerDaemonTaskHandle                    build/timers.o
xTimerIsTimerActive                               build/timers.o
                                                  build/cmsis_os2.o
xTimerPendFunctionCall                            build/timers.o
xTimerPendFunctionCallFromISR                     build/timers.o
                                                  build/event_groups.o
