ARM GAS  C:\Users\Legend\AppData\Local\Temp\ccZKJOHv.s 			page 1


   1              		.cpu cortex-m7
   2              		.eabi_attribute 28, 1
   3              		.eabi_attribute 20, 1
   4              		.eabi_attribute 21, 1
   5              		.eabi_attribute 23, 3
   6              		.eabi_attribute 24, 1
   7              		.eabi_attribute 25, 1
   8              		.eabi_attribute 26, 1
   9              		.eabi_attribute 30, 1
  10              		.eabi_attribute 34, 1
  11              		.eabi_attribute 18, 4
  12              		.file	"gpio.c"
  13              		.text
  14              	.Ltext0:
  15              		.cfi_sections	.debug_frame
  16              		.section	.text.MX_GPIO_Init,"ax",%progbits
  17              		.align	1
  18              		.global	MX_GPIO_Init
  19              		.arch armv7e-m
  20              		.syntax unified
  21              		.thumb
  22              		.thumb_func
  23              		.fpu fpv5-d16
  25              	MX_GPIO_Init:
  26              	.LFB141:
  27              		.file 1 "Src/gpio.c"
   1:Src/gpio.c    **** /**
   2:Src/gpio.c    ****   ******************************************************************************
   3:Src/gpio.c    ****   * File Name          : gpio.c
   4:Src/gpio.c    ****   * Description        : This file provides code for the configuration
   5:Src/gpio.c    ****   *                      of all used GPIO pins.
   6:Src/gpio.c    ****   ******************************************************************************
   7:Src/gpio.c    ****   * @attention
   8:Src/gpio.c    ****   *
   9:Src/gpio.c    ****   * <h2><center>&copy; Copyright (c) 2020 STMicroelectronics.
  10:Src/gpio.c    ****   * All rights reserved.</center></h2>
  11:Src/gpio.c    ****   *
  12:Src/gpio.c    ****   * This software component is licensed by ST under Ultimate Liberty license
  13:Src/gpio.c    ****   * SLA0044, the "License"; You may not use this file except in compliance with
  14:Src/gpio.c    ****   * the License. You may obtain a copy of the License at:
  15:Src/gpio.c    ****   *                             www.st.com/SLA0044
  16:Src/gpio.c    ****   *
  17:Src/gpio.c    ****   ******************************************************************************
  18:Src/gpio.c    ****   */
  19:Src/gpio.c    **** 
  20:Src/gpio.c    **** /* Includes ------------------------------------------------------------------*/
  21:Src/gpio.c    **** #include "gpio.h"
  22:Src/gpio.c    **** /* USER CODE BEGIN 0 */
  23:Src/gpio.c    **** 
  24:Src/gpio.c    **** /* USER CODE END 0 */
  25:Src/gpio.c    **** 
  26:Src/gpio.c    **** /*----------------------------------------------------------------------------*/
  27:Src/gpio.c    **** /* Configure GPIO                                                             */
  28:Src/gpio.c    **** /*----------------------------------------------------------------------------*/
  29:Src/gpio.c    **** /* USER CODE BEGIN 1 */
  30:Src/gpio.c    **** 
  31:Src/gpio.c    **** /* USER CODE END 1 */
ARM GAS  C:\Users\Legend\AppData\Local\Temp\ccZKJOHv.s 			page 2


  32:Src/gpio.c    **** 
  33:Src/gpio.c    **** /** Configure pins as 
  34:Src/gpio.c    ****         * Analog 
  35:Src/gpio.c    ****         * Input 
  36:Src/gpio.c    ****         * Output
  37:Src/gpio.c    ****         * EVENT_OUT
  38:Src/gpio.c    ****         * EXTI
  39:Src/gpio.c    **** */
  40:Src/gpio.c    **** void MX_GPIO_Init(void)
  41:Src/gpio.c    **** {
  28              		.loc 1 41 1 view -0
  29              		.cfi_startproc
  30              		@ args = 0, pretend = 0, frame = 40
  31              		@ frame_needed = 0, uses_anonymous_args = 0
  32 0000 30B5     		push	{r4, r5, lr}
  33              	.LCFI0:
  34              		.cfi_def_cfa_offset 12
  35              		.cfi_offset 4, -12
  36              		.cfi_offset 5, -8
  37              		.cfi_offset 14, -4
  38 0002 8BB0     		sub	sp, sp, #44
  39              	.LCFI1:
  40              		.cfi_def_cfa_offset 56
  42:Src/gpio.c    **** 
  43:Src/gpio.c    ****   GPIO_InitTypeDef GPIO_InitStruct = {0};
  41              		.loc 1 43 3 view .LVU1
  42              		.loc 1 43 20 is_stmt 0 view .LVU2
  43 0004 0024     		movs	r4, #0
  44 0006 0594     		str	r4, [sp, #20]
  45 0008 0694     		str	r4, [sp, #24]
  46 000a 0794     		str	r4, [sp, #28]
  47 000c 0894     		str	r4, [sp, #32]
  48 000e 0994     		str	r4, [sp, #36]
  44:Src/gpio.c    **** 
  45:Src/gpio.c    ****   /* GPIO Ports Clock Enable */
  46:Src/gpio.c    ****   __HAL_RCC_GPIOH_CLK_ENABLE();
  49              		.loc 1 46 3 is_stmt 1 view .LVU3
  50              	.LBB2:
  51              		.loc 1 46 3 view .LVU4
  52              		.loc 1 46 3 view .LVU5
  53 0010 1C4B     		ldr	r3, .L3
  54 0012 1A6B     		ldr	r2, [r3, #48]
  55 0014 42F08002 		orr	r2, r2, #128
  56 0018 1A63     		str	r2, [r3, #48]
  57              		.loc 1 46 3 view .LVU6
  58 001a 1A6B     		ldr	r2, [r3, #48]
  59 001c 02F08002 		and	r2, r2, #128
  60 0020 0192     		str	r2, [sp, #4]
  61              		.loc 1 46 3 view .LVU7
  62 0022 019A     		ldr	r2, [sp, #4]
  63              	.LBE2:
  64              		.loc 1 46 3 view .LVU8
  47:Src/gpio.c    ****   __HAL_RCC_GPIOD_CLK_ENABLE();
  65              		.loc 1 47 3 view .LVU9
  66              	.LBB3:
  67              		.loc 1 47 3 view .LVU10
  68              		.loc 1 47 3 view .LVU11
ARM GAS  C:\Users\Legend\AppData\Local\Temp\ccZKJOHv.s 			page 3


  69 0024 1A6B     		ldr	r2, [r3, #48]
  70 0026 42F00802 		orr	r2, r2, #8
  71 002a 1A63     		str	r2, [r3, #48]
  72              		.loc 1 47 3 view .LVU12
  73 002c 1A6B     		ldr	r2, [r3, #48]
  74 002e 02F00802 		and	r2, r2, #8
  75 0032 0292     		str	r2, [sp, #8]
  76              		.loc 1 47 3 view .LVU13
  77 0034 029A     		ldr	r2, [sp, #8]
  78              	.LBE3:
  79              		.loc 1 47 3 view .LVU14
  48:Src/gpio.c    ****   __HAL_RCC_GPIOA_CLK_ENABLE();
  80              		.loc 1 48 3 view .LVU15
  81              	.LBB4:
  82              		.loc 1 48 3 view .LVU16
  83              		.loc 1 48 3 view .LVU17
  84 0036 1A6B     		ldr	r2, [r3, #48]
  85 0038 42F00102 		orr	r2, r2, #1
  86 003c 1A63     		str	r2, [r3, #48]
  87              		.loc 1 48 3 view .LVU18
  88 003e 1A6B     		ldr	r2, [r3, #48]
  89 0040 02F00102 		and	r2, r2, #1
  90 0044 0392     		str	r2, [sp, #12]
  91              		.loc 1 48 3 view .LVU19
  92 0046 039A     		ldr	r2, [sp, #12]
  93              	.LBE4:
  94              		.loc 1 48 3 view .LVU20
  49:Src/gpio.c    ****   __HAL_RCC_GPIOC_CLK_ENABLE();
  95              		.loc 1 49 3 view .LVU21
  96              	.LBB5:
  97              		.loc 1 49 3 view .LVU22
  98              		.loc 1 49 3 view .LVU23
  99 0048 1A6B     		ldr	r2, [r3, #48]
 100 004a 42F00402 		orr	r2, r2, #4
 101 004e 1A63     		str	r2, [r3, #48]
 102              		.loc 1 49 3 view .LVU24
 103 0050 1B6B     		ldr	r3, [r3, #48]
 104 0052 03F00403 		and	r3, r3, #4
 105 0056 0493     		str	r3, [sp, #16]
 106              		.loc 1 49 3 view .LVU25
 107 0058 049B     		ldr	r3, [sp, #16]
 108              	.LBE5:
 109              		.loc 1 49 3 view .LVU26
  50:Src/gpio.c    **** 
  51:Src/gpio.c    ****   /*Configure GPIO pin Output Level */
  52:Src/gpio.c    ****   HAL_GPIO_WritePin(GPIOD, GPIO_PIN_11, GPIO_PIN_RESET);
 110              		.loc 1 52 3 view .LVU27
 111 005a 0B4D     		ldr	r5, .L3+4
 112 005c 2246     		mov	r2, r4
 113 005e 4FF40061 		mov	r1, #2048
 114 0062 2846     		mov	r0, r5
 115 0064 FFF7FEFF 		bl	HAL_GPIO_WritePin
 116              	.LVL0:
  53:Src/gpio.c    **** 
  54:Src/gpio.c    ****   /*Configure GPIO pin : PD11 */
  55:Src/gpio.c    ****   GPIO_InitStruct.Pin = GPIO_PIN_11;
 117              		.loc 1 55 3 view .LVU28
ARM GAS  C:\Users\Legend\AppData\Local\Temp\ccZKJOHv.s 			page 4


 118              		.loc 1 55 23 is_stmt 0 view .LVU29
 119 0068 4FF40063 		mov	r3, #2048
 120 006c 0593     		str	r3, [sp, #20]
  56:Src/gpio.c    ****   GPIO_InitStruct.Mode = GPIO_MODE_OUTPUT_PP;
 121              		.loc 1 56 3 is_stmt 1 view .LVU30
 122              		.loc 1 56 24 is_stmt 0 view .LVU31
 123 006e 0123     		movs	r3, #1
 124 0070 0693     		str	r3, [sp, #24]
  57:Src/gpio.c    ****   GPIO_InitStruct.Pull = GPIO_NOPULL;
 125              		.loc 1 57 3 is_stmt 1 view .LVU32
 126              		.loc 1 57 24 is_stmt 0 view .LVU33
 127 0072 0794     		str	r4, [sp, #28]
  58:Src/gpio.c    ****   GPIO_InitStruct.Speed = GPIO_SPEED_FREQ_LOW;
 128              		.loc 1 58 3 is_stmt 1 view .LVU34
 129              		.loc 1 58 25 is_stmt 0 view .LVU35
 130 0074 0894     		str	r4, [sp, #32]
  59:Src/gpio.c    ****   HAL_GPIO_Init(GPIOD, &GPIO_InitStruct);
 131              		.loc 1 59 3 is_stmt 1 view .LVU36
 132 0076 05A9     		add	r1, sp, #20
 133 0078 2846     		mov	r0, r5
 134 007a FFF7FEFF 		bl	HAL_GPIO_Init
 135              	.LVL1:
  60:Src/gpio.c    **** 
  61:Src/gpio.c    **** }
 136              		.loc 1 61 1 is_stmt 0 view .LVU37
 137 007e 0BB0     		add	sp, sp, #44
 138              	.LCFI2:
 139              		.cfi_def_cfa_offset 12
 140              		@ sp needed
 141 0080 30BD     		pop	{r4, r5, pc}
 142              	.L4:
 143 0082 00BF     		.align	2
 144              	.L3:
 145 0084 00380240 		.word	1073887232
 146 0088 000C0240 		.word	1073875968
 147              		.cfi_endproc
 148              	.LFE141:
 150              		.text
 151              	.Letext0:
 152              		.file 2 "f:\\prosoft\\gcc_arm_none\\2019q4\\9 2019-q4-major\\arm-none-eabi\\include\\machine\\_def
 153              		.file 3 "f:\\prosoft\\gcc_arm_none\\2019q4\\9 2019-q4-major\\arm-none-eabi\\include\\sys\\_stdint.
 154              		.file 4 "Drivers/CMSIS/Include/core_cm7.h"
 155              		.file 5 "Drivers/CMSIS/Device/ST/STM32F7xx/Include/system_stm32f7xx.h"
 156              		.file 6 "Drivers/CMSIS/Device/ST/STM32F7xx/Include/stm32f767xx.h"
 157              		.file 7 "Drivers/STM32F7xx_HAL_Driver/Inc/stm32f7xx_hal_gpio.h"
 158              		.file 8 "Drivers/STM32F7xx_HAL_Driver/Inc/stm32f7xx_hal.h"
ARM GAS  C:\Users\Legend\AppData\Local\Temp\ccZKJOHv.s 			page 5

