ARM GAS  C:\Users\Legend\AppData\Local\Temp\ccjV8wE4.s 			page 1


   1              		.cpu cortex-m7
   2              		.eabi_attribute 28, 1
   3              		.eabi_attribute 20, 1
   4              		.eabi_attribute 21, 1
   5              		.eabi_attribute 23, 3
   6              		.eabi_attribute 24, 1
   7              		.eabi_attribute 25, 1
   8              		.eabi_attribute 26, 1
   9              		.eabi_attribute 30, 1
  10              		.eabi_attribute 34, 1
  11              		.eabi_attribute 18, 4
  12              		.file	"i2c.c"
  13              		.text
  14              	.Ltext0:
  15              		.cfi_sections	.debug_frame
  16              		.section	.text.MX_I2C4_Init,"ax",%progbits
  17              		.align	1
  18              		.global	MX_I2C4_Init
  19              		.arch armv7e-m
  20              		.syntax unified
  21              		.thumb
  22              		.thumb_func
  23              		.fpu fpv5-d16
  25              	MX_I2C4_Init:
  26              	.LFB141:
  27              		.file 1 "Src/i2c.c"
   1:Src/i2c.c     **** /**
   2:Src/i2c.c     ****   ******************************************************************************
   3:Src/i2c.c     ****   * File Name          : I2C.c
   4:Src/i2c.c     ****   * Description        : This file provides code for the configuration
   5:Src/i2c.c     ****   *                      of the I2C instances.
   6:Src/i2c.c     ****   ******************************************************************************
   7:Src/i2c.c     ****   * @attention
   8:Src/i2c.c     ****   *
   9:Src/i2c.c     ****   * <h2><center>&copy; Copyright (c) 2020 STMicroelectronics.
  10:Src/i2c.c     ****   * All rights reserved.</center></h2>
  11:Src/i2c.c     ****   *
  12:Src/i2c.c     ****   * This software component is licensed by ST under Ultimate Liberty license
  13:Src/i2c.c     ****   * SLA0044, the "License"; You may not use this file except in compliance with
  14:Src/i2c.c     ****   * the License. You may obtain a copy of the License at:
  15:Src/i2c.c     ****   *                             www.st.com/SLA0044
  16:Src/i2c.c     ****   *
  17:Src/i2c.c     ****   ******************************************************************************
  18:Src/i2c.c     ****   */
  19:Src/i2c.c     **** 
  20:Src/i2c.c     **** /* Includes ------------------------------------------------------------------*/
  21:Src/i2c.c     **** #include "i2c.h"
  22:Src/i2c.c     **** 
  23:Src/i2c.c     **** /* USER CODE BEGIN 0 */
  24:Src/i2c.c     **** 
  25:Src/i2c.c     **** /* USER CODE END 0 */
  26:Src/i2c.c     **** 
  27:Src/i2c.c     **** I2C_HandleTypeDef hi2c4;
  28:Src/i2c.c     **** 
  29:Src/i2c.c     **** /* I2C4 init function */
  30:Src/i2c.c     **** void MX_I2C4_Init(void)
  31:Src/i2c.c     **** {
ARM GAS  C:\Users\Legend\AppData\Local\Temp\ccjV8wE4.s 			page 2


  28              		.loc 1 31 1 view -0
  29              		.cfi_startproc
  30              		@ args = 0, pretend = 0, frame = 0
  31              		@ frame_needed = 0, uses_anonymous_args = 0
  32 0000 08B5     		push	{r3, lr}
  33              	.LCFI0:
  34              		.cfi_def_cfa_offset 8
  35              		.cfi_offset 3, -8
  36              		.cfi_offset 14, -4
  32:Src/i2c.c     **** 
  33:Src/i2c.c     ****   hi2c4.Instance = I2C4;
  37              		.loc 1 33 3 view .LVU1
  38              		.loc 1 33 18 is_stmt 0 view .LVU2
  39 0002 1248     		ldr	r0, .L9
  40 0004 124B     		ldr	r3, .L9+4
  41 0006 0360     		str	r3, [r0]
  34:Src/i2c.c     ****   hi2c4.Init.Timing = 0x20404768;
  42              		.loc 1 34 3 is_stmt 1 view .LVU3
  43              		.loc 1 34 21 is_stmt 0 view .LVU4
  44 0008 124B     		ldr	r3, .L9+8
  45 000a 4360     		str	r3, [r0, #4]
  35:Src/i2c.c     ****   hi2c4.Init.OwnAddress1 = 0;
  46              		.loc 1 35 3 is_stmt 1 view .LVU5
  47              		.loc 1 35 26 is_stmt 0 view .LVU6
  48 000c 0023     		movs	r3, #0
  49 000e 8360     		str	r3, [r0, #8]
  36:Src/i2c.c     ****   hi2c4.Init.AddressingMode = I2C_ADDRESSINGMODE_7BIT;
  50              		.loc 1 36 3 is_stmt 1 view .LVU7
  51              		.loc 1 36 29 is_stmt 0 view .LVU8
  52 0010 0122     		movs	r2, #1
  53 0012 C260     		str	r2, [r0, #12]
  37:Src/i2c.c     ****   hi2c4.Init.DualAddressMode = I2C_DUALADDRESS_DISABLE;
  54              		.loc 1 37 3 is_stmt 1 view .LVU9
  55              		.loc 1 37 30 is_stmt 0 view .LVU10
  56 0014 0361     		str	r3, [r0, #16]
  38:Src/i2c.c     ****   hi2c4.Init.OwnAddress2 = 0;
  57              		.loc 1 38 3 is_stmt 1 view .LVU11
  58              		.loc 1 38 26 is_stmt 0 view .LVU12
  59 0016 4361     		str	r3, [r0, #20]
  39:Src/i2c.c     ****   hi2c4.Init.OwnAddress2Masks = I2C_OA2_NOMASK;
  60              		.loc 1 39 3 is_stmt 1 view .LVU13
  61              		.loc 1 39 31 is_stmt 0 view .LVU14
  62 0018 8361     		str	r3, [r0, #24]
  40:Src/i2c.c     ****   hi2c4.Init.GeneralCallMode = I2C_GENERALCALL_DISABLE;
  63              		.loc 1 40 3 is_stmt 1 view .LVU15
  64              		.loc 1 40 30 is_stmt 0 view .LVU16
  65 001a C361     		str	r3, [r0, #28]
  41:Src/i2c.c     ****   hi2c4.Init.NoStretchMode = I2C_NOSTRETCH_DISABLE;
  66              		.loc 1 41 3 is_stmt 1 view .LVU17
  67              		.loc 1 41 28 is_stmt 0 view .LVU18
  68 001c 0362     		str	r3, [r0, #32]
  42:Src/i2c.c     ****   if (HAL_I2C_Init(&hi2c4) != HAL_OK)
  69              		.loc 1 42 3 is_stmt 1 view .LVU19
  70              		.loc 1 42 7 is_stmt 0 view .LVU20
  71 001e FFF7FEFF 		bl	HAL_I2C_Init
  72              	.LVL0:
  73              		.loc 1 42 6 view .LVU21
ARM GAS  C:\Users\Legend\AppData\Local\Temp\ccjV8wE4.s 			page 3


  74 0022 50B9     		cbnz	r0, .L6
  75              	.L2:
  43:Src/i2c.c     ****   {
  44:Src/i2c.c     ****     Error_Handler();
  45:Src/i2c.c     ****   }
  46:Src/i2c.c     ****   /** Configure Analogue filter 
  47:Src/i2c.c     ****   */
  48:Src/i2c.c     ****   if (HAL_I2CEx_ConfigAnalogFilter(&hi2c4, I2C_ANALOGFILTER_ENABLE) != HAL_OK)
  76              		.loc 1 48 3 is_stmt 1 view .LVU22
  77              		.loc 1 48 7 is_stmt 0 view .LVU23
  78 0024 0021     		movs	r1, #0
  79 0026 0948     		ldr	r0, .L9
  80 0028 FFF7FEFF 		bl	HAL_I2CEx_ConfigAnalogFilter
  81              	.LVL1:
  82              		.loc 1 48 6 view .LVU24
  83 002c 40B9     		cbnz	r0, .L7
  84              	.L3:
  49:Src/i2c.c     ****   {
  50:Src/i2c.c     ****     Error_Handler();
  51:Src/i2c.c     ****   }
  52:Src/i2c.c     ****   /** Configure Digital filter 
  53:Src/i2c.c     ****   */
  54:Src/i2c.c     ****   if (HAL_I2CEx_ConfigDigitalFilter(&hi2c4, 0) != HAL_OK)
  85              		.loc 1 54 3 is_stmt 1 view .LVU25
  86              		.loc 1 54 7 is_stmt 0 view .LVU26
  87 002e 0021     		movs	r1, #0
  88 0030 0648     		ldr	r0, .L9
  89 0032 FFF7FEFF 		bl	HAL_I2CEx_ConfigDigitalFilter
  90              	.LVL2:
  91              		.loc 1 54 6 view .LVU27
  92 0036 30B9     		cbnz	r0, .L8
  93              	.L1:
  55:Src/i2c.c     ****   {
  56:Src/i2c.c     ****     Error_Handler();
  57:Src/i2c.c     ****   }
  58:Src/i2c.c     **** 
  59:Src/i2c.c     **** }
  94              		.loc 1 59 1 view .LVU28
  95 0038 08BD     		pop	{r3, pc}
  96              	.L6:
  44:Src/i2c.c     ****   }
  97              		.loc 1 44 5 is_stmt 1 view .LVU29
  98 003a FFF7FEFF 		bl	Error_Handler
  99              	.LVL3:
 100 003e F1E7     		b	.L2
 101              	.L7:
  50:Src/i2c.c     ****   }
 102              		.loc 1 50 5 view .LVU30
 103 0040 FFF7FEFF 		bl	Error_Handler
 104              	.LVL4:
 105 0044 F3E7     		b	.L3
 106              	.L8:
  56:Src/i2c.c     ****   }
 107              		.loc 1 56 5 view .LVU31
 108 0046 FFF7FEFF 		bl	Error_Handler
 109              	.LVL5:
 110              		.loc 1 59 1 is_stmt 0 view .LVU32
ARM GAS  C:\Users\Legend\AppData\Local\Temp\ccjV8wE4.s 			page 4


 111 004a F5E7     		b	.L1
 112              	.L10:
 113              		.align	2
 114              	.L9:
 115 004c 00000000 		.word	hi2c4
 116 0050 00600040 		.word	1073766400
 117 0054 68474020 		.word	541083496
 118              		.cfi_endproc
 119              	.LFE141:
 121              		.section	.text.HAL_I2C_MspInit,"ax",%progbits
 122              		.align	1
 123              		.global	HAL_I2C_MspInit
 124              		.syntax unified
 125              		.thumb
 126              		.thumb_func
 127              		.fpu fpv5-d16
 129              	HAL_I2C_MspInit:
 130              	.LVL6:
 131              	.LFB142:
  60:Src/i2c.c     **** 
  61:Src/i2c.c     **** void HAL_I2C_MspInit(I2C_HandleTypeDef* i2cHandle)
  62:Src/i2c.c     **** {
 132              		.loc 1 62 1 is_stmt 1 view -0
 133              		.cfi_startproc
 134              		@ args = 0, pretend = 0, frame = 32
 135              		@ frame_needed = 0, uses_anonymous_args = 0
 136              		.loc 1 62 1 is_stmt 0 view .LVU34
 137 0000 10B5     		push	{r4, lr}
 138              	.LCFI1:
 139              		.cfi_def_cfa_offset 8
 140              		.cfi_offset 4, -8
 141              		.cfi_offset 14, -4
 142 0002 88B0     		sub	sp, sp, #32
 143              	.LCFI2:
 144              		.cfi_def_cfa_offset 40
  63:Src/i2c.c     **** 
  64:Src/i2c.c     ****   GPIO_InitTypeDef GPIO_InitStruct = {0};
 145              		.loc 1 64 3 is_stmt 1 view .LVU35
 146              		.loc 1 64 20 is_stmt 0 view .LVU36
 147 0004 0023     		movs	r3, #0
 148 0006 0393     		str	r3, [sp, #12]
 149 0008 0493     		str	r3, [sp, #16]
 150 000a 0593     		str	r3, [sp, #20]
 151 000c 0693     		str	r3, [sp, #24]
 152 000e 0793     		str	r3, [sp, #28]
  65:Src/i2c.c     ****   if(i2cHandle->Instance==I2C4)
 153              		.loc 1 65 3 is_stmt 1 view .LVU37
 154              		.loc 1 65 15 is_stmt 0 view .LVU38
 155 0010 0268     		ldr	r2, [r0]
 156              		.loc 1 65 5 view .LVU39
 157 0012 144B     		ldr	r3, .L15
 158 0014 9A42     		cmp	r2, r3
 159 0016 01D0     		beq	.L14
 160              	.LVL7:
 161              	.L11:
  66:Src/i2c.c     ****   {
  67:Src/i2c.c     ****   /* USER CODE BEGIN I2C4_MspInit 0 */
ARM GAS  C:\Users\Legend\AppData\Local\Temp\ccjV8wE4.s 			page 5


  68:Src/i2c.c     **** 
  69:Src/i2c.c     ****   /* USER CODE END I2C4_MspInit 0 */
  70:Src/i2c.c     ****   
  71:Src/i2c.c     ****     __HAL_RCC_GPIOD_CLK_ENABLE();
  72:Src/i2c.c     ****     /**I2C4 GPIO Configuration    
  73:Src/i2c.c     ****     PD12     ------> I2C4_SCL
  74:Src/i2c.c     ****     PD13     ------> I2C4_SDA 
  75:Src/i2c.c     ****     */
  76:Src/i2c.c     ****     GPIO_InitStruct.Pin = GPIO_PIN_12|GPIO_PIN_13;
  77:Src/i2c.c     ****     GPIO_InitStruct.Mode = GPIO_MODE_AF_OD;
  78:Src/i2c.c     ****     GPIO_InitStruct.Pull = GPIO_PULLUP;
  79:Src/i2c.c     ****     GPIO_InitStruct.Speed = GPIO_SPEED_FREQ_VERY_HIGH;
  80:Src/i2c.c     ****     GPIO_InitStruct.Alternate = GPIO_AF4_I2C4;
  81:Src/i2c.c     ****     HAL_GPIO_Init(GPIOD, &GPIO_InitStruct);
  82:Src/i2c.c     **** 
  83:Src/i2c.c     ****     /* I2C4 clock enable */
  84:Src/i2c.c     ****     __HAL_RCC_I2C4_CLK_ENABLE();
  85:Src/i2c.c     ****   /* USER CODE BEGIN I2C4_MspInit 1 */
  86:Src/i2c.c     **** 
  87:Src/i2c.c     ****   /* USER CODE END I2C4_MspInit 1 */
  88:Src/i2c.c     ****   }
  89:Src/i2c.c     **** }
 162              		.loc 1 89 1 view .LVU40
 163 0018 08B0     		add	sp, sp, #32
 164              	.LCFI3:
 165              		.cfi_remember_state
 166              		.cfi_def_cfa_offset 8
 167              		@ sp needed
 168 001a 10BD     		pop	{r4, pc}
 169              	.LVL8:
 170              	.L14:
 171              	.LCFI4:
 172              		.cfi_restore_state
  71:Src/i2c.c     ****     /**I2C4 GPIO Configuration    
 173              		.loc 1 71 5 is_stmt 1 view .LVU41
 174              	.LBB2:
  71:Src/i2c.c     ****     /**I2C4 GPIO Configuration    
 175              		.loc 1 71 5 view .LVU42
  71:Src/i2c.c     ****     /**I2C4 GPIO Configuration    
 176              		.loc 1 71 5 view .LVU43
 177 001c 124C     		ldr	r4, .L15+4
 178 001e 236B     		ldr	r3, [r4, #48]
 179 0020 43F00803 		orr	r3, r3, #8
 180 0024 2363     		str	r3, [r4, #48]
  71:Src/i2c.c     ****     /**I2C4 GPIO Configuration    
 181              		.loc 1 71 5 view .LVU44
 182 0026 236B     		ldr	r3, [r4, #48]
 183 0028 03F00803 		and	r3, r3, #8
 184 002c 0193     		str	r3, [sp, #4]
  71:Src/i2c.c     ****     /**I2C4 GPIO Configuration    
 185              		.loc 1 71 5 view .LVU45
 186 002e 019B     		ldr	r3, [sp, #4]
 187              	.LBE2:
  71:Src/i2c.c     ****     /**I2C4 GPIO Configuration    
 188              		.loc 1 71 5 view .LVU46
  76:Src/i2c.c     ****     GPIO_InitStruct.Mode = GPIO_MODE_AF_OD;
 189              		.loc 1 76 5 view .LVU47
ARM GAS  C:\Users\Legend\AppData\Local\Temp\ccjV8wE4.s 			page 6


  76:Src/i2c.c     ****     GPIO_InitStruct.Mode = GPIO_MODE_AF_OD;
 190              		.loc 1 76 25 is_stmt 0 view .LVU48
 191 0030 4FF44053 		mov	r3, #12288
 192 0034 0393     		str	r3, [sp, #12]
  77:Src/i2c.c     ****     GPIO_InitStruct.Pull = GPIO_PULLUP;
 193              		.loc 1 77 5 is_stmt 1 view .LVU49
  77:Src/i2c.c     ****     GPIO_InitStruct.Pull = GPIO_PULLUP;
 194              		.loc 1 77 26 is_stmt 0 view .LVU50
 195 0036 1223     		movs	r3, #18
 196 0038 0493     		str	r3, [sp, #16]
  78:Src/i2c.c     ****     GPIO_InitStruct.Speed = GPIO_SPEED_FREQ_VERY_HIGH;
 197              		.loc 1 78 5 is_stmt 1 view .LVU51
  78:Src/i2c.c     ****     GPIO_InitStruct.Speed = GPIO_SPEED_FREQ_VERY_HIGH;
 198              		.loc 1 78 26 is_stmt 0 view .LVU52
 199 003a 0123     		movs	r3, #1
 200 003c 0593     		str	r3, [sp, #20]
  79:Src/i2c.c     ****     GPIO_InitStruct.Alternate = GPIO_AF4_I2C4;
 201              		.loc 1 79 5 is_stmt 1 view .LVU53
  79:Src/i2c.c     ****     GPIO_InitStruct.Alternate = GPIO_AF4_I2C4;
 202              		.loc 1 79 27 is_stmt 0 view .LVU54
 203 003e 0323     		movs	r3, #3
 204 0040 0693     		str	r3, [sp, #24]
  80:Src/i2c.c     ****     HAL_GPIO_Init(GPIOD, &GPIO_InitStruct);
 205              		.loc 1 80 5 is_stmt 1 view .LVU55
  80:Src/i2c.c     ****     HAL_GPIO_Init(GPIOD, &GPIO_InitStruct);
 206              		.loc 1 80 31 is_stmt 0 view .LVU56
 207 0042 0423     		movs	r3, #4
 208 0044 0793     		str	r3, [sp, #28]
  81:Src/i2c.c     **** 
 209              		.loc 1 81 5 is_stmt 1 view .LVU57
 210 0046 03A9     		add	r1, sp, #12
 211 0048 0848     		ldr	r0, .L15+8
 212              	.LVL9:
  81:Src/i2c.c     **** 
 213              		.loc 1 81 5 is_stmt 0 view .LVU58
 214 004a FFF7FEFF 		bl	HAL_GPIO_Init
 215              	.LVL10:
  84:Src/i2c.c     ****   /* USER CODE BEGIN I2C4_MspInit 1 */
 216              		.loc 1 84 5 is_stmt 1 view .LVU59
 217              	.LBB3:
  84:Src/i2c.c     ****   /* USER CODE BEGIN I2C4_MspInit 1 */
 218              		.loc 1 84 5 view .LVU60
  84:Src/i2c.c     ****   /* USER CODE BEGIN I2C4_MspInit 1 */
 219              		.loc 1 84 5 view .LVU61
 220 004e 236C     		ldr	r3, [r4, #64]
 221 0050 43F08073 		orr	r3, r3, #16777216
 222 0054 2364     		str	r3, [r4, #64]
  84:Src/i2c.c     ****   /* USER CODE BEGIN I2C4_MspInit 1 */
 223              		.loc 1 84 5 view .LVU62
 224 0056 236C     		ldr	r3, [r4, #64]
 225 0058 03F08073 		and	r3, r3, #16777216
 226 005c 0293     		str	r3, [sp, #8]
  84:Src/i2c.c     ****   /* USER CODE BEGIN I2C4_MspInit 1 */
 227              		.loc 1 84 5 view .LVU63
 228 005e 029B     		ldr	r3, [sp, #8]
 229              	.LBE3:
  84:Src/i2c.c     ****   /* USER CODE BEGIN I2C4_MspInit 1 */
ARM GAS  C:\Users\Legend\AppData\Local\Temp\ccjV8wE4.s 			page 7


 230              		.loc 1 84 5 view .LVU64
 231              		.loc 1 89 1 is_stmt 0 view .LVU65
 232 0060 DAE7     		b	.L11
 233              	.L16:
 234 0062 00BF     		.align	2
 235              	.L15:
 236 0064 00600040 		.word	1073766400
 237 0068 00380240 		.word	1073887232
 238 006c 000C0240 		.word	1073875968
 239              		.cfi_endproc
 240              	.LFE142:
 242              		.section	.text.HAL_I2C_MspDeInit,"ax",%progbits
 243              		.align	1
 244              		.global	HAL_I2C_MspDeInit
 245              		.syntax unified
 246              		.thumb
 247              		.thumb_func
 248              		.fpu fpv5-d16
 250              	HAL_I2C_MspDeInit:
 251              	.LVL11:
 252              	.LFB143:
  90:Src/i2c.c     **** 
  91:Src/i2c.c     **** void HAL_I2C_MspDeInit(I2C_HandleTypeDef* i2cHandle)
  92:Src/i2c.c     **** {
 253              		.loc 1 92 1 is_stmt 1 view -0
 254              		.cfi_startproc
 255              		@ args = 0, pretend = 0, frame = 0
 256              		@ frame_needed = 0, uses_anonymous_args = 0
 257              		.loc 1 92 1 is_stmt 0 view .LVU67
 258 0000 08B5     		push	{r3, lr}
 259              	.LCFI5:
 260              		.cfi_def_cfa_offset 8
 261              		.cfi_offset 3, -8
 262              		.cfi_offset 14, -4
  93:Src/i2c.c     **** 
  94:Src/i2c.c     ****   if(i2cHandle->Instance==I2C4)
 263              		.loc 1 94 3 is_stmt 1 view .LVU68
 264              		.loc 1 94 15 is_stmt 0 view .LVU69
 265 0002 0268     		ldr	r2, [r0]
 266              		.loc 1 94 5 view .LVU70
 267 0004 074B     		ldr	r3, .L21
 268 0006 9A42     		cmp	r2, r3
 269 0008 00D0     		beq	.L20
 270              	.LVL12:
 271              	.L17:
  95:Src/i2c.c     ****   {
  96:Src/i2c.c     ****   /* USER CODE BEGIN I2C4_MspDeInit 0 */
  97:Src/i2c.c     **** 
  98:Src/i2c.c     ****   /* USER CODE END I2C4_MspDeInit 0 */
  99:Src/i2c.c     ****     /* Peripheral clock disable */
 100:Src/i2c.c     ****     __HAL_RCC_I2C4_CLK_DISABLE();
 101:Src/i2c.c     ****   
 102:Src/i2c.c     ****     /**I2C4 GPIO Configuration    
 103:Src/i2c.c     ****     PD12     ------> I2C4_SCL
 104:Src/i2c.c     ****     PD13     ------> I2C4_SDA 
 105:Src/i2c.c     ****     */
 106:Src/i2c.c     ****     HAL_GPIO_DeInit(GPIOD, GPIO_PIN_12|GPIO_PIN_13);
ARM GAS  C:\Users\Legend\AppData\Local\Temp\ccjV8wE4.s 			page 8


 107:Src/i2c.c     **** 
 108:Src/i2c.c     ****   /* USER CODE BEGIN I2C4_MspDeInit 1 */
 109:Src/i2c.c     **** 
 110:Src/i2c.c     ****   /* USER CODE END I2C4_MspDeInit 1 */
 111:Src/i2c.c     ****   }
 112:Src/i2c.c     **** } 
 272              		.loc 1 112 1 view .LVU71
 273 000a 08BD     		pop	{r3, pc}
 274              	.LVL13:
 275              	.L20:
 100:Src/i2c.c     ****   
 276              		.loc 1 100 5 is_stmt 1 view .LVU72
 277 000c 064A     		ldr	r2, .L21+4
 278 000e 136C     		ldr	r3, [r2, #64]
 279 0010 23F08073 		bic	r3, r3, #16777216
 280 0014 1364     		str	r3, [r2, #64]
 106:Src/i2c.c     **** 
 281              		.loc 1 106 5 view .LVU73
 282 0016 4FF44051 		mov	r1, #12288
 283 001a 0448     		ldr	r0, .L21+8
 284              	.LVL14:
 106:Src/i2c.c     **** 
 285              		.loc 1 106 5 is_stmt 0 view .LVU74
 286 001c FFF7FEFF 		bl	HAL_GPIO_DeInit
 287              	.LVL15:
 288              		.loc 1 112 1 view .LVU75
 289 0020 F3E7     		b	.L17
 290              	.L22:
 291 0022 00BF     		.align	2
 292              	.L21:
 293 0024 00600040 		.word	1073766400
 294 0028 00380240 		.word	1073887232
 295 002c 000C0240 		.word	1073875968
 296              		.cfi_endproc
 297              	.LFE143:
 299              		.comm	hi2c4,76,4
 300              		.text
 301              	.Letext0:
 302              		.file 2 "f:\\prosoft\\gcc_arm_none\\2019q4\\9 2019-q4-major\\arm-none-eabi\\include\\machine\\_def
 303              		.file 3 "f:\\prosoft\\gcc_arm_none\\2019q4\\9 2019-q4-major\\arm-none-eabi\\include\\sys\\_stdint.
 304              		.file 4 "Drivers/CMSIS/Include/core_cm7.h"
 305              		.file 5 "Drivers/CMSIS/Device/ST/STM32F7xx/Include/system_stm32f7xx.h"
 306              		.file 6 "Drivers/CMSIS/Device/ST/STM32F7xx/Include/stm32f767xx.h"
 307              		.file 7 "Drivers/STM32F7xx_HAL_Driver/Inc/stm32f7xx_hal_def.h"
 308              		.file 8 "Drivers/STM32F7xx_HAL_Driver/Inc/stm32f7xx_hal_gpio.h"
 309              		.file 9 "Drivers/STM32F7xx_HAL_Driver/Inc/stm32f7xx_hal_dma.h"
 310              		.file 10 "Drivers/STM32F7xx_HAL_Driver/Inc/stm32f7xx_hal_i2c.h"
 311              		.file 11 "Drivers/STM32F7xx_HAL_Driver/Inc/stm32f7xx_hal.h"
 312              		.file 12 "Inc/i2c.h"
 313              		.file 13 "Drivers/STM32F7xx_HAL_Driver/Inc/stm32f7xx_hal_i2c_ex.h"
 314              		.file 14 "Inc/main.h"
ARM GAS  C:\Users\Legend\AppData\Local\Temp\ccjV8wE4.s 			page 9

