ARM GAS  C:\Users\Legend\AppData\Local\Temp\cceZzDEz.s 			page 1


   1              		.cpu cortex-m7
   2              		.eabi_attribute 28, 1
   3              		.eabi_attribute 20, 1
   4              		.eabi_attribute 21, 1
   5              		.eabi_attribute 23, 3
   6              		.eabi_attribute 24, 1
   7              		.eabi_attribute 25, 1
   8              		.eabi_attribute 26, 1
   9              		.eabi_attribute 30, 1
  10              		.eabi_attribute 34, 1
  11              		.eabi_attribute 18, 4
  12              		.file	"stm32f7xx_hal_dma_ex.c"
  13              		.text
  14              	.Ltext0:
  15              		.cfi_sections	.debug_frame
  16              		.section	.text.DMA_MultiBufferSetConfig,"ax",%progbits
  17              		.align	1
  18              		.arch armv7e-m
  19              		.syntax unified
  20              		.thumb
  21              		.thumb_func
  22              		.fpu fpv5-d16
  24              	DMA_MultiBufferSetConfig:
  25              	.LVL0:
  26              	.LFB144:
  27              		.file 1 "Drivers/STM32F7xx_HAL_Driver/Src/stm32f7xx_hal_dma_ex.c"
   1:Drivers/STM32F7xx_HAL_Driver/Src/stm32f7xx_hal_dma_ex.c **** /**
   2:Drivers/STM32F7xx_HAL_Driver/Src/stm32f7xx_hal_dma_ex.c ****   ******************************************************************************
   3:Drivers/STM32F7xx_HAL_Driver/Src/stm32f7xx_hal_dma_ex.c ****   * @file    stm32f7xx_hal_dma_ex.c
   4:Drivers/STM32F7xx_HAL_Driver/Src/stm32f7xx_hal_dma_ex.c ****   * @author  MCD Application Team
   5:Drivers/STM32F7xx_HAL_Driver/Src/stm32f7xx_hal_dma_ex.c ****   * @brief   DMA Extension HAL module driver
   6:Drivers/STM32F7xx_HAL_Driver/Src/stm32f7xx_hal_dma_ex.c ****   *         This file provides firmware functions to manage the following 
   7:Drivers/STM32F7xx_HAL_Driver/Src/stm32f7xx_hal_dma_ex.c ****   *         functionalities of the DMA Extension peripheral:
   8:Drivers/STM32F7xx_HAL_Driver/Src/stm32f7xx_hal_dma_ex.c ****   *           + Extended features functions
   9:Drivers/STM32F7xx_HAL_Driver/Src/stm32f7xx_hal_dma_ex.c ****   *
  10:Drivers/STM32F7xx_HAL_Driver/Src/stm32f7xx_hal_dma_ex.c ****   @verbatim
  11:Drivers/STM32F7xx_HAL_Driver/Src/stm32f7xx_hal_dma_ex.c ****   ==============================================================================
  12:Drivers/STM32F7xx_HAL_Driver/Src/stm32f7xx_hal_dma_ex.c ****                         ##### How to use this driver #####
  13:Drivers/STM32F7xx_HAL_Driver/Src/stm32f7xx_hal_dma_ex.c ****   ==============================================================================
  14:Drivers/STM32F7xx_HAL_Driver/Src/stm32f7xx_hal_dma_ex.c ****   [..]
  15:Drivers/STM32F7xx_HAL_Driver/Src/stm32f7xx_hal_dma_ex.c ****   The DMA Extension HAL driver can be used as follows:
  16:Drivers/STM32F7xx_HAL_Driver/Src/stm32f7xx_hal_dma_ex.c ****    (+) Start a multi buffer transfer using the HAL_DMA_MultiBufferStart() function
  17:Drivers/STM32F7xx_HAL_Driver/Src/stm32f7xx_hal_dma_ex.c ****        for polling mode or HAL_DMA_MultiBufferStart_IT() for interrupt mode.
  18:Drivers/STM32F7xx_HAL_Driver/Src/stm32f7xx_hal_dma_ex.c **** 
  19:Drivers/STM32F7xx_HAL_Driver/Src/stm32f7xx_hal_dma_ex.c ****      -@-  In Memory-to-Memory transfer mode, Multi (Double) Buffer mode is not allowed.
  20:Drivers/STM32F7xx_HAL_Driver/Src/stm32f7xx_hal_dma_ex.c ****      -@-  When Multi (Double) Buffer mode is enabled, the transfer is circular by default.
  21:Drivers/STM32F7xx_HAL_Driver/Src/stm32f7xx_hal_dma_ex.c ****      -@-  In Multi (Double) buffer mode, it is possible to update the base address for 
  22:Drivers/STM32F7xx_HAL_Driver/Src/stm32f7xx_hal_dma_ex.c ****           the AHB memory port on the fly (DMA_SxM0AR or DMA_SxM1AR) when the stream is enabled.
  23:Drivers/STM32F7xx_HAL_Driver/Src/stm32f7xx_hal_dma_ex.c ****   
  24:Drivers/STM32F7xx_HAL_Driver/Src/stm32f7xx_hal_dma_ex.c ****   @endverbatim
  25:Drivers/STM32F7xx_HAL_Driver/Src/stm32f7xx_hal_dma_ex.c ****   ******************************************************************************
  26:Drivers/STM32F7xx_HAL_Driver/Src/stm32f7xx_hal_dma_ex.c ****   * @attention
  27:Drivers/STM32F7xx_HAL_Driver/Src/stm32f7xx_hal_dma_ex.c ****   *
  28:Drivers/STM32F7xx_HAL_Driver/Src/stm32f7xx_hal_dma_ex.c ****   * <h2><center>&copy; Copyright (c) 2017 STMicroelectronics.
  29:Drivers/STM32F7xx_HAL_Driver/Src/stm32f7xx_hal_dma_ex.c ****   * All rights reserved.</center></h2>
  30:Drivers/STM32F7xx_HAL_Driver/Src/stm32f7xx_hal_dma_ex.c ****   *
  31:Drivers/STM32F7xx_HAL_Driver/Src/stm32f7xx_hal_dma_ex.c ****   * This software component is licensed by ST under BSD 3-Clause license,
ARM GAS  C:\Users\Legend\AppData\Local\Temp\cceZzDEz.s 			page 2


  32:Drivers/STM32F7xx_HAL_Driver/Src/stm32f7xx_hal_dma_ex.c ****   * the "License"; You may not use this file except in compliance with the
  33:Drivers/STM32F7xx_HAL_Driver/Src/stm32f7xx_hal_dma_ex.c ****   * License. You may obtain a copy of the License at:
  34:Drivers/STM32F7xx_HAL_Driver/Src/stm32f7xx_hal_dma_ex.c ****   *                        opensource.org/licenses/BSD-3-Clause
  35:Drivers/STM32F7xx_HAL_Driver/Src/stm32f7xx_hal_dma_ex.c ****   *
  36:Drivers/STM32F7xx_HAL_Driver/Src/stm32f7xx_hal_dma_ex.c ****   ******************************************************************************
  37:Drivers/STM32F7xx_HAL_Driver/Src/stm32f7xx_hal_dma_ex.c ****   */
  38:Drivers/STM32F7xx_HAL_Driver/Src/stm32f7xx_hal_dma_ex.c **** 
  39:Drivers/STM32F7xx_HAL_Driver/Src/stm32f7xx_hal_dma_ex.c **** /* Includes ------------------------------------------------------------------*/
  40:Drivers/STM32F7xx_HAL_Driver/Src/stm32f7xx_hal_dma_ex.c **** #include "stm32f7xx_hal.h"
  41:Drivers/STM32F7xx_HAL_Driver/Src/stm32f7xx_hal_dma_ex.c **** 
  42:Drivers/STM32F7xx_HAL_Driver/Src/stm32f7xx_hal_dma_ex.c **** /** @addtogroup STM32F7xx_HAL_Driver
  43:Drivers/STM32F7xx_HAL_Driver/Src/stm32f7xx_hal_dma_ex.c ****   * @{
  44:Drivers/STM32F7xx_HAL_Driver/Src/stm32f7xx_hal_dma_ex.c ****   */
  45:Drivers/STM32F7xx_HAL_Driver/Src/stm32f7xx_hal_dma_ex.c **** 
  46:Drivers/STM32F7xx_HAL_Driver/Src/stm32f7xx_hal_dma_ex.c **** /** @defgroup DMAEx DMAEx
  47:Drivers/STM32F7xx_HAL_Driver/Src/stm32f7xx_hal_dma_ex.c ****   * @brief DMA Extended HAL module driver
  48:Drivers/STM32F7xx_HAL_Driver/Src/stm32f7xx_hal_dma_ex.c ****   * @{
  49:Drivers/STM32F7xx_HAL_Driver/Src/stm32f7xx_hal_dma_ex.c ****   */
  50:Drivers/STM32F7xx_HAL_Driver/Src/stm32f7xx_hal_dma_ex.c **** 
  51:Drivers/STM32F7xx_HAL_Driver/Src/stm32f7xx_hal_dma_ex.c **** #ifdef HAL_DMA_MODULE_ENABLED
  52:Drivers/STM32F7xx_HAL_Driver/Src/stm32f7xx_hal_dma_ex.c **** 
  53:Drivers/STM32F7xx_HAL_Driver/Src/stm32f7xx_hal_dma_ex.c **** /* Private types -------------------------------------------------------------*/
  54:Drivers/STM32F7xx_HAL_Driver/Src/stm32f7xx_hal_dma_ex.c **** /* Private variables ---------------------------------------------------------*/
  55:Drivers/STM32F7xx_HAL_Driver/Src/stm32f7xx_hal_dma_ex.c **** /* Private Constants ---------------------------------------------------------*/
  56:Drivers/STM32F7xx_HAL_Driver/Src/stm32f7xx_hal_dma_ex.c **** /* Private macros ------------------------------------------------------------*/
  57:Drivers/STM32F7xx_HAL_Driver/Src/stm32f7xx_hal_dma_ex.c **** /* Private functions ---------------------------------------------------------*/
  58:Drivers/STM32F7xx_HAL_Driver/Src/stm32f7xx_hal_dma_ex.c **** /** @addtogroup DMAEx_Private_Functions
  59:Drivers/STM32F7xx_HAL_Driver/Src/stm32f7xx_hal_dma_ex.c ****   * @{
  60:Drivers/STM32F7xx_HAL_Driver/Src/stm32f7xx_hal_dma_ex.c ****   */
  61:Drivers/STM32F7xx_HAL_Driver/Src/stm32f7xx_hal_dma_ex.c **** 
  62:Drivers/STM32F7xx_HAL_Driver/Src/stm32f7xx_hal_dma_ex.c **** static void DMA_MultiBufferSetConfig(DMA_HandleTypeDef *hdma, uint32_t SrcAddress, uint32_t DstAddr
  63:Drivers/STM32F7xx_HAL_Driver/Src/stm32f7xx_hal_dma_ex.c **** 
  64:Drivers/STM32F7xx_HAL_Driver/Src/stm32f7xx_hal_dma_ex.c **** /**
  65:Drivers/STM32F7xx_HAL_Driver/Src/stm32f7xx_hal_dma_ex.c ****   * @}
  66:Drivers/STM32F7xx_HAL_Driver/Src/stm32f7xx_hal_dma_ex.c ****   */
  67:Drivers/STM32F7xx_HAL_Driver/Src/stm32f7xx_hal_dma_ex.c **** 
  68:Drivers/STM32F7xx_HAL_Driver/Src/stm32f7xx_hal_dma_ex.c **** /* Exported functions ---------------------------------------------------------*/
  69:Drivers/STM32F7xx_HAL_Driver/Src/stm32f7xx_hal_dma_ex.c **** 
  70:Drivers/STM32F7xx_HAL_Driver/Src/stm32f7xx_hal_dma_ex.c **** /** @addtogroup DMAEx_Exported_Functions
  71:Drivers/STM32F7xx_HAL_Driver/Src/stm32f7xx_hal_dma_ex.c ****   * @{
  72:Drivers/STM32F7xx_HAL_Driver/Src/stm32f7xx_hal_dma_ex.c ****   */
  73:Drivers/STM32F7xx_HAL_Driver/Src/stm32f7xx_hal_dma_ex.c **** 
  74:Drivers/STM32F7xx_HAL_Driver/Src/stm32f7xx_hal_dma_ex.c **** 
  75:Drivers/STM32F7xx_HAL_Driver/Src/stm32f7xx_hal_dma_ex.c **** /** @addtogroup DMAEx_Exported_Functions_Group1
  76:Drivers/STM32F7xx_HAL_Driver/Src/stm32f7xx_hal_dma_ex.c ****   *
  77:Drivers/STM32F7xx_HAL_Driver/Src/stm32f7xx_hal_dma_ex.c **** @verbatim
  78:Drivers/STM32F7xx_HAL_Driver/Src/stm32f7xx_hal_dma_ex.c ****  ===============================================================================
  79:Drivers/STM32F7xx_HAL_Driver/Src/stm32f7xx_hal_dma_ex.c ****                 #####  Extended features functions  #####
  80:Drivers/STM32F7xx_HAL_Driver/Src/stm32f7xx_hal_dma_ex.c ****  ===============================================================================  
  81:Drivers/STM32F7xx_HAL_Driver/Src/stm32f7xx_hal_dma_ex.c ****     [..]  This section provides functions allowing to:
  82:Drivers/STM32F7xx_HAL_Driver/Src/stm32f7xx_hal_dma_ex.c ****       (+) Configure the source, destination address and data length and 
  83:Drivers/STM32F7xx_HAL_Driver/Src/stm32f7xx_hal_dma_ex.c ****           Start MultiBuffer DMA transfer
  84:Drivers/STM32F7xx_HAL_Driver/Src/stm32f7xx_hal_dma_ex.c ****       (+) Configure the source, destination address and data length and 
  85:Drivers/STM32F7xx_HAL_Driver/Src/stm32f7xx_hal_dma_ex.c ****           Start MultiBuffer DMA transfer with interrupt
  86:Drivers/STM32F7xx_HAL_Driver/Src/stm32f7xx_hal_dma_ex.c ****       (+) Change on the fly the memory0 or memory1 address.
  87:Drivers/STM32F7xx_HAL_Driver/Src/stm32f7xx_hal_dma_ex.c ****       
  88:Drivers/STM32F7xx_HAL_Driver/Src/stm32f7xx_hal_dma_ex.c **** @endverbatim
ARM GAS  C:\Users\Legend\AppData\Local\Temp\cceZzDEz.s 			page 3


  89:Drivers/STM32F7xx_HAL_Driver/Src/stm32f7xx_hal_dma_ex.c ****   * @{
  90:Drivers/STM32F7xx_HAL_Driver/Src/stm32f7xx_hal_dma_ex.c ****   */
  91:Drivers/STM32F7xx_HAL_Driver/Src/stm32f7xx_hal_dma_ex.c **** 
  92:Drivers/STM32F7xx_HAL_Driver/Src/stm32f7xx_hal_dma_ex.c **** 
  93:Drivers/STM32F7xx_HAL_Driver/Src/stm32f7xx_hal_dma_ex.c **** /**
  94:Drivers/STM32F7xx_HAL_Driver/Src/stm32f7xx_hal_dma_ex.c ****   * @brief  Starts the multi_buffer DMA Transfer.
  95:Drivers/STM32F7xx_HAL_Driver/Src/stm32f7xx_hal_dma_ex.c ****   * @param  hdma       pointer to a DMA_HandleTypeDef structure that contains
  96:Drivers/STM32F7xx_HAL_Driver/Src/stm32f7xx_hal_dma_ex.c ****   *                     the configuration information for the specified DMA Stream.  
  97:Drivers/STM32F7xx_HAL_Driver/Src/stm32f7xx_hal_dma_ex.c ****   * @param  SrcAddress The source memory Buffer address
  98:Drivers/STM32F7xx_HAL_Driver/Src/stm32f7xx_hal_dma_ex.c ****   * @param  DstAddress The destination memory Buffer address
  99:Drivers/STM32F7xx_HAL_Driver/Src/stm32f7xx_hal_dma_ex.c ****   * @param  SecondMemAddress The second memory Buffer address in case of multi buffer Transfer  
 100:Drivers/STM32F7xx_HAL_Driver/Src/stm32f7xx_hal_dma_ex.c ****   * @param  DataLength The length of data to be transferred from source to destination
 101:Drivers/STM32F7xx_HAL_Driver/Src/stm32f7xx_hal_dma_ex.c ****   * @retval HAL status
 102:Drivers/STM32F7xx_HAL_Driver/Src/stm32f7xx_hal_dma_ex.c ****   */
 103:Drivers/STM32F7xx_HAL_Driver/Src/stm32f7xx_hal_dma_ex.c **** HAL_StatusTypeDef HAL_DMAEx_MultiBufferStart(DMA_HandleTypeDef *hdma, uint32_t SrcAddress, uint32_t
 104:Drivers/STM32F7xx_HAL_Driver/Src/stm32f7xx_hal_dma_ex.c **** {
 105:Drivers/STM32F7xx_HAL_Driver/Src/stm32f7xx_hal_dma_ex.c ****   HAL_StatusTypeDef status = HAL_OK;
 106:Drivers/STM32F7xx_HAL_Driver/Src/stm32f7xx_hal_dma_ex.c ****   
 107:Drivers/STM32F7xx_HAL_Driver/Src/stm32f7xx_hal_dma_ex.c ****   /* Check the parameters */
 108:Drivers/STM32F7xx_HAL_Driver/Src/stm32f7xx_hal_dma_ex.c ****   assert_param(IS_DMA_BUFFER_SIZE(DataLength));
 109:Drivers/STM32F7xx_HAL_Driver/Src/stm32f7xx_hal_dma_ex.c ****   
 110:Drivers/STM32F7xx_HAL_Driver/Src/stm32f7xx_hal_dma_ex.c ****   /* Memory-to-memory transfer not supported in double buffering mode */
 111:Drivers/STM32F7xx_HAL_Driver/Src/stm32f7xx_hal_dma_ex.c ****   if (hdma->Init.Direction == DMA_MEMORY_TO_MEMORY)
 112:Drivers/STM32F7xx_HAL_Driver/Src/stm32f7xx_hal_dma_ex.c ****   {
 113:Drivers/STM32F7xx_HAL_Driver/Src/stm32f7xx_hal_dma_ex.c ****     hdma->ErrorCode = HAL_DMA_ERROR_NOT_SUPPORTED;
 114:Drivers/STM32F7xx_HAL_Driver/Src/stm32f7xx_hal_dma_ex.c ****     status = HAL_ERROR;
 115:Drivers/STM32F7xx_HAL_Driver/Src/stm32f7xx_hal_dma_ex.c ****   }
 116:Drivers/STM32F7xx_HAL_Driver/Src/stm32f7xx_hal_dma_ex.c ****   else
 117:Drivers/STM32F7xx_HAL_Driver/Src/stm32f7xx_hal_dma_ex.c ****   {
 118:Drivers/STM32F7xx_HAL_Driver/Src/stm32f7xx_hal_dma_ex.c ****     /* Process Locked */
 119:Drivers/STM32F7xx_HAL_Driver/Src/stm32f7xx_hal_dma_ex.c ****     __HAL_LOCK(hdma);
 120:Drivers/STM32F7xx_HAL_Driver/Src/stm32f7xx_hal_dma_ex.c ****     
 121:Drivers/STM32F7xx_HAL_Driver/Src/stm32f7xx_hal_dma_ex.c ****     if(HAL_DMA_STATE_READY == hdma->State)
 122:Drivers/STM32F7xx_HAL_Driver/Src/stm32f7xx_hal_dma_ex.c ****     {
 123:Drivers/STM32F7xx_HAL_Driver/Src/stm32f7xx_hal_dma_ex.c ****       /* Change DMA peripheral state */
 124:Drivers/STM32F7xx_HAL_Driver/Src/stm32f7xx_hal_dma_ex.c ****       hdma->State = HAL_DMA_STATE_BUSY; 
 125:Drivers/STM32F7xx_HAL_Driver/Src/stm32f7xx_hal_dma_ex.c ****       
 126:Drivers/STM32F7xx_HAL_Driver/Src/stm32f7xx_hal_dma_ex.c ****       /* Enable the double buffer mode */
 127:Drivers/STM32F7xx_HAL_Driver/Src/stm32f7xx_hal_dma_ex.c ****       hdma->Instance->CR |= (uint32_t)DMA_SxCR_DBM;
 128:Drivers/STM32F7xx_HAL_Driver/Src/stm32f7xx_hal_dma_ex.c ****       
 129:Drivers/STM32F7xx_HAL_Driver/Src/stm32f7xx_hal_dma_ex.c ****       /* Configure DMA Stream destination address */
 130:Drivers/STM32F7xx_HAL_Driver/Src/stm32f7xx_hal_dma_ex.c ****       hdma->Instance->M1AR = SecondMemAddress;
 131:Drivers/STM32F7xx_HAL_Driver/Src/stm32f7xx_hal_dma_ex.c ****       
 132:Drivers/STM32F7xx_HAL_Driver/Src/stm32f7xx_hal_dma_ex.c ****       /* Configure the source, destination address and the data length */
 133:Drivers/STM32F7xx_HAL_Driver/Src/stm32f7xx_hal_dma_ex.c ****       DMA_MultiBufferSetConfig(hdma, SrcAddress, DstAddress, DataLength);
 134:Drivers/STM32F7xx_HAL_Driver/Src/stm32f7xx_hal_dma_ex.c ****       
 135:Drivers/STM32F7xx_HAL_Driver/Src/stm32f7xx_hal_dma_ex.c ****       /* Enable the peripheral */
 136:Drivers/STM32F7xx_HAL_Driver/Src/stm32f7xx_hal_dma_ex.c ****       __HAL_DMA_ENABLE(hdma);
 137:Drivers/STM32F7xx_HAL_Driver/Src/stm32f7xx_hal_dma_ex.c ****     }
 138:Drivers/STM32F7xx_HAL_Driver/Src/stm32f7xx_hal_dma_ex.c ****     else
 139:Drivers/STM32F7xx_HAL_Driver/Src/stm32f7xx_hal_dma_ex.c ****     {
 140:Drivers/STM32F7xx_HAL_Driver/Src/stm32f7xx_hal_dma_ex.c ****       /* Return error status */
 141:Drivers/STM32F7xx_HAL_Driver/Src/stm32f7xx_hal_dma_ex.c ****       status = HAL_BUSY;
 142:Drivers/STM32F7xx_HAL_Driver/Src/stm32f7xx_hal_dma_ex.c ****     }
 143:Drivers/STM32F7xx_HAL_Driver/Src/stm32f7xx_hal_dma_ex.c ****   }
 144:Drivers/STM32F7xx_HAL_Driver/Src/stm32f7xx_hal_dma_ex.c ****   return status;
 145:Drivers/STM32F7xx_HAL_Driver/Src/stm32f7xx_hal_dma_ex.c **** }
ARM GAS  C:\Users\Legend\AppData\Local\Temp\cceZzDEz.s 			page 4


 146:Drivers/STM32F7xx_HAL_Driver/Src/stm32f7xx_hal_dma_ex.c **** 
 147:Drivers/STM32F7xx_HAL_Driver/Src/stm32f7xx_hal_dma_ex.c **** /**
 148:Drivers/STM32F7xx_HAL_Driver/Src/stm32f7xx_hal_dma_ex.c ****   * @brief  Starts the multi_buffer DMA Transfer with interrupt enabled.
 149:Drivers/STM32F7xx_HAL_Driver/Src/stm32f7xx_hal_dma_ex.c ****   * @param  hdma       pointer to a DMA_HandleTypeDef structure that contains
 150:Drivers/STM32F7xx_HAL_Driver/Src/stm32f7xx_hal_dma_ex.c ****   *                     the configuration information for the specified DMA Stream.  
 151:Drivers/STM32F7xx_HAL_Driver/Src/stm32f7xx_hal_dma_ex.c ****   * @param  SrcAddress The source memory Buffer address
 152:Drivers/STM32F7xx_HAL_Driver/Src/stm32f7xx_hal_dma_ex.c ****   * @param  DstAddress The destination memory Buffer address
 153:Drivers/STM32F7xx_HAL_Driver/Src/stm32f7xx_hal_dma_ex.c ****   * @param  SecondMemAddress The second memory Buffer address in case of multi buffer Transfer  
 154:Drivers/STM32F7xx_HAL_Driver/Src/stm32f7xx_hal_dma_ex.c ****   * @param  DataLength The length of data to be transferred from source to destination
 155:Drivers/STM32F7xx_HAL_Driver/Src/stm32f7xx_hal_dma_ex.c ****   * @retval HAL status
 156:Drivers/STM32F7xx_HAL_Driver/Src/stm32f7xx_hal_dma_ex.c ****   */
 157:Drivers/STM32F7xx_HAL_Driver/Src/stm32f7xx_hal_dma_ex.c **** HAL_StatusTypeDef HAL_DMAEx_MultiBufferStart_IT(DMA_HandleTypeDef *hdma, uint32_t SrcAddress, uint3
 158:Drivers/STM32F7xx_HAL_Driver/Src/stm32f7xx_hal_dma_ex.c **** {
 159:Drivers/STM32F7xx_HAL_Driver/Src/stm32f7xx_hal_dma_ex.c ****   HAL_StatusTypeDef status = HAL_OK;
 160:Drivers/STM32F7xx_HAL_Driver/Src/stm32f7xx_hal_dma_ex.c ****   
 161:Drivers/STM32F7xx_HAL_Driver/Src/stm32f7xx_hal_dma_ex.c ****   /* Check the parameters */
 162:Drivers/STM32F7xx_HAL_Driver/Src/stm32f7xx_hal_dma_ex.c ****   assert_param(IS_DMA_BUFFER_SIZE(DataLength));
 163:Drivers/STM32F7xx_HAL_Driver/Src/stm32f7xx_hal_dma_ex.c ****   
 164:Drivers/STM32F7xx_HAL_Driver/Src/stm32f7xx_hal_dma_ex.c ****   /* Memory-to-memory transfer not supported in double buffering mode */
 165:Drivers/STM32F7xx_HAL_Driver/Src/stm32f7xx_hal_dma_ex.c ****   if (hdma->Init.Direction == DMA_MEMORY_TO_MEMORY)
 166:Drivers/STM32F7xx_HAL_Driver/Src/stm32f7xx_hal_dma_ex.c ****   {
 167:Drivers/STM32F7xx_HAL_Driver/Src/stm32f7xx_hal_dma_ex.c ****     hdma->ErrorCode = HAL_DMA_ERROR_NOT_SUPPORTED;
 168:Drivers/STM32F7xx_HAL_Driver/Src/stm32f7xx_hal_dma_ex.c ****     return HAL_ERROR;
 169:Drivers/STM32F7xx_HAL_Driver/Src/stm32f7xx_hal_dma_ex.c ****   }
 170:Drivers/STM32F7xx_HAL_Driver/Src/stm32f7xx_hal_dma_ex.c ****   
 171:Drivers/STM32F7xx_HAL_Driver/Src/stm32f7xx_hal_dma_ex.c ****   /* Process locked */
 172:Drivers/STM32F7xx_HAL_Driver/Src/stm32f7xx_hal_dma_ex.c ****   __HAL_LOCK(hdma);
 173:Drivers/STM32F7xx_HAL_Driver/Src/stm32f7xx_hal_dma_ex.c ****   
 174:Drivers/STM32F7xx_HAL_Driver/Src/stm32f7xx_hal_dma_ex.c ****   if(HAL_DMA_STATE_READY == hdma->State)
 175:Drivers/STM32F7xx_HAL_Driver/Src/stm32f7xx_hal_dma_ex.c ****   {
 176:Drivers/STM32F7xx_HAL_Driver/Src/stm32f7xx_hal_dma_ex.c ****     /* Change DMA peripheral state */
 177:Drivers/STM32F7xx_HAL_Driver/Src/stm32f7xx_hal_dma_ex.c ****     hdma->State = HAL_DMA_STATE_BUSY;
 178:Drivers/STM32F7xx_HAL_Driver/Src/stm32f7xx_hal_dma_ex.c ****     
 179:Drivers/STM32F7xx_HAL_Driver/Src/stm32f7xx_hal_dma_ex.c ****     /* Initialize the error code */
 180:Drivers/STM32F7xx_HAL_Driver/Src/stm32f7xx_hal_dma_ex.c ****     hdma->ErrorCode = HAL_DMA_ERROR_NONE;
 181:Drivers/STM32F7xx_HAL_Driver/Src/stm32f7xx_hal_dma_ex.c ****     
 182:Drivers/STM32F7xx_HAL_Driver/Src/stm32f7xx_hal_dma_ex.c ****     /* Enable the Double buffer mode */
 183:Drivers/STM32F7xx_HAL_Driver/Src/stm32f7xx_hal_dma_ex.c ****     hdma->Instance->CR |= (uint32_t)DMA_SxCR_DBM;
 184:Drivers/STM32F7xx_HAL_Driver/Src/stm32f7xx_hal_dma_ex.c ****     
 185:Drivers/STM32F7xx_HAL_Driver/Src/stm32f7xx_hal_dma_ex.c ****     /* Configure DMA Stream destination address */
 186:Drivers/STM32F7xx_HAL_Driver/Src/stm32f7xx_hal_dma_ex.c ****     hdma->Instance->M1AR = SecondMemAddress;
 187:Drivers/STM32F7xx_HAL_Driver/Src/stm32f7xx_hal_dma_ex.c ****     
 188:Drivers/STM32F7xx_HAL_Driver/Src/stm32f7xx_hal_dma_ex.c ****     /* Configure the source, destination address and the data length */
 189:Drivers/STM32F7xx_HAL_Driver/Src/stm32f7xx_hal_dma_ex.c ****     DMA_MultiBufferSetConfig(hdma, SrcAddress, DstAddress, DataLength); 
 190:Drivers/STM32F7xx_HAL_Driver/Src/stm32f7xx_hal_dma_ex.c ****     
 191:Drivers/STM32F7xx_HAL_Driver/Src/stm32f7xx_hal_dma_ex.c ****     /* Clear all flags */
 192:Drivers/STM32F7xx_HAL_Driver/Src/stm32f7xx_hal_dma_ex.c ****     __HAL_DMA_CLEAR_FLAG (hdma, __HAL_DMA_GET_TC_FLAG_INDEX(hdma));
 193:Drivers/STM32F7xx_HAL_Driver/Src/stm32f7xx_hal_dma_ex.c ****     __HAL_DMA_CLEAR_FLAG (hdma, __HAL_DMA_GET_HT_FLAG_INDEX(hdma));
 194:Drivers/STM32F7xx_HAL_Driver/Src/stm32f7xx_hal_dma_ex.c ****     __HAL_DMA_CLEAR_FLAG (hdma, __HAL_DMA_GET_TE_FLAG_INDEX(hdma));
 195:Drivers/STM32F7xx_HAL_Driver/Src/stm32f7xx_hal_dma_ex.c ****     __HAL_DMA_CLEAR_FLAG (hdma, __HAL_DMA_GET_DME_FLAG_INDEX(hdma));
 196:Drivers/STM32F7xx_HAL_Driver/Src/stm32f7xx_hal_dma_ex.c ****     __HAL_DMA_CLEAR_FLAG (hdma, __HAL_DMA_GET_FE_FLAG_INDEX(hdma));
 197:Drivers/STM32F7xx_HAL_Driver/Src/stm32f7xx_hal_dma_ex.c ****     
 198:Drivers/STM32F7xx_HAL_Driver/Src/stm32f7xx_hal_dma_ex.c ****     /* Enable Common interrupts*/
 199:Drivers/STM32F7xx_HAL_Driver/Src/stm32f7xx_hal_dma_ex.c ****     hdma->Instance->CR  |= DMA_IT_TC | DMA_IT_TE | DMA_IT_DME;
 200:Drivers/STM32F7xx_HAL_Driver/Src/stm32f7xx_hal_dma_ex.c ****     hdma->Instance->FCR |= DMA_IT_FE;
 201:Drivers/STM32F7xx_HAL_Driver/Src/stm32f7xx_hal_dma_ex.c ****     
 202:Drivers/STM32F7xx_HAL_Driver/Src/stm32f7xx_hal_dma_ex.c ****     if((hdma->XferHalfCpltCallback != NULL) || (hdma->XferM1HalfCpltCallback != NULL))
ARM GAS  C:\Users\Legend\AppData\Local\Temp\cceZzDEz.s 			page 5


 203:Drivers/STM32F7xx_HAL_Driver/Src/stm32f7xx_hal_dma_ex.c ****     {
 204:Drivers/STM32F7xx_HAL_Driver/Src/stm32f7xx_hal_dma_ex.c ****       hdma->Instance->CR  |= DMA_IT_HT;
 205:Drivers/STM32F7xx_HAL_Driver/Src/stm32f7xx_hal_dma_ex.c ****     }
 206:Drivers/STM32F7xx_HAL_Driver/Src/stm32f7xx_hal_dma_ex.c ****     
 207:Drivers/STM32F7xx_HAL_Driver/Src/stm32f7xx_hal_dma_ex.c ****     /* Enable the peripheral */
 208:Drivers/STM32F7xx_HAL_Driver/Src/stm32f7xx_hal_dma_ex.c ****     __HAL_DMA_ENABLE(hdma); 
 209:Drivers/STM32F7xx_HAL_Driver/Src/stm32f7xx_hal_dma_ex.c ****   }
 210:Drivers/STM32F7xx_HAL_Driver/Src/stm32f7xx_hal_dma_ex.c ****   else
 211:Drivers/STM32F7xx_HAL_Driver/Src/stm32f7xx_hal_dma_ex.c ****   {     
 212:Drivers/STM32F7xx_HAL_Driver/Src/stm32f7xx_hal_dma_ex.c ****     /* Process unlocked */
 213:Drivers/STM32F7xx_HAL_Driver/Src/stm32f7xx_hal_dma_ex.c ****     __HAL_UNLOCK(hdma);	  
 214:Drivers/STM32F7xx_HAL_Driver/Src/stm32f7xx_hal_dma_ex.c ****     
 215:Drivers/STM32F7xx_HAL_Driver/Src/stm32f7xx_hal_dma_ex.c ****     /* Return error status */
 216:Drivers/STM32F7xx_HAL_Driver/Src/stm32f7xx_hal_dma_ex.c ****     status = HAL_BUSY;
 217:Drivers/STM32F7xx_HAL_Driver/Src/stm32f7xx_hal_dma_ex.c ****   }  
 218:Drivers/STM32F7xx_HAL_Driver/Src/stm32f7xx_hal_dma_ex.c ****   return status; 
 219:Drivers/STM32F7xx_HAL_Driver/Src/stm32f7xx_hal_dma_ex.c **** }
 220:Drivers/STM32F7xx_HAL_Driver/Src/stm32f7xx_hal_dma_ex.c **** 
 221:Drivers/STM32F7xx_HAL_Driver/Src/stm32f7xx_hal_dma_ex.c **** /**
 222:Drivers/STM32F7xx_HAL_Driver/Src/stm32f7xx_hal_dma_ex.c ****   * @brief  Change the memory0 or memory1 address on the fly.
 223:Drivers/STM32F7xx_HAL_Driver/Src/stm32f7xx_hal_dma_ex.c ****   * @param  hdma       pointer to a DMA_HandleTypeDef structure that contains
 224:Drivers/STM32F7xx_HAL_Driver/Src/stm32f7xx_hal_dma_ex.c ****   *                     the configuration information for the specified DMA Stream.  
 225:Drivers/STM32F7xx_HAL_Driver/Src/stm32f7xx_hal_dma_ex.c ****   * @param  Address    The new address
 226:Drivers/STM32F7xx_HAL_Driver/Src/stm32f7xx_hal_dma_ex.c ****   * @param  memory     the memory to be changed, This parameter can be one of 
 227:Drivers/STM32F7xx_HAL_Driver/Src/stm32f7xx_hal_dma_ex.c ****   *                     the following values:
 228:Drivers/STM32F7xx_HAL_Driver/Src/stm32f7xx_hal_dma_ex.c ****   *                      MEMORY0 /
 229:Drivers/STM32F7xx_HAL_Driver/Src/stm32f7xx_hal_dma_ex.c ****   *                      MEMORY1
 230:Drivers/STM32F7xx_HAL_Driver/Src/stm32f7xx_hal_dma_ex.c ****   * @note   The MEMORY0 address can be changed only when the current transfer use
 231:Drivers/STM32F7xx_HAL_Driver/Src/stm32f7xx_hal_dma_ex.c ****   *         MEMORY1 and the MEMORY1 address can be changed only when the current 
 232:Drivers/STM32F7xx_HAL_Driver/Src/stm32f7xx_hal_dma_ex.c ****   *         transfer use MEMORY0.
 233:Drivers/STM32F7xx_HAL_Driver/Src/stm32f7xx_hal_dma_ex.c ****   * @retval HAL status
 234:Drivers/STM32F7xx_HAL_Driver/Src/stm32f7xx_hal_dma_ex.c ****   */
 235:Drivers/STM32F7xx_HAL_Driver/Src/stm32f7xx_hal_dma_ex.c **** HAL_StatusTypeDef HAL_DMAEx_ChangeMemory(DMA_HandleTypeDef *hdma, uint32_t Address, HAL_DMA_MemoryT
 236:Drivers/STM32F7xx_HAL_Driver/Src/stm32f7xx_hal_dma_ex.c **** {
 237:Drivers/STM32F7xx_HAL_Driver/Src/stm32f7xx_hal_dma_ex.c ****   if(memory == MEMORY0)
 238:Drivers/STM32F7xx_HAL_Driver/Src/stm32f7xx_hal_dma_ex.c ****   {
 239:Drivers/STM32F7xx_HAL_Driver/Src/stm32f7xx_hal_dma_ex.c ****     /* change the memory0 address */
 240:Drivers/STM32F7xx_HAL_Driver/Src/stm32f7xx_hal_dma_ex.c ****     hdma->Instance->M0AR = Address;
 241:Drivers/STM32F7xx_HAL_Driver/Src/stm32f7xx_hal_dma_ex.c ****   }
 242:Drivers/STM32F7xx_HAL_Driver/Src/stm32f7xx_hal_dma_ex.c ****   else
 243:Drivers/STM32F7xx_HAL_Driver/Src/stm32f7xx_hal_dma_ex.c ****   {
 244:Drivers/STM32F7xx_HAL_Driver/Src/stm32f7xx_hal_dma_ex.c ****     /* change the memory1 address */
 245:Drivers/STM32F7xx_HAL_Driver/Src/stm32f7xx_hal_dma_ex.c ****     hdma->Instance->M1AR = Address;
 246:Drivers/STM32F7xx_HAL_Driver/Src/stm32f7xx_hal_dma_ex.c ****   }
 247:Drivers/STM32F7xx_HAL_Driver/Src/stm32f7xx_hal_dma_ex.c ****   
 248:Drivers/STM32F7xx_HAL_Driver/Src/stm32f7xx_hal_dma_ex.c ****   return HAL_OK;
 249:Drivers/STM32F7xx_HAL_Driver/Src/stm32f7xx_hal_dma_ex.c **** }
 250:Drivers/STM32F7xx_HAL_Driver/Src/stm32f7xx_hal_dma_ex.c **** 
 251:Drivers/STM32F7xx_HAL_Driver/Src/stm32f7xx_hal_dma_ex.c **** /**
 252:Drivers/STM32F7xx_HAL_Driver/Src/stm32f7xx_hal_dma_ex.c ****   * @}
 253:Drivers/STM32F7xx_HAL_Driver/Src/stm32f7xx_hal_dma_ex.c ****   */
 254:Drivers/STM32F7xx_HAL_Driver/Src/stm32f7xx_hal_dma_ex.c **** 
 255:Drivers/STM32F7xx_HAL_Driver/Src/stm32f7xx_hal_dma_ex.c **** /**
 256:Drivers/STM32F7xx_HAL_Driver/Src/stm32f7xx_hal_dma_ex.c ****   * @}
 257:Drivers/STM32F7xx_HAL_Driver/Src/stm32f7xx_hal_dma_ex.c ****   */
 258:Drivers/STM32F7xx_HAL_Driver/Src/stm32f7xx_hal_dma_ex.c **** 
 259:Drivers/STM32F7xx_HAL_Driver/Src/stm32f7xx_hal_dma_ex.c **** /** @addtogroup DMAEx_Private_Functions
ARM GAS  C:\Users\Legend\AppData\Local\Temp\cceZzDEz.s 			page 6


 260:Drivers/STM32F7xx_HAL_Driver/Src/stm32f7xx_hal_dma_ex.c ****   * @{
 261:Drivers/STM32F7xx_HAL_Driver/Src/stm32f7xx_hal_dma_ex.c ****   */
 262:Drivers/STM32F7xx_HAL_Driver/Src/stm32f7xx_hal_dma_ex.c **** 
 263:Drivers/STM32F7xx_HAL_Driver/Src/stm32f7xx_hal_dma_ex.c **** /**
 264:Drivers/STM32F7xx_HAL_Driver/Src/stm32f7xx_hal_dma_ex.c ****   * @brief  Set the DMA Transfer parameter.
 265:Drivers/STM32F7xx_HAL_Driver/Src/stm32f7xx_hal_dma_ex.c ****   * @param  hdma       pointer to a DMA_HandleTypeDef structure that contains
 266:Drivers/STM32F7xx_HAL_Driver/Src/stm32f7xx_hal_dma_ex.c ****   *                     the configuration information for the specified DMA Stream.  
 267:Drivers/STM32F7xx_HAL_Driver/Src/stm32f7xx_hal_dma_ex.c ****   * @param  SrcAddress The source memory Buffer address
 268:Drivers/STM32F7xx_HAL_Driver/Src/stm32f7xx_hal_dma_ex.c ****   * @param  DstAddress The destination memory Buffer address
 269:Drivers/STM32F7xx_HAL_Driver/Src/stm32f7xx_hal_dma_ex.c ****   * @param  DataLength The length of data to be transferred from source to destination
 270:Drivers/STM32F7xx_HAL_Driver/Src/stm32f7xx_hal_dma_ex.c ****   * @retval HAL status
 271:Drivers/STM32F7xx_HAL_Driver/Src/stm32f7xx_hal_dma_ex.c ****   */
 272:Drivers/STM32F7xx_HAL_Driver/Src/stm32f7xx_hal_dma_ex.c **** static void DMA_MultiBufferSetConfig(DMA_HandleTypeDef *hdma, uint32_t SrcAddress, uint32_t DstAddr
 273:Drivers/STM32F7xx_HAL_Driver/Src/stm32f7xx_hal_dma_ex.c **** {
  28              		.loc 1 273 1 view -0
  29              		.cfi_startproc
  30              		@ args = 0, pretend = 0, frame = 0
  31              		@ frame_needed = 0, uses_anonymous_args = 0
  32              		@ link register save eliminated.
  33              		.loc 1 273 1 is_stmt 0 view .LVU1
  34 0000 10B4     		push	{r4}
  35              	.LCFI0:
  36              		.cfi_def_cfa_offset 4
  37              		.cfi_offset 4, -4
 274:Drivers/STM32F7xx_HAL_Driver/Src/stm32f7xx_hal_dma_ex.c ****   /* Configure DMA Stream data length */
 275:Drivers/STM32F7xx_HAL_Driver/Src/stm32f7xx_hal_dma_ex.c ****   hdma->Instance->NDTR = DataLength;
  38              		.loc 1 275 3 is_stmt 1 view .LVU2
  39              		.loc 1 275 7 is_stmt 0 view .LVU3
  40 0002 0468     		ldr	r4, [r0]
  41              		.loc 1 275 24 view .LVU4
  42 0004 6360     		str	r3, [r4, #4]
 276:Drivers/STM32F7xx_HAL_Driver/Src/stm32f7xx_hal_dma_ex.c ****   
 277:Drivers/STM32F7xx_HAL_Driver/Src/stm32f7xx_hal_dma_ex.c ****   /* Peripheral to Memory */
 278:Drivers/STM32F7xx_HAL_Driver/Src/stm32f7xx_hal_dma_ex.c ****   if((hdma->Init.Direction) == DMA_MEMORY_TO_PERIPH)
  43              		.loc 1 278 3 is_stmt 1 view .LVU5
  44              		.loc 1 278 17 is_stmt 0 view .LVU6
  45 0006 8368     		ldr	r3, [r0, #8]
  46              	.LVL1:
  47              		.loc 1 278 5 view .LVU7
  48 0008 402B     		cmp	r3, #64
  49 000a 06D0     		beq	.L5
 279:Drivers/STM32F7xx_HAL_Driver/Src/stm32f7xx_hal_dma_ex.c ****   {
 280:Drivers/STM32F7xx_HAL_Driver/Src/stm32f7xx_hal_dma_ex.c ****     /* Configure DMA Stream destination address */
 281:Drivers/STM32F7xx_HAL_Driver/Src/stm32f7xx_hal_dma_ex.c ****     hdma->Instance->PAR = DstAddress;
 282:Drivers/STM32F7xx_HAL_Driver/Src/stm32f7xx_hal_dma_ex.c ****     
 283:Drivers/STM32F7xx_HAL_Driver/Src/stm32f7xx_hal_dma_ex.c ****     /* Configure DMA Stream source address */
 284:Drivers/STM32F7xx_HAL_Driver/Src/stm32f7xx_hal_dma_ex.c ****     hdma->Instance->M0AR = SrcAddress;
 285:Drivers/STM32F7xx_HAL_Driver/Src/stm32f7xx_hal_dma_ex.c ****   }
 286:Drivers/STM32F7xx_HAL_Driver/Src/stm32f7xx_hal_dma_ex.c ****   /* Memory to Peripheral */
 287:Drivers/STM32F7xx_HAL_Driver/Src/stm32f7xx_hal_dma_ex.c ****   else
 288:Drivers/STM32F7xx_HAL_Driver/Src/stm32f7xx_hal_dma_ex.c ****   {
 289:Drivers/STM32F7xx_HAL_Driver/Src/stm32f7xx_hal_dma_ex.c ****     /* Configure DMA Stream source address */
 290:Drivers/STM32F7xx_HAL_Driver/Src/stm32f7xx_hal_dma_ex.c ****     hdma->Instance->PAR = SrcAddress;
  50              		.loc 1 290 5 is_stmt 1 view .LVU8
  51              		.loc 1 290 9 is_stmt 0 view .LVU9
  52 000c 0368     		ldr	r3, [r0]
  53              		.loc 1 290 25 view .LVU10
ARM GAS  C:\Users\Legend\AppData\Local\Temp\cceZzDEz.s 			page 7


  54 000e 9960     		str	r1, [r3, #8]
  55              	.LVL2:
 291:Drivers/STM32F7xx_HAL_Driver/Src/stm32f7xx_hal_dma_ex.c ****     
 292:Drivers/STM32F7xx_HAL_Driver/Src/stm32f7xx_hal_dma_ex.c ****     /* Configure DMA Stream destination address */
 293:Drivers/STM32F7xx_HAL_Driver/Src/stm32f7xx_hal_dma_ex.c ****     hdma->Instance->M0AR = DstAddress;
  56              		.loc 1 293 5 is_stmt 1 view .LVU11
  57              		.loc 1 293 9 is_stmt 0 view .LVU12
  58 0010 0368     		ldr	r3, [r0]
  59              		.loc 1 293 26 view .LVU13
  60 0012 DA60     		str	r2, [r3, #12]
  61              	.L1:
 294:Drivers/STM32F7xx_HAL_Driver/Src/stm32f7xx_hal_dma_ex.c ****   }
 295:Drivers/STM32F7xx_HAL_Driver/Src/stm32f7xx_hal_dma_ex.c **** }
  62              		.loc 1 295 1 view .LVU14
  63 0014 5DF8044B 		ldr	r4, [sp], #4
  64              	.LCFI1:
  65              		.cfi_remember_state
  66              		.cfi_restore 4
  67              		.cfi_def_cfa_offset 0
  68 0018 7047     		bx	lr
  69              	.LVL3:
  70              	.L5:
  71              	.LCFI2:
  72              		.cfi_restore_state
 281:Drivers/STM32F7xx_HAL_Driver/Src/stm32f7xx_hal_dma_ex.c ****     
  73              		.loc 1 281 5 is_stmt 1 view .LVU15
 281:Drivers/STM32F7xx_HAL_Driver/Src/stm32f7xx_hal_dma_ex.c ****     
  74              		.loc 1 281 9 is_stmt 0 view .LVU16
  75 001a 0368     		ldr	r3, [r0]
 281:Drivers/STM32F7xx_HAL_Driver/Src/stm32f7xx_hal_dma_ex.c ****     
  76              		.loc 1 281 25 view .LVU17
  77 001c 9A60     		str	r2, [r3, #8]
  78              	.LVL4:
 284:Drivers/STM32F7xx_HAL_Driver/Src/stm32f7xx_hal_dma_ex.c ****   }
  79              		.loc 1 284 5 is_stmt 1 view .LVU18
 284:Drivers/STM32F7xx_HAL_Driver/Src/stm32f7xx_hal_dma_ex.c ****   }
  80              		.loc 1 284 9 is_stmt 0 view .LVU19
  81 001e 0368     		ldr	r3, [r0]
 284:Drivers/STM32F7xx_HAL_Driver/Src/stm32f7xx_hal_dma_ex.c ****   }
  82              		.loc 1 284 26 view .LVU20
  83 0020 D960     		str	r1, [r3, #12]
  84 0022 F7E7     		b	.L1
  85              		.cfi_endproc
  86              	.LFE144:
  88              		.section	.text.HAL_DMAEx_MultiBufferStart,"ax",%progbits
  89              		.align	1
  90              		.global	HAL_DMAEx_MultiBufferStart
  91              		.syntax unified
  92              		.thumb
  93              		.thumb_func
  94              		.fpu fpv5-d16
  96              	HAL_DMAEx_MultiBufferStart:
  97              	.LVL5:
  98              	.LFB141:
 104:Drivers/STM32F7xx_HAL_Driver/Src/stm32f7xx_hal_dma_ex.c ****   HAL_StatusTypeDef status = HAL_OK;
  99              		.loc 1 104 1 is_stmt 1 view -0
 100              		.cfi_startproc
ARM GAS  C:\Users\Legend\AppData\Local\Temp\cceZzDEz.s 			page 8


 101              		@ args = 4, pretend = 0, frame = 0
 102              		@ frame_needed = 0, uses_anonymous_args = 0
 104:Drivers/STM32F7xx_HAL_Driver/Src/stm32f7xx_hal_dma_ex.c ****   HAL_StatusTypeDef status = HAL_OK;
 103              		.loc 1 104 1 is_stmt 0 view .LVU22
 104 0000 38B5     		push	{r3, r4, r5, lr}
 105              	.LCFI3:
 106              		.cfi_def_cfa_offset 16
 107              		.cfi_offset 3, -16
 108              		.cfi_offset 4, -12
 109              		.cfi_offset 5, -8
 110              		.cfi_offset 14, -4
 111 0002 0446     		mov	r4, r0
 105:Drivers/STM32F7xx_HAL_Driver/Src/stm32f7xx_hal_dma_ex.c ****   
 112              		.loc 1 105 3 is_stmt 1 view .LVU23
 113              	.LVL6:
 108:Drivers/STM32F7xx_HAL_Driver/Src/stm32f7xx_hal_dma_ex.c ****   
 114              		.loc 1 108 3 view .LVU24
 111:Drivers/STM32F7xx_HAL_Driver/Src/stm32f7xx_hal_dma_ex.c ****   {
 115              		.loc 1 111 3 view .LVU25
 111:Drivers/STM32F7xx_HAL_Driver/Src/stm32f7xx_hal_dma_ex.c ****   {
 116              		.loc 1 111 17 is_stmt 0 view .LVU26
 117 0004 8068     		ldr	r0, [r0, #8]
 118              	.LVL7:
 111:Drivers/STM32F7xx_HAL_Driver/Src/stm32f7xx_hal_dma_ex.c ****   {
 119              		.loc 1 111 6 view .LVU27
 120 0006 8028     		cmp	r0, #128
 121 0008 0DD0     		beq	.L12
 119:Drivers/STM32F7xx_HAL_Driver/Src/stm32f7xx_hal_dma_ex.c ****     
 122              		.loc 1 119 5 is_stmt 1 view .LVU28
 119:Drivers/STM32F7xx_HAL_Driver/Src/stm32f7xx_hal_dma_ex.c ****     
 123              		.loc 1 119 5 view .LVU29
 124 000a 94F83400 		ldrb	r0, [r4, #52]	@ zero_extendqisi2
 125 000e 0128     		cmp	r0, #1
 126 0010 23D0     		beq	.L9
 119:Drivers/STM32F7xx_HAL_Driver/Src/stm32f7xx_hal_dma_ex.c ****     
 127              		.loc 1 119 5 discriminator 2 view .LVU30
 128 0012 0120     		movs	r0, #1
 129 0014 84F83400 		strb	r0, [r4, #52]
 119:Drivers/STM32F7xx_HAL_Driver/Src/stm32f7xx_hal_dma_ex.c ****     
 130              		.loc 1 119 5 discriminator 2 view .LVU31
 121:Drivers/STM32F7xx_HAL_Driver/Src/stm32f7xx_hal_dma_ex.c ****     {
 131              		.loc 1 121 5 discriminator 2 view .LVU32
 121:Drivers/STM32F7xx_HAL_Driver/Src/stm32f7xx_hal_dma_ex.c ****     {
 132              		.loc 1 121 35 is_stmt 0 discriminator 2 view .LVU33
 133 0018 94F83500 		ldrb	r0, [r4, #53]	@ zero_extendqisi2
 134 001c C0B2     		uxtb	r0, r0
 121:Drivers/STM32F7xx_HAL_Driver/Src/stm32f7xx_hal_dma_ex.c ****     {
 135              		.loc 1 121 7 discriminator 2 view .LVU34
 136 001e 0128     		cmp	r0, #1
 137 0020 06D0     		beq	.L13
 141:Drivers/STM32F7xx_HAL_Driver/Src/stm32f7xx_hal_dma_ex.c ****     }
 138              		.loc 1 141 14 view .LVU35
 139 0022 0220     		movs	r0, #2
 140              	.LVL8:
 141              	.L8:
 145:Drivers/STM32F7xx_HAL_Driver/Src/stm32f7xx_hal_dma_ex.c **** 
 142              		.loc 1 145 1 view .LVU36
ARM GAS  C:\Users\Legend\AppData\Local\Temp\cceZzDEz.s 			page 9


 143 0024 38BD     		pop	{r3, r4, r5, pc}
 144              	.LVL9:
 145              	.L12:
 113:Drivers/STM32F7xx_HAL_Driver/Src/stm32f7xx_hal_dma_ex.c ****     status = HAL_ERROR;
 146              		.loc 1 113 5 is_stmt 1 view .LVU37
 113:Drivers/STM32F7xx_HAL_Driver/Src/stm32f7xx_hal_dma_ex.c ****     status = HAL_ERROR;
 147              		.loc 1 113 21 is_stmt 0 view .LVU38
 148 0026 4FF48073 		mov	r3, #256
 149              	.LVL10:
 113:Drivers/STM32F7xx_HAL_Driver/Src/stm32f7xx_hal_dma_ex.c ****     status = HAL_ERROR;
 150              		.loc 1 113 21 view .LVU39
 151 002a 6365     		str	r3, [r4, #84]
 114:Drivers/STM32F7xx_HAL_Driver/Src/stm32f7xx_hal_dma_ex.c ****   }
 152              		.loc 1 114 5 is_stmt 1 view .LVU40
 153              	.LVL11:
 114:Drivers/STM32F7xx_HAL_Driver/Src/stm32f7xx_hal_dma_ex.c ****   }
 154              		.loc 1 114 12 is_stmt 0 view .LVU41
 155 002c 0120     		movs	r0, #1
 156 002e F9E7     		b	.L8
 157              	.LVL12:
 158              	.L13:
 124:Drivers/STM32F7xx_HAL_Driver/Src/stm32f7xx_hal_dma_ex.c ****       
 159              		.loc 1 124 7 is_stmt 1 view .LVU42
 124:Drivers/STM32F7xx_HAL_Driver/Src/stm32f7xx_hal_dma_ex.c ****       
 160              		.loc 1 124 19 is_stmt 0 view .LVU43
 161 0030 0220     		movs	r0, #2
 162 0032 84F83500 		strb	r0, [r4, #53]
 127:Drivers/STM32F7xx_HAL_Driver/Src/stm32f7xx_hal_dma_ex.c ****       
 163              		.loc 1 127 7 is_stmt 1 view .LVU44
 127:Drivers/STM32F7xx_HAL_Driver/Src/stm32f7xx_hal_dma_ex.c ****       
 164              		.loc 1 127 11 is_stmt 0 view .LVU45
 165 0036 2568     		ldr	r5, [r4]
 127:Drivers/STM32F7xx_HAL_Driver/Src/stm32f7xx_hal_dma_ex.c ****       
 166              		.loc 1 127 26 view .LVU46
 167 0038 2868     		ldr	r0, [r5]
 168 003a 40F48020 		orr	r0, r0, #262144
 169 003e 2860     		str	r0, [r5]
 130:Drivers/STM32F7xx_HAL_Driver/Src/stm32f7xx_hal_dma_ex.c ****       
 170              		.loc 1 130 7 is_stmt 1 view .LVU47
 130:Drivers/STM32F7xx_HAL_Driver/Src/stm32f7xx_hal_dma_ex.c ****       
 171              		.loc 1 130 11 is_stmt 0 view .LVU48
 172 0040 2068     		ldr	r0, [r4]
 130:Drivers/STM32F7xx_HAL_Driver/Src/stm32f7xx_hal_dma_ex.c ****       
 173              		.loc 1 130 28 view .LVU49
 174 0042 0361     		str	r3, [r0, #16]
 133:Drivers/STM32F7xx_HAL_Driver/Src/stm32f7xx_hal_dma_ex.c ****       
 175              		.loc 1 133 7 is_stmt 1 view .LVU50
 176 0044 049B     		ldr	r3, [sp, #16]
 177              	.LVL13:
 133:Drivers/STM32F7xx_HAL_Driver/Src/stm32f7xx_hal_dma_ex.c ****       
 178              		.loc 1 133 7 is_stmt 0 view .LVU51
 179 0046 2046     		mov	r0, r4
 180              	.LVL14:
 133:Drivers/STM32F7xx_HAL_Driver/Src/stm32f7xx_hal_dma_ex.c ****       
 181              		.loc 1 133 7 view .LVU52
 182 0048 FFF7FEFF 		bl	DMA_MultiBufferSetConfig
 183              	.LVL15:
ARM GAS  C:\Users\Legend\AppData\Local\Temp\cceZzDEz.s 			page 10


 136:Drivers/STM32F7xx_HAL_Driver/Src/stm32f7xx_hal_dma_ex.c ****     }
 184              		.loc 1 136 7 is_stmt 1 view .LVU53
 185 004c 2268     		ldr	r2, [r4]
 186 004e 1368     		ldr	r3, [r2]
 187 0050 43F00103 		orr	r3, r3, #1
 188 0054 1360     		str	r3, [r2]
 105:Drivers/STM32F7xx_HAL_Driver/Src/stm32f7xx_hal_dma_ex.c ****   
 189              		.loc 1 105 21 is_stmt 0 view .LVU54
 190 0056 0020     		movs	r0, #0
 191 0058 E4E7     		b	.L8
 192              	.LVL16:
 193              	.L9:
 119:Drivers/STM32F7xx_HAL_Driver/Src/stm32f7xx_hal_dma_ex.c ****     
 194              		.loc 1 119 5 view .LVU55
 195 005a 0220     		movs	r0, #2
 196 005c E2E7     		b	.L8
 197              		.cfi_endproc
 198              	.LFE141:
 200              		.section	.text.HAL_DMAEx_MultiBufferStart_IT,"ax",%progbits
 201              		.align	1
 202              		.global	HAL_DMAEx_MultiBufferStart_IT
 203              		.syntax unified
 204              		.thumb
 205              		.thumb_func
 206              		.fpu fpv5-d16
 208              	HAL_DMAEx_MultiBufferStart_IT:
 209              	.LVL17:
 210              	.LFB142:
 158:Drivers/STM32F7xx_HAL_Driver/Src/stm32f7xx_hal_dma_ex.c ****   HAL_StatusTypeDef status = HAL_OK;
 211              		.loc 1 158 1 is_stmt 1 view -0
 212              		.cfi_startproc
 213              		@ args = 4, pretend = 0, frame = 0
 214              		@ frame_needed = 0, uses_anonymous_args = 0
 158:Drivers/STM32F7xx_HAL_Driver/Src/stm32f7xx_hal_dma_ex.c ****   HAL_StatusTypeDef status = HAL_OK;
 215              		.loc 1 158 1 is_stmt 0 view .LVU57
 216 0000 38B5     		push	{r3, r4, r5, lr}
 217              	.LCFI4:
 218              		.cfi_def_cfa_offset 16
 219              		.cfi_offset 3, -16
 220              		.cfi_offset 4, -12
 221              		.cfi_offset 5, -8
 222              		.cfi_offset 14, -4
 223 0002 0446     		mov	r4, r0
 159:Drivers/STM32F7xx_HAL_Driver/Src/stm32f7xx_hal_dma_ex.c ****   
 224              		.loc 1 159 3 is_stmt 1 view .LVU58
 225              	.LVL18:
 162:Drivers/STM32F7xx_HAL_Driver/Src/stm32f7xx_hal_dma_ex.c ****   
 226              		.loc 1 162 3 view .LVU59
 165:Drivers/STM32F7xx_HAL_Driver/Src/stm32f7xx_hal_dma_ex.c ****   {
 227              		.loc 1 165 3 view .LVU60
 165:Drivers/STM32F7xx_HAL_Driver/Src/stm32f7xx_hal_dma_ex.c ****   {
 228              		.loc 1 165 17 is_stmt 0 view .LVU61
 229 0004 8068     		ldr	r0, [r0, #8]
 230              	.LVL19:
 165:Drivers/STM32F7xx_HAL_Driver/Src/stm32f7xx_hal_dma_ex.c ****   {
 231              		.loc 1 165 6 view .LVU62
 232 0006 8028     		cmp	r0, #128
ARM GAS  C:\Users\Legend\AppData\Local\Temp\cceZzDEz.s 			page 11


 233 0008 11D0     		beq	.L302
 172:Drivers/STM32F7xx_HAL_Driver/Src/stm32f7xx_hal_dma_ex.c ****   
 234              		.loc 1 172 3 is_stmt 1 view .LVU63
 172:Drivers/STM32F7xx_HAL_Driver/Src/stm32f7xx_hal_dma_ex.c ****   
 235              		.loc 1 172 3 view .LVU64
 236 000a 94F83400 		ldrb	r0, [r4, #52]	@ zero_extendqisi2
 237 000e 0128     		cmp	r0, #1
 238 0010 00F05C87 		beq	.L60
 172:Drivers/STM32F7xx_HAL_Driver/Src/stm32f7xx_hal_dma_ex.c ****   
 239              		.loc 1 172 3 discriminator 2 view .LVU65
 240 0014 0120     		movs	r0, #1
 241 0016 84F83400 		strb	r0, [r4, #52]
 172:Drivers/STM32F7xx_HAL_Driver/Src/stm32f7xx_hal_dma_ex.c ****   
 242              		.loc 1 172 3 discriminator 2 view .LVU66
 174:Drivers/STM32F7xx_HAL_Driver/Src/stm32f7xx_hal_dma_ex.c ****   {
 243              		.loc 1 174 3 discriminator 2 view .LVU67
 174:Drivers/STM32F7xx_HAL_Driver/Src/stm32f7xx_hal_dma_ex.c ****   {
 244              		.loc 1 174 33 is_stmt 0 discriminator 2 view .LVU68
 245 001a 94F83500 		ldrb	r0, [r4, #53]	@ zero_extendqisi2
 246 001e C0B2     		uxtb	r0, r0
 174:Drivers/STM32F7xx_HAL_Driver/Src/stm32f7xx_hal_dma_ex.c ****   {
 247              		.loc 1 174 5 discriminator 2 view .LVU69
 248 0020 0128     		cmp	r0, #1
 249 0022 09D0     		beq	.L303
 213:Drivers/STM32F7xx_HAL_Driver/Src/stm32f7xx_hal_dma_ex.c ****     
 250              		.loc 1 213 5 is_stmt 1 view .LVU70
 213:Drivers/STM32F7xx_HAL_Driver/Src/stm32f7xx_hal_dma_ex.c ****     
 251              		.loc 1 213 5 view .LVU71
 252 0024 0023     		movs	r3, #0
 253              	.LVL20:
 213:Drivers/STM32F7xx_HAL_Driver/Src/stm32f7xx_hal_dma_ex.c ****     
 254              		.loc 1 213 5 is_stmt 0 view .LVU72
 255 0026 84F83430 		strb	r3, [r4, #52]
 213:Drivers/STM32F7xx_HAL_Driver/Src/stm32f7xx_hal_dma_ex.c ****     
 256              		.loc 1 213 5 is_stmt 1 view .LVU73
 216:Drivers/STM32F7xx_HAL_Driver/Src/stm32f7xx_hal_dma_ex.c ****   }  
 257              		.loc 1 216 5 view .LVU74
 258              	.LVL21:
 216:Drivers/STM32F7xx_HAL_Driver/Src/stm32f7xx_hal_dma_ex.c ****   }  
 259              		.loc 1 216 12 is_stmt 0 view .LVU75
 260 002a 0220     		movs	r0, #2
 261              	.LVL22:
 262              	.L16:
 219:Drivers/STM32F7xx_HAL_Driver/Src/stm32f7xx_hal_dma_ex.c **** 
 263              		.loc 1 219 1 view .LVU76
 264 002c 38BD     		pop	{r3, r4, r5, pc}
 265              	.LVL23:
 266              	.L302:
 167:Drivers/STM32F7xx_HAL_Driver/Src/stm32f7xx_hal_dma_ex.c ****     return HAL_ERROR;
 267              		.loc 1 167 5 is_stmt 1 view .LVU77
 167:Drivers/STM32F7xx_HAL_Driver/Src/stm32f7xx_hal_dma_ex.c ****     return HAL_ERROR;
 268              		.loc 1 167 21 is_stmt 0 view .LVU78
 269 002e 4FF48073 		mov	r3, #256
 270              	.LVL24:
 167:Drivers/STM32F7xx_HAL_Driver/Src/stm32f7xx_hal_dma_ex.c ****     return HAL_ERROR;
 271              		.loc 1 167 21 view .LVU79
 272 0032 6365     		str	r3, [r4, #84]
ARM GAS  C:\Users\Legend\AppData\Local\Temp\cceZzDEz.s 			page 12


 168:Drivers/STM32F7xx_HAL_Driver/Src/stm32f7xx_hal_dma_ex.c ****   }
 273              		.loc 1 168 5 is_stmt 1 view .LVU80
 168:Drivers/STM32F7xx_HAL_Driver/Src/stm32f7xx_hal_dma_ex.c ****   }
 274              		.loc 1 168 12 is_stmt 0 view .LVU81
 275 0034 0120     		movs	r0, #1
 276 0036 F9E7     		b	.L16
 277              	.LVL25:
 278              	.L303:
 177:Drivers/STM32F7xx_HAL_Driver/Src/stm32f7xx_hal_dma_ex.c ****     
 279              		.loc 1 177 5 is_stmt 1 view .LVU82
 177:Drivers/STM32F7xx_HAL_Driver/Src/stm32f7xx_hal_dma_ex.c ****     
 280              		.loc 1 177 17 is_stmt 0 view .LVU83
 281 0038 0220     		movs	r0, #2
 282 003a 84F83500 		strb	r0, [r4, #53]
 180:Drivers/STM32F7xx_HAL_Driver/Src/stm32f7xx_hal_dma_ex.c ****     
 283              		.loc 1 180 5 is_stmt 1 view .LVU84
 180:Drivers/STM32F7xx_HAL_Driver/Src/stm32f7xx_hal_dma_ex.c ****     
 284              		.loc 1 180 21 is_stmt 0 view .LVU85
 285 003e 0020     		movs	r0, #0
 286 0040 6065     		str	r0, [r4, #84]
 183:Drivers/STM32F7xx_HAL_Driver/Src/stm32f7xx_hal_dma_ex.c ****     
 287              		.loc 1 183 5 is_stmt 1 view .LVU86
 183:Drivers/STM32F7xx_HAL_Driver/Src/stm32f7xx_hal_dma_ex.c ****     
 288              		.loc 1 183 9 is_stmt 0 view .LVU87
 289 0042 2568     		ldr	r5, [r4]
 183:Drivers/STM32F7xx_HAL_Driver/Src/stm32f7xx_hal_dma_ex.c ****     
 290              		.loc 1 183 24 view .LVU88
 291 0044 2868     		ldr	r0, [r5]
 292 0046 40F48020 		orr	r0, r0, #262144
 293 004a 2860     		str	r0, [r5]
 186:Drivers/STM32F7xx_HAL_Driver/Src/stm32f7xx_hal_dma_ex.c ****     
 294              		.loc 1 186 5 is_stmt 1 view .LVU89
 186:Drivers/STM32F7xx_HAL_Driver/Src/stm32f7xx_hal_dma_ex.c ****     
 295              		.loc 1 186 9 is_stmt 0 view .LVU90
 296 004c 2068     		ldr	r0, [r4]
 186:Drivers/STM32F7xx_HAL_Driver/Src/stm32f7xx_hal_dma_ex.c ****     
 297              		.loc 1 186 26 view .LVU91
 298 004e 0361     		str	r3, [r0, #16]
 189:Drivers/STM32F7xx_HAL_Driver/Src/stm32f7xx_hal_dma_ex.c ****     
 299              		.loc 1 189 5 is_stmt 1 view .LVU92
 300 0050 049B     		ldr	r3, [sp, #16]
 301              	.LVL26:
 189:Drivers/STM32F7xx_HAL_Driver/Src/stm32f7xx_hal_dma_ex.c ****     
 302              		.loc 1 189 5 is_stmt 0 view .LVU93
 303 0052 2046     		mov	r0, r4
 304              	.LVL27:
 189:Drivers/STM32F7xx_HAL_Driver/Src/stm32f7xx_hal_dma_ex.c ****     
 305              		.loc 1 189 5 view .LVU94
 306 0054 FFF7FEFF 		bl	DMA_MultiBufferSetConfig
 307              	.LVL28:
 192:Drivers/STM32F7xx_HAL_Driver/Src/stm32f7xx_hal_dma_ex.c ****     __HAL_DMA_CLEAR_FLAG (hdma, __HAL_DMA_GET_HT_FLAG_INDEX(hdma));
 308              		.loc 1 192 5 is_stmt 1 view .LVU95
 309 0058 2368     		ldr	r3, [r4]
 310 005a C64A     		ldr	r2, .L325
 311 005c 9342     		cmp	r3, r2
 312 005e 40F29880 		bls	.L18
 192:Drivers/STM32F7xx_HAL_Driver/Src/stm32f7xx_hal_dma_ex.c ****     __HAL_DMA_CLEAR_FLAG (hdma, __HAL_DMA_GET_HT_FLAG_INDEX(hdma));
ARM GAS  C:\Users\Legend\AppData\Local\Temp\cceZzDEz.s 			page 13


 313              		.loc 1 192 5 is_stmt 0 discriminator 1 view .LVU96
 314 0062 A2F58962 		sub	r2, r2, #1096
 315 0066 9342     		cmp	r3, r2
 316 0068 31D0     		beq	.L61
 192:Drivers/STM32F7xx_HAL_Driver/Src/stm32f7xx_hal_dma_ex.c ****     __HAL_DMA_CLEAR_FLAG (hdma, __HAL_DMA_GET_HT_FLAG_INDEX(hdma));
 317              		.loc 1 192 5 discriminator 3 view .LVU97
 318 006a 02F58062 		add	r2, r2, #1024
 319 006e 9342     		cmp	r3, r2
 320 0070 74D0     		beq	.L62
 192:Drivers/STM32F7xx_HAL_Driver/Src/stm32f7xx_hal_dma_ex.c ****     __HAL_DMA_CLEAR_FLAG (hdma, __HAL_DMA_GET_HT_FLAG_INDEX(hdma));
 321              		.loc 1 192 5 discriminator 5 view .LVU98
 322 0072 A2F56872 		sub	r2, r2, #928
 323 0076 9342     		cmp	r3, r2
 324 0078 72D0     		beq	.L63
 192:Drivers/STM32F7xx_HAL_Driver/Src/stm32f7xx_hal_dma_ex.c ****     __HAL_DMA_CLEAR_FLAG (hdma, __HAL_DMA_GET_HT_FLAG_INDEX(hdma));
 325              		.loc 1 192 5 discriminator 7 view .LVU99
 326 007a 02F58062 		add	r2, r2, #1024
 327 007e 9342     		cmp	r3, r2
 328 0080 70D0     		beq	.L64
 192:Drivers/STM32F7xx_HAL_Driver/Src/stm32f7xx_hal_dma_ex.c ****     __HAL_DMA_CLEAR_FLAG (hdma, __HAL_DMA_GET_HT_FLAG_INDEX(hdma));
 329              		.loc 1 192 5 discriminator 9 view .LVU100
 330 0082 A2F58962 		sub	r2, r2, #1096
 331 0086 9342     		cmp	r3, r2
 332 0088 6ED0     		beq	.L65
 192:Drivers/STM32F7xx_HAL_Driver/Src/stm32f7xx_hal_dma_ex.c ****     __HAL_DMA_CLEAR_FLAG (hdma, __HAL_DMA_GET_HT_FLAG_INDEX(hdma));
 333              		.loc 1 192 5 discriminator 11 view .LVU101
 334 008a 02F58062 		add	r2, r2, #1024
 335 008e 9342     		cmp	r3, r2
 336 0090 6DD0     		beq	.L66
 192:Drivers/STM32F7xx_HAL_Driver/Src/stm32f7xx_hal_dma_ex.c ****     __HAL_DMA_CLEAR_FLAG (hdma, __HAL_DMA_GET_HT_FLAG_INDEX(hdma));
 337              		.loc 1 192 5 discriminator 13 view .LVU102
 338 0092 A2F56872 		sub	r2, r2, #928
 339 0096 9342     		cmp	r3, r2
 340 0098 6CD0     		beq	.L67
 192:Drivers/STM32F7xx_HAL_Driver/Src/stm32f7xx_hal_dma_ex.c ****     __HAL_DMA_CLEAR_FLAG (hdma, __HAL_DMA_GET_HT_FLAG_INDEX(hdma));
 341              		.loc 1 192 5 discriminator 15 view .LVU103
 342 009a 02F58062 		add	r2, r2, #1024
 343 009e 9342     		cmp	r3, r2
 344 00a0 6BD0     		beq	.L68
 192:Drivers/STM32F7xx_HAL_Driver/Src/stm32f7xx_hal_dma_ex.c ****     __HAL_DMA_CLEAR_FLAG (hdma, __HAL_DMA_GET_HT_FLAG_INDEX(hdma));
 345              		.loc 1 192 5 discriminator 17 view .LVU104
 346 00a2 A2F58962 		sub	r2, r2, #1096
 347 00a6 9342     		cmp	r3, r2
 348 00a8 6AD0     		beq	.L69
 192:Drivers/STM32F7xx_HAL_Driver/Src/stm32f7xx_hal_dma_ex.c ****     __HAL_DMA_CLEAR_FLAG (hdma, __HAL_DMA_GET_HT_FLAG_INDEX(hdma));
 349              		.loc 1 192 5 discriminator 19 view .LVU105
 350 00aa 02F58062 		add	r2, r2, #1024
 351 00ae 9342     		cmp	r3, r2
 352 00b0 69D0     		beq	.L70
 192:Drivers/STM32F7xx_HAL_Driver/Src/stm32f7xx_hal_dma_ex.c ****     __HAL_DMA_CLEAR_FLAG (hdma, __HAL_DMA_GET_HT_FLAG_INDEX(hdma));
 353              		.loc 1 192 5 discriminator 21 view .LVU106
 354 00b2 A2F56872 		sub	r2, r2, #928
 355 00b6 9342     		cmp	r3, r2
 356 00b8 68D0     		beq	.L71
 192:Drivers/STM32F7xx_HAL_Driver/Src/stm32f7xx_hal_dma_ex.c ****     __HAL_DMA_CLEAR_FLAG (hdma, __HAL_DMA_GET_HT_FLAG_INDEX(hdma));
 357              		.loc 1 192 5 discriminator 23 view .LVU107
 358 00ba 02F58062 		add	r2, r2, #1024
ARM GAS  C:\Users\Legend\AppData\Local\Temp\cceZzDEz.s 			page 14


 359 00be 9342     		cmp	r3, r2
 360 00c0 02D0     		beq	.L304
 192:Drivers/STM32F7xx_HAL_Driver/Src/stm32f7xx_hal_dma_ex.c ****     __HAL_DMA_CLEAR_FLAG (hdma, __HAL_DMA_GET_HT_FLAG_INDEX(hdma));
 361              		.loc 1 192 5 view .LVU108
 362 00c2 4FF00062 		mov	r2, #134217728
 363 00c6 03E0     		b	.L19
 364              	.L304:
 365 00c8 4FF40012 		mov	r2, #2097152
 366 00cc 00E0     		b	.L19
 367              	.L61:
 368 00ce 2022     		movs	r2, #32
 369              	.L19:
 192:Drivers/STM32F7xx_HAL_Driver/Src/stm32f7xx_hal_dma_ex.c ****     __HAL_DMA_CLEAR_FLAG (hdma, __HAL_DMA_GET_HT_FLAG_INDEX(hdma));
 370              		.loc 1 192 5 discriminator 50 view .LVU109
 371 00d0 A94B     		ldr	r3, .L325+4
 372 00d2 DA60     		str	r2, [r3, #12]
 373              	.LVL29:
 374              	.L20:
 193:Drivers/STM32F7xx_HAL_Driver/Src/stm32f7xx_hal_dma_ex.c ****     __HAL_DMA_CLEAR_FLAG (hdma, __HAL_DMA_GET_TE_FLAG_INDEX(hdma));
 375              		.loc 1 193 5 is_stmt 1 view .LVU110
 376 00d4 2368     		ldr	r3, [r4]
 377 00d6 A74A     		ldr	r2, .L325
 378 00d8 9342     		cmp	r3, r2
 379 00da 40F2CE81 		bls	.L26
 193:Drivers/STM32F7xx_HAL_Driver/Src/stm32f7xx_hal_dma_ex.c ****     __HAL_DMA_CLEAR_FLAG (hdma, __HAL_DMA_GET_TE_FLAG_INDEX(hdma));
 380              		.loc 1 193 5 is_stmt 0 discriminator 1 view .LVU111
 381 00de A2F58962 		sub	r2, r2, #1096
 382 00e2 9342     		cmp	r3, r2
 383 00e4 00F06781 		beq	.L109
 193:Drivers/STM32F7xx_HAL_Driver/Src/stm32f7xx_hal_dma_ex.c ****     __HAL_DMA_CLEAR_FLAG (hdma, __HAL_DMA_GET_TE_FLAG_INDEX(hdma));
 384              		.loc 1 193 5 discriminator 3 view .LVU112
 385 00e8 02F58062 		add	r2, r2, #1024
 386 00ec 9342     		cmp	r3, r2
 387 00ee 00F0A981 		beq	.L110
 193:Drivers/STM32F7xx_HAL_Driver/Src/stm32f7xx_hal_dma_ex.c ****     __HAL_DMA_CLEAR_FLAG (hdma, __HAL_DMA_GET_TE_FLAG_INDEX(hdma));
 388              		.loc 1 193 5 discriminator 5 view .LVU113
 389 00f2 A2F56872 		sub	r2, r2, #928
 390 00f6 9342     		cmp	r3, r2
 391 00f8 00F0A681 		beq	.L111
 193:Drivers/STM32F7xx_HAL_Driver/Src/stm32f7xx_hal_dma_ex.c ****     __HAL_DMA_CLEAR_FLAG (hdma, __HAL_DMA_GET_TE_FLAG_INDEX(hdma));
 392              		.loc 1 193 5 discriminator 7 view .LVU114
 393 00fc 02F58062 		add	r2, r2, #1024
 394 0100 9342     		cmp	r3, r2
 395 0102 00F0A381 		beq	.L112
 193:Drivers/STM32F7xx_HAL_Driver/Src/stm32f7xx_hal_dma_ex.c ****     __HAL_DMA_CLEAR_FLAG (hdma, __HAL_DMA_GET_TE_FLAG_INDEX(hdma));
 396              		.loc 1 193 5 discriminator 9 view .LVU115
 397 0106 A2F58962 		sub	r2, r2, #1096
 398 010a 9342     		cmp	r3, r2
 399 010c 00F0A081 		beq	.L113
 193:Drivers/STM32F7xx_HAL_Driver/Src/stm32f7xx_hal_dma_ex.c ****     __HAL_DMA_CLEAR_FLAG (hdma, __HAL_DMA_GET_TE_FLAG_INDEX(hdma));
 400              		.loc 1 193 5 discriminator 11 view .LVU116
 401 0110 02F58062 		add	r2, r2, #1024
 402 0114 9342     		cmp	r3, r2
 403 0116 00F09E81 		beq	.L114
 193:Drivers/STM32F7xx_HAL_Driver/Src/stm32f7xx_hal_dma_ex.c ****     __HAL_DMA_CLEAR_FLAG (hdma, __HAL_DMA_GET_TE_FLAG_INDEX(hdma));
 404              		.loc 1 193 5 discriminator 13 view .LVU117
 405 011a A2F56872 		sub	r2, r2, #928
ARM GAS  C:\Users\Legend\AppData\Local\Temp\cceZzDEz.s 			page 15


 406 011e 9342     		cmp	r3, r2
 407 0120 00F09C81 		beq	.L115
 193:Drivers/STM32F7xx_HAL_Driver/Src/stm32f7xx_hal_dma_ex.c ****     __HAL_DMA_CLEAR_FLAG (hdma, __HAL_DMA_GET_TE_FLAG_INDEX(hdma));
 408              		.loc 1 193 5 discriminator 15 view .LVU118
 409 0124 02F58062 		add	r2, r2, #1024
 410 0128 9342     		cmp	r3, r2
 411 012a 00F09A81 		beq	.L116
 193:Drivers/STM32F7xx_HAL_Driver/Src/stm32f7xx_hal_dma_ex.c ****     __HAL_DMA_CLEAR_FLAG (hdma, __HAL_DMA_GET_TE_FLAG_INDEX(hdma));
 412              		.loc 1 193 5 discriminator 17 view .LVU119
 413 012e A2F58962 		sub	r2, r2, #1096
 414 0132 9342     		cmp	r3, r2
 415 0134 00F09881 		beq	.L117
 193:Drivers/STM32F7xx_HAL_Driver/Src/stm32f7xx_hal_dma_ex.c ****     __HAL_DMA_CLEAR_FLAG (hdma, __HAL_DMA_GET_TE_FLAG_INDEX(hdma));
 416              		.loc 1 193 5 discriminator 19 view .LVU120
 417 0138 02F58062 		add	r2, r2, #1024
 418 013c 9342     		cmp	r3, r2
 419 013e 00F09681 		beq	.L118
 193:Drivers/STM32F7xx_HAL_Driver/Src/stm32f7xx_hal_dma_ex.c ****     __HAL_DMA_CLEAR_FLAG (hdma, __HAL_DMA_GET_TE_FLAG_INDEX(hdma));
 420              		.loc 1 193 5 discriminator 21 view .LVU121
 421 0142 A2F56872 		sub	r2, r2, #928
 422 0146 9342     		cmp	r3, r2
 423 0148 00F09481 		beq	.L119
 193:Drivers/STM32F7xx_HAL_Driver/Src/stm32f7xx_hal_dma_ex.c ****     __HAL_DMA_CLEAR_FLAG (hdma, __HAL_DMA_GET_TE_FLAG_INDEX(hdma));
 424              		.loc 1 193 5 discriminator 23 view .LVU122
 425 014c 02F58062 		add	r2, r2, #1024
 426 0150 9342     		cmp	r3, r2
 427 0152 00F02D81 		beq	.L305
 193:Drivers/STM32F7xx_HAL_Driver/Src/stm32f7xx_hal_dma_ex.c ****     __HAL_DMA_CLEAR_FLAG (hdma, __HAL_DMA_GET_TE_FLAG_INDEX(hdma));
 428              		.loc 1 193 5 view .LVU123
 429 0156 4FF08062 		mov	r2, #67108864
 430 015a 2DE1     		b	.L27
 431              	.LVL30:
 432              	.L62:
 192:Drivers/STM32F7xx_HAL_Driver/Src/stm32f7xx_hal_dma_ex.c ****     __HAL_DMA_CLEAR_FLAG (hdma, __HAL_DMA_GET_HT_FLAG_INDEX(hdma));
 433              		.loc 1 192 5 view .LVU124
 434 015c 2022     		movs	r2, #32
 435 015e B7E7     		b	.L19
 436              	.L63:
 437 0160 2022     		movs	r2, #32
 438 0162 B5E7     		b	.L19
 439              	.L64:
 440 0164 2022     		movs	r2, #32
 441 0166 B3E7     		b	.L19
 442              	.L65:
 443 0168 4FF40062 		mov	r2, #2048
 444 016c B0E7     		b	.L19
 445              	.L66:
 446 016e 4FF40062 		mov	r2, #2048
 447 0172 ADE7     		b	.L19
 448              	.L67:
 449 0174 4FF40062 		mov	r2, #2048
 450 0178 AAE7     		b	.L19
 451              	.L68:
 452 017a 4FF40062 		mov	r2, #2048
 453 017e A7E7     		b	.L19
 454              	.L69:
 455 0180 4FF40012 		mov	r2, #2097152
ARM GAS  C:\Users\Legend\AppData\Local\Temp\cceZzDEz.s 			page 16


 456 0184 A4E7     		b	.L19
 457              	.L70:
 458 0186 4FF40012 		mov	r2, #2097152
 459 018a A1E7     		b	.L19
 460              	.L71:
 461 018c 4FF40012 		mov	r2, #2097152
 462 0190 9EE7     		b	.L19
 463              	.L18:
 192:Drivers/STM32F7xx_HAL_Driver/Src/stm32f7xx_hal_dma_ex.c ****     __HAL_DMA_CLEAR_FLAG (hdma, __HAL_DMA_GET_HT_FLAG_INDEX(hdma));
 464              		.loc 1 192 5 discriminator 2 view .LVU125
 465 0192 7A4A     		ldr	r2, .L325+8
 466 0194 9342     		cmp	r3, r2
 467 0196 53D9     		bls	.L21
 192:Drivers/STM32F7xx_HAL_Driver/Src/stm32f7xx_hal_dma_ex.c ****     __HAL_DMA_CLEAR_FLAG (hdma, __HAL_DMA_GET_HT_FLAG_INDEX(hdma));
 468              		.loc 1 192 5 discriminator 51 view .LVU126
 469 0198 A83A     		subs	r2, r2, #168
 470 019a 9342     		cmp	r3, r2
 471 019c 31D0     		beq	.L73
 192:Drivers/STM32F7xx_HAL_Driver/Src/stm32f7xx_hal_dma_ex.c ****     __HAL_DMA_CLEAR_FLAG (hdma, __HAL_DMA_GET_HT_FLAG_INDEX(hdma));
 472              		.loc 1 192 5 discriminator 53 view .LVU127
 473 019e 02F58062 		add	r2, r2, #1024
 474 01a2 9342     		cmp	r3, r2
 475 01a4 31D0     		beq	.L74
 192:Drivers/STM32F7xx_HAL_Driver/Src/stm32f7xx_hal_dma_ex.c ****     __HAL_DMA_CLEAR_FLAG (hdma, __HAL_DMA_GET_HT_FLAG_INDEX(hdma));
 476              		.loc 1 192 5 discriminator 55 view .LVU128
 477 01a6 A2F56872 		sub	r2, r2, #928
 478 01aa 9342     		cmp	r3, r2
 479 01ac 2FD0     		beq	.L75
 192:Drivers/STM32F7xx_HAL_Driver/Src/stm32f7xx_hal_dma_ex.c ****     __HAL_DMA_CLEAR_FLAG (hdma, __HAL_DMA_GET_HT_FLAG_INDEX(hdma));
 480              		.loc 1 192 5 discriminator 57 view .LVU129
 481 01ae 02F58062 		add	r2, r2, #1024
 482 01b2 9342     		cmp	r3, r2
 483 01b4 2DD0     		beq	.L76
 192:Drivers/STM32F7xx_HAL_Driver/Src/stm32f7xx_hal_dma_ex.c ****     __HAL_DMA_CLEAR_FLAG (hdma, __HAL_DMA_GET_HT_FLAG_INDEX(hdma));
 484              		.loc 1 192 5 discriminator 59 view .LVU130
 485 01b6 A2F58962 		sub	r2, r2, #1096
 486 01ba 9342     		cmp	r3, r2
 487 01bc 2BD0     		beq	.L77
 192:Drivers/STM32F7xx_HAL_Driver/Src/stm32f7xx_hal_dma_ex.c ****     __HAL_DMA_CLEAR_FLAG (hdma, __HAL_DMA_GET_HT_FLAG_INDEX(hdma));
 488              		.loc 1 192 5 discriminator 61 view .LVU131
 489 01be 02F58062 		add	r2, r2, #1024
 490 01c2 9342     		cmp	r3, r2
 491 01c4 2AD0     		beq	.L78
 192:Drivers/STM32F7xx_HAL_Driver/Src/stm32f7xx_hal_dma_ex.c ****     __HAL_DMA_CLEAR_FLAG (hdma, __HAL_DMA_GET_HT_FLAG_INDEX(hdma));
 492              		.loc 1 192 5 discriminator 63 view .LVU132
 493 01c6 A2F56872 		sub	r2, r2, #928
 494 01ca 9342     		cmp	r3, r2
 495 01cc 29D0     		beq	.L79
 192:Drivers/STM32F7xx_HAL_Driver/Src/stm32f7xx_hal_dma_ex.c ****     __HAL_DMA_CLEAR_FLAG (hdma, __HAL_DMA_GET_HT_FLAG_INDEX(hdma));
 496              		.loc 1 192 5 discriminator 65 view .LVU133
 497 01ce 02F58062 		add	r2, r2, #1024
 498 01d2 9342     		cmp	r3, r2
 499 01d4 28D0     		beq	.L80
 192:Drivers/STM32F7xx_HAL_Driver/Src/stm32f7xx_hal_dma_ex.c ****     __HAL_DMA_CLEAR_FLAG (hdma, __HAL_DMA_GET_HT_FLAG_INDEX(hdma));
 500              		.loc 1 192 5 discriminator 67 view .LVU134
 501 01d6 A2F58962 		sub	r2, r2, #1096
 502 01da 9342     		cmp	r3, r2
ARM GAS  C:\Users\Legend\AppData\Local\Temp\cceZzDEz.s 			page 17


 503 01dc 27D0     		beq	.L81
 192:Drivers/STM32F7xx_HAL_Driver/Src/stm32f7xx_hal_dma_ex.c ****     __HAL_DMA_CLEAR_FLAG (hdma, __HAL_DMA_GET_HT_FLAG_INDEX(hdma));
 504              		.loc 1 192 5 discriminator 69 view .LVU135
 505 01de 02F58062 		add	r2, r2, #1024
 506 01e2 9342     		cmp	r3, r2
 507 01e4 26D0     		beq	.L82
 192:Drivers/STM32F7xx_HAL_Driver/Src/stm32f7xx_hal_dma_ex.c ****     __HAL_DMA_CLEAR_FLAG (hdma, __HAL_DMA_GET_HT_FLAG_INDEX(hdma));
 508              		.loc 1 192 5 discriminator 71 view .LVU136
 509 01e6 A2F56872 		sub	r2, r2, #928
 510 01ea 9342     		cmp	r3, r2
 511 01ec 25D0     		beq	.L83
 192:Drivers/STM32F7xx_HAL_Driver/Src/stm32f7xx_hal_dma_ex.c ****     __HAL_DMA_CLEAR_FLAG (hdma, __HAL_DMA_GET_HT_FLAG_INDEX(hdma));
 512              		.loc 1 192 5 discriminator 73 view .LVU137
 513 01ee 02F58062 		add	r2, r2, #1024
 514 01f2 9342     		cmp	r3, r2
 515 01f4 02D0     		beq	.L306
 192:Drivers/STM32F7xx_HAL_Driver/Src/stm32f7xx_hal_dma_ex.c ****     __HAL_DMA_CLEAR_FLAG (hdma, __HAL_DMA_GET_HT_FLAG_INDEX(hdma));
 516              		.loc 1 192 5 view .LVU138
 517 01f6 4FF00062 		mov	r2, #134217728
 518 01fa 03E0     		b	.L22
 519              	.L306:
 520 01fc 4FF40012 		mov	r2, #2097152
 521 0200 00E0     		b	.L22
 522              	.L73:
 523 0202 2022     		movs	r2, #32
 524              	.L22:
 192:Drivers/STM32F7xx_HAL_Driver/Src/stm32f7xx_hal_dma_ex.c ****     __HAL_DMA_CLEAR_FLAG (hdma, __HAL_DMA_GET_HT_FLAG_INDEX(hdma));
 525              		.loc 1 192 5 discriminator 100 view .LVU139
 526 0204 5C4B     		ldr	r3, .L325+4
 527 0206 9A60     		str	r2, [r3, #8]
 528              	.LVL31:
 192:Drivers/STM32F7xx_HAL_Driver/Src/stm32f7xx_hal_dma_ex.c ****     __HAL_DMA_CLEAR_FLAG (hdma, __HAL_DMA_GET_HT_FLAG_INDEX(hdma));
 529              		.loc 1 192 5 discriminator 100 view .LVU140
 530 0208 64E7     		b	.L20
 531              	.LVL32:
 532              	.L74:
 192:Drivers/STM32F7xx_HAL_Driver/Src/stm32f7xx_hal_dma_ex.c ****     __HAL_DMA_CLEAR_FLAG (hdma, __HAL_DMA_GET_HT_FLAG_INDEX(hdma));
 533              		.loc 1 192 5 view .LVU141
 534 020a 2022     		movs	r2, #32
 535 020c FAE7     		b	.L22
 536              	.L75:
 537 020e 2022     		movs	r2, #32
 538 0210 F8E7     		b	.L22
 539              	.L76:
 540 0212 2022     		movs	r2, #32
 541 0214 F6E7     		b	.L22
 542              	.L77:
 543 0216 4FF40062 		mov	r2, #2048
 544 021a F3E7     		b	.L22
 545              	.L78:
 546 021c 4FF40062 		mov	r2, #2048
 547 0220 F0E7     		b	.L22
 548              	.L79:
 549 0222 4FF40062 		mov	r2, #2048
 550 0226 EDE7     		b	.L22
 551              	.L80:
 552 0228 4FF40062 		mov	r2, #2048
ARM GAS  C:\Users\Legend\AppData\Local\Temp\cceZzDEz.s 			page 18


 553 022c EAE7     		b	.L22
 554              	.L81:
 555 022e 4FF40012 		mov	r2, #2097152
 556 0232 E7E7     		b	.L22
 557              	.L82:
 558 0234 4FF40012 		mov	r2, #2097152
 559 0238 E4E7     		b	.L22
 560              	.L83:
 561 023a 4FF40012 		mov	r2, #2097152
 562 023e E1E7     		b	.L22
 563              	.L21:
 192:Drivers/STM32F7xx_HAL_Driver/Src/stm32f7xx_hal_dma_ex.c ****     __HAL_DMA_CLEAR_FLAG (hdma, __HAL_DMA_GET_HT_FLAG_INDEX(hdma));
 564              		.loc 1 192 5 discriminator 52 view .LVU142
 565 0240 4F4A     		ldr	r2, .L325+12
 566 0242 9342     		cmp	r3, r2
 567 0244 53D9     		bls	.L23
 192:Drivers/STM32F7xx_HAL_Driver/Src/stm32f7xx_hal_dma_ex.c ****     __HAL_DMA_CLEAR_FLAG (hdma, __HAL_DMA_GET_HT_FLAG_INDEX(hdma));
 568              		.loc 1 192 5 discriminator 102 view .LVU143
 569 0246 483A     		subs	r2, r2, #72
 570 0248 9342     		cmp	r3, r2
 571 024a 31D0     		beq	.L85
 192:Drivers/STM32F7xx_HAL_Driver/Src/stm32f7xx_hal_dma_ex.c ****     __HAL_DMA_CLEAR_FLAG (hdma, __HAL_DMA_GET_HT_FLAG_INDEX(hdma));
 572              		.loc 1 192 5 discriminator 104 view .LVU144
 573 024c 02F58062 		add	r2, r2, #1024
 574 0250 9342     		cmp	r3, r2
 575 0252 31D0     		beq	.L86
 192:Drivers/STM32F7xx_HAL_Driver/Src/stm32f7xx_hal_dma_ex.c ****     __HAL_DMA_CLEAR_FLAG (hdma, __HAL_DMA_GET_HT_FLAG_INDEX(hdma));
 576              		.loc 1 192 5 discriminator 106 view .LVU145
 577 0254 A2F56872 		sub	r2, r2, #928
 578 0258 9342     		cmp	r3, r2
 579 025a 2FD0     		beq	.L87
 192:Drivers/STM32F7xx_HAL_Driver/Src/stm32f7xx_hal_dma_ex.c ****     __HAL_DMA_CLEAR_FLAG (hdma, __HAL_DMA_GET_HT_FLAG_INDEX(hdma));
 580              		.loc 1 192 5 discriminator 108 view .LVU146
 581 025c 02F58062 		add	r2, r2, #1024
 582 0260 9342     		cmp	r3, r2
 583 0262 2DD0     		beq	.L88
 192:Drivers/STM32F7xx_HAL_Driver/Src/stm32f7xx_hal_dma_ex.c ****     __HAL_DMA_CLEAR_FLAG (hdma, __HAL_DMA_GET_HT_FLAG_INDEX(hdma));
 584              		.loc 1 192 5 discriminator 110 view .LVU147
 585 0264 A2F58962 		sub	r2, r2, #1096
 586 0268 9342     		cmp	r3, r2
 587 026a 2BD0     		beq	.L89
 192:Drivers/STM32F7xx_HAL_Driver/Src/stm32f7xx_hal_dma_ex.c ****     __HAL_DMA_CLEAR_FLAG (hdma, __HAL_DMA_GET_HT_FLAG_INDEX(hdma));
 588              		.loc 1 192 5 discriminator 112 view .LVU148
 589 026c 02F58062 		add	r2, r2, #1024
 590 0270 9342     		cmp	r3, r2
 591 0272 2AD0     		beq	.L90
 192:Drivers/STM32F7xx_HAL_Driver/Src/stm32f7xx_hal_dma_ex.c ****     __HAL_DMA_CLEAR_FLAG (hdma, __HAL_DMA_GET_HT_FLAG_INDEX(hdma));
 592              		.loc 1 192 5 discriminator 114 view .LVU149
 593 0274 A2F56872 		sub	r2, r2, #928
 594 0278 9342     		cmp	r3, r2
 595 027a 29D0     		beq	.L91
 192:Drivers/STM32F7xx_HAL_Driver/Src/stm32f7xx_hal_dma_ex.c ****     __HAL_DMA_CLEAR_FLAG (hdma, __HAL_DMA_GET_HT_FLAG_INDEX(hdma));
 596              		.loc 1 192 5 discriminator 116 view .LVU150
 597 027c 02F58062 		add	r2, r2, #1024
 598 0280 9342     		cmp	r3, r2
 599 0282 28D0     		beq	.L92
 192:Drivers/STM32F7xx_HAL_Driver/Src/stm32f7xx_hal_dma_ex.c ****     __HAL_DMA_CLEAR_FLAG (hdma, __HAL_DMA_GET_HT_FLAG_INDEX(hdma));
ARM GAS  C:\Users\Legend\AppData\Local\Temp\cceZzDEz.s 			page 19


 600              		.loc 1 192 5 discriminator 118 view .LVU151
 601 0284 A2F58962 		sub	r2, r2, #1096
 602 0288 9342     		cmp	r3, r2
 603 028a 27D0     		beq	.L93
 192:Drivers/STM32F7xx_HAL_Driver/Src/stm32f7xx_hal_dma_ex.c ****     __HAL_DMA_CLEAR_FLAG (hdma, __HAL_DMA_GET_HT_FLAG_INDEX(hdma));
 604              		.loc 1 192 5 discriminator 120 view .LVU152
 605 028c 02F58062 		add	r2, r2, #1024
 606 0290 9342     		cmp	r3, r2
 607 0292 26D0     		beq	.L94
 192:Drivers/STM32F7xx_HAL_Driver/Src/stm32f7xx_hal_dma_ex.c ****     __HAL_DMA_CLEAR_FLAG (hdma, __HAL_DMA_GET_HT_FLAG_INDEX(hdma));
 608              		.loc 1 192 5 discriminator 122 view .LVU153
 609 0294 A2F56872 		sub	r2, r2, #928
 610 0298 9342     		cmp	r3, r2
 611 029a 25D0     		beq	.L95
 192:Drivers/STM32F7xx_HAL_Driver/Src/stm32f7xx_hal_dma_ex.c ****     __HAL_DMA_CLEAR_FLAG (hdma, __HAL_DMA_GET_HT_FLAG_INDEX(hdma));
 612              		.loc 1 192 5 discriminator 124 view .LVU154
 613 029c 02F58062 		add	r2, r2, #1024
 614 02a0 9342     		cmp	r3, r2
 615 02a2 02D0     		beq	.L307
 192:Drivers/STM32F7xx_HAL_Driver/Src/stm32f7xx_hal_dma_ex.c ****     __HAL_DMA_CLEAR_FLAG (hdma, __HAL_DMA_GET_HT_FLAG_INDEX(hdma));
 616              		.loc 1 192 5 view .LVU155
 617 02a4 4FF00063 		mov	r3, #134217728
 618 02a8 03E0     		b	.L24
 619              	.L307:
 620 02aa 4FF40013 		mov	r3, #2097152
 621 02ae 00E0     		b	.L24
 622              	.L85:
 623 02b0 2023     		movs	r3, #32
 624              	.L24:
 192:Drivers/STM32F7xx_HAL_Driver/Src/stm32f7xx_hal_dma_ex.c ****     __HAL_DMA_CLEAR_FLAG (hdma, __HAL_DMA_GET_HT_FLAG_INDEX(hdma));
 625              		.loc 1 192 5 discriminator 151 view .LVU156
 626 02b2 344A     		ldr	r2, .L325+16
 627 02b4 D360     		str	r3, [r2, #12]
 628              	.LVL33:
 192:Drivers/STM32F7xx_HAL_Driver/Src/stm32f7xx_hal_dma_ex.c ****     __HAL_DMA_CLEAR_FLAG (hdma, __HAL_DMA_GET_HT_FLAG_INDEX(hdma));
 629              		.loc 1 192 5 discriminator 151 view .LVU157
 630 02b6 0DE7     		b	.L20
 631              	.LVL34:
 632              	.L86:
 192:Drivers/STM32F7xx_HAL_Driver/Src/stm32f7xx_hal_dma_ex.c ****     __HAL_DMA_CLEAR_FLAG (hdma, __HAL_DMA_GET_HT_FLAG_INDEX(hdma));
 633              		.loc 1 192 5 view .LVU158
 634 02b8 2023     		movs	r3, #32
 635 02ba FAE7     		b	.L24
 636              	.L87:
 637 02bc 2023     		movs	r3, #32
 638 02be F8E7     		b	.L24
 639              	.L88:
 640 02c0 2023     		movs	r3, #32
 641 02c2 F6E7     		b	.L24
 642              	.L89:
 643 02c4 4FF40063 		mov	r3, #2048
 644 02c8 F3E7     		b	.L24
 645              	.L90:
 646 02ca 4FF40063 		mov	r3, #2048
 647 02ce F0E7     		b	.L24
 648              	.L91:
 649 02d0 4FF40063 		mov	r3, #2048
ARM GAS  C:\Users\Legend\AppData\Local\Temp\cceZzDEz.s 			page 20


 650 02d4 EDE7     		b	.L24
 651              	.L92:
 652 02d6 4FF40063 		mov	r3, #2048
 653 02da EAE7     		b	.L24
 654              	.L93:
 655 02dc 4FF40013 		mov	r3, #2097152
 656 02e0 E7E7     		b	.L24
 657              	.L94:
 658 02e2 4FF40013 		mov	r3, #2097152
 659 02e6 E4E7     		b	.L24
 660              	.L95:
 661 02e8 4FF40013 		mov	r3, #2097152
 662 02ec E1E7     		b	.L24
 663              	.L23:
 192:Drivers/STM32F7xx_HAL_Driver/Src/stm32f7xx_hal_dma_ex.c ****     __HAL_DMA_CLEAR_FLAG (hdma, __HAL_DMA_GET_HT_FLAG_INDEX(hdma));
 664              		.loc 1 192 5 discriminator 103 view .LVU159
 665 02ee 264A     		ldr	r2, .L325+20
 666 02f0 9342     		cmp	r3, r2
 667 02f2 31D0     		beq	.L97
 192:Drivers/STM32F7xx_HAL_Driver/Src/stm32f7xx_hal_dma_ex.c ****     __HAL_DMA_CLEAR_FLAG (hdma, __HAL_DMA_GET_HT_FLAG_INDEX(hdma));
 668              		.loc 1 192 5 discriminator 153 view .LVU160
 669 02f4 02F58062 		add	r2, r2, #1024
 670 02f8 9342     		cmp	r3, r2
 671 02fa 31D0     		beq	.L98
 192:Drivers/STM32F7xx_HAL_Driver/Src/stm32f7xx_hal_dma_ex.c ****     __HAL_DMA_CLEAR_FLAG (hdma, __HAL_DMA_GET_HT_FLAG_INDEX(hdma));
 672              		.loc 1 192 5 discriminator 155 view .LVU161
 673 02fc A2F56872 		sub	r2, r2, #928
 674 0300 9342     		cmp	r3, r2
 675 0302 2FD0     		beq	.L99
 192:Drivers/STM32F7xx_HAL_Driver/Src/stm32f7xx_hal_dma_ex.c ****     __HAL_DMA_CLEAR_FLAG (hdma, __HAL_DMA_GET_HT_FLAG_INDEX(hdma));
 676              		.loc 1 192 5 discriminator 157 view .LVU162
 677 0304 02F58062 		add	r2, r2, #1024
 678 0308 9342     		cmp	r3, r2
 679 030a 2DD0     		beq	.L100
 192:Drivers/STM32F7xx_HAL_Driver/Src/stm32f7xx_hal_dma_ex.c ****     __HAL_DMA_CLEAR_FLAG (hdma, __HAL_DMA_GET_HT_FLAG_INDEX(hdma));
 680              		.loc 1 192 5 discriminator 159 view .LVU163
 681 030c A2F58962 		sub	r2, r2, #1096
 682 0310 9342     		cmp	r3, r2
 683 0312 2BD0     		beq	.L101
 192:Drivers/STM32F7xx_HAL_Driver/Src/stm32f7xx_hal_dma_ex.c ****     __HAL_DMA_CLEAR_FLAG (hdma, __HAL_DMA_GET_HT_FLAG_INDEX(hdma));
 684              		.loc 1 192 5 discriminator 161 view .LVU164
 685 0314 02F58062 		add	r2, r2, #1024
 686 0318 9342     		cmp	r3, r2
 687 031a 37D0     		beq	.L102
 192:Drivers/STM32F7xx_HAL_Driver/Src/stm32f7xx_hal_dma_ex.c ****     __HAL_DMA_CLEAR_FLAG (hdma, __HAL_DMA_GET_HT_FLAG_INDEX(hdma));
 688              		.loc 1 192 5 discriminator 163 view .LVU165
 689 031c A2F56872 		sub	r2, r2, #928
 690 0320 9342     		cmp	r3, r2
 691 0322 36D0     		beq	.L103
 192:Drivers/STM32F7xx_HAL_Driver/Src/stm32f7xx_hal_dma_ex.c ****     __HAL_DMA_CLEAR_FLAG (hdma, __HAL_DMA_GET_HT_FLAG_INDEX(hdma));
 692              		.loc 1 192 5 discriminator 165 view .LVU166
 693 0324 02F58062 		add	r2, r2, #1024
 694 0328 9342     		cmp	r3, r2
 695 032a 35D0     		beq	.L104
 192:Drivers/STM32F7xx_HAL_Driver/Src/stm32f7xx_hal_dma_ex.c ****     __HAL_DMA_CLEAR_FLAG (hdma, __HAL_DMA_GET_HT_FLAG_INDEX(hdma));
 696              		.loc 1 192 5 discriminator 167 view .LVU167
 697 032c A2F58962 		sub	r2, r2, #1096
ARM GAS  C:\Users\Legend\AppData\Local\Temp\cceZzDEz.s 			page 21


 698 0330 9342     		cmp	r3, r2
 699 0332 34D0     		beq	.L105
 192:Drivers/STM32F7xx_HAL_Driver/Src/stm32f7xx_hal_dma_ex.c ****     __HAL_DMA_CLEAR_FLAG (hdma, __HAL_DMA_GET_HT_FLAG_INDEX(hdma));
 700              		.loc 1 192 5 discriminator 169 view .LVU168
 701 0334 02F58062 		add	r2, r2, #1024
 702 0338 9342     		cmp	r3, r2
 703 033a 33D0     		beq	.L106
 192:Drivers/STM32F7xx_HAL_Driver/Src/stm32f7xx_hal_dma_ex.c ****     __HAL_DMA_CLEAR_FLAG (hdma, __HAL_DMA_GET_HT_FLAG_INDEX(hdma));
 704              		.loc 1 192 5 discriminator 171 view .LVU169
 705 033c A2F56872 		sub	r2, r2, #928
 706 0340 9342     		cmp	r3, r2
 707 0342 32D0     		beq	.L107
 192:Drivers/STM32F7xx_HAL_Driver/Src/stm32f7xx_hal_dma_ex.c ****     __HAL_DMA_CLEAR_FLAG (hdma, __HAL_DMA_GET_HT_FLAG_INDEX(hdma));
 708              		.loc 1 192 5 discriminator 173 view .LVU170
 709 0344 02F58062 		add	r2, r2, #1024
 710 0348 9342     		cmp	r3, r2
 711 034a 02D0     		beq	.L308
 192:Drivers/STM32F7xx_HAL_Driver/Src/stm32f7xx_hal_dma_ex.c ****     __HAL_DMA_CLEAR_FLAG (hdma, __HAL_DMA_GET_HT_FLAG_INDEX(hdma));
 712              		.loc 1 192 5 view .LVU171
 713 034c 4FF00063 		mov	r3, #134217728
 714 0350 03E0     		b	.L25
 715              	.L308:
 716 0352 4FF40013 		mov	r3, #2097152
 717 0356 00E0     		b	.L25
 718              	.L97:
 719 0358 2023     		movs	r3, #32
 720              	.L25:
 192:Drivers/STM32F7xx_HAL_Driver/Src/stm32f7xx_hal_dma_ex.c ****     __HAL_DMA_CLEAR_FLAG (hdma, __HAL_DMA_GET_HT_FLAG_INDEX(hdma));
 721              		.loc 1 192 5 discriminator 200 view .LVU172
 722 035a 0A4A     		ldr	r2, .L325+16
 723 035c 9360     		str	r3, [r2, #8]
 724              	.LVL35:
 192:Drivers/STM32F7xx_HAL_Driver/Src/stm32f7xx_hal_dma_ex.c ****     __HAL_DMA_CLEAR_FLAG (hdma, __HAL_DMA_GET_HT_FLAG_INDEX(hdma));
 725              		.loc 1 192 5 discriminator 200 view .LVU173
 726 035e B9E6     		b	.L20
 727              	.LVL36:
 728              	.L98:
 192:Drivers/STM32F7xx_HAL_Driver/Src/stm32f7xx_hal_dma_ex.c ****     __HAL_DMA_CLEAR_FLAG (hdma, __HAL_DMA_GET_HT_FLAG_INDEX(hdma));
 729              		.loc 1 192 5 view .LVU174
 730 0360 2023     		movs	r3, #32
 731 0362 FAE7     		b	.L25
 732              	.L99:
 733 0364 2023     		movs	r3, #32
 734 0366 F8E7     		b	.L25
 735              	.L100:
 736 0368 2023     		movs	r3, #32
 737 036a F6E7     		b	.L25
 738              	.L101:
 739 036c 4FF40063 		mov	r3, #2048
 740 0370 F3E7     		b	.L25
 741              	.L326:
 742 0372 00BF     		.align	2
 743              	.L325:
 744 0374 58640240 		.word	1073898584
 745 0378 00640240 		.word	1073898496
 746 037c B8600240 		.word	1073897656
 747 0380 58600240 		.word	1073897560
ARM GAS  C:\Users\Legend\AppData\Local\Temp\cceZzDEz.s 			page 22


 748 0384 00600240 		.word	1073897472
 749 0388 10600240 		.word	1073897488
 750              	.L102:
 751 038c 4FF40063 		mov	r3, #2048
 752 0390 E3E7     		b	.L25
 753              	.L103:
 754 0392 4FF40063 		mov	r3, #2048
 755 0396 E0E7     		b	.L25
 756              	.L104:
 757 0398 4FF40063 		mov	r3, #2048
 758 039c DDE7     		b	.L25
 759              	.L105:
 760 039e 4FF40013 		mov	r3, #2097152
 761 03a2 DAE7     		b	.L25
 762              	.L106:
 763 03a4 4FF40013 		mov	r3, #2097152
 764 03a8 D7E7     		b	.L25
 765              	.L107:
 766 03aa 4FF40013 		mov	r3, #2097152
 767 03ae D4E7     		b	.L25
 768              	.LVL37:
 769              	.L305:
 193:Drivers/STM32F7xx_HAL_Driver/Src/stm32f7xx_hal_dma_ex.c ****     __HAL_DMA_CLEAR_FLAG (hdma, __HAL_DMA_GET_TE_FLAG_INDEX(hdma));
 770              		.loc 1 193 5 view .LVU175
 771 03b0 4FF48012 		mov	r2, #1048576
 772 03b4 00E0     		b	.L27
 773              	.L109:
 774 03b6 1022     		movs	r2, #16
 775              	.L27:
 193:Drivers/STM32F7xx_HAL_Driver/Src/stm32f7xx_hal_dma_ex.c ****     __HAL_DMA_CLEAR_FLAG (hdma, __HAL_DMA_GET_TE_FLAG_INDEX(hdma));
 776              		.loc 1 193 5 discriminator 50 view .LVU176
 777 03b8 B24B     		ldr	r3, .L327
 778 03ba DA60     		str	r2, [r3, #12]
 779              	.L28:
 194:Drivers/STM32F7xx_HAL_Driver/Src/stm32f7xx_hal_dma_ex.c ****     __HAL_DMA_CLEAR_FLAG (hdma, __HAL_DMA_GET_DME_FLAG_INDEX(hdma));
 780              		.loc 1 194 5 is_stmt 1 view .LVU177
 781 03bc 2368     		ldr	r3, [r4]
 782 03be B24A     		ldr	r2, .L327+4
 783 03c0 9342     		cmp	r3, r2
 784 03c2 40F2CD81 		bls	.L34
 194:Drivers/STM32F7xx_HAL_Driver/Src/stm32f7xx_hal_dma_ex.c ****     __HAL_DMA_CLEAR_FLAG (hdma, __HAL_DMA_GET_DME_FLAG_INDEX(hdma));
 785              		.loc 1 194 5 is_stmt 0 discriminator 1 view .LVU178
 786 03c6 A2F58962 		sub	r2, r2, #1096
 787 03ca 9342     		cmp	r3, r2
 788 03cc 00F06681 		beq	.L157
 194:Drivers/STM32F7xx_HAL_Driver/Src/stm32f7xx_hal_dma_ex.c ****     __HAL_DMA_CLEAR_FLAG (hdma, __HAL_DMA_GET_DME_FLAG_INDEX(hdma));
 789              		.loc 1 194 5 discriminator 3 view .LVU179
 790 03d0 02F58062 		add	r2, r2, #1024
 791 03d4 9342     		cmp	r3, r2
 792 03d6 00F0A881 		beq	.L158
 194:Drivers/STM32F7xx_HAL_Driver/Src/stm32f7xx_hal_dma_ex.c ****     __HAL_DMA_CLEAR_FLAG (hdma, __HAL_DMA_GET_DME_FLAG_INDEX(hdma));
 793              		.loc 1 194 5 discriminator 5 view .LVU180
 794 03da A2F56872 		sub	r2, r2, #928
 795 03de 9342     		cmp	r3, r2
 796 03e0 00F0A581 		beq	.L159
 194:Drivers/STM32F7xx_HAL_Driver/Src/stm32f7xx_hal_dma_ex.c ****     __HAL_DMA_CLEAR_FLAG (hdma, __HAL_DMA_GET_DME_FLAG_INDEX(hdma));
 797              		.loc 1 194 5 discriminator 7 view .LVU181
ARM GAS  C:\Users\Legend\AppData\Local\Temp\cceZzDEz.s 			page 23


 798 03e4 02F58062 		add	r2, r2, #1024
 799 03e8 9342     		cmp	r3, r2
 800 03ea 00F0A281 		beq	.L160
 194:Drivers/STM32F7xx_HAL_Driver/Src/stm32f7xx_hal_dma_ex.c ****     __HAL_DMA_CLEAR_FLAG (hdma, __HAL_DMA_GET_DME_FLAG_INDEX(hdma));
 801              		.loc 1 194 5 discriminator 9 view .LVU182
 802 03ee A2F58962 		sub	r2, r2, #1096
 803 03f2 9342     		cmp	r3, r2
 804 03f4 00F09F81 		beq	.L161
 194:Drivers/STM32F7xx_HAL_Driver/Src/stm32f7xx_hal_dma_ex.c ****     __HAL_DMA_CLEAR_FLAG (hdma, __HAL_DMA_GET_DME_FLAG_INDEX(hdma));
 805              		.loc 1 194 5 discriminator 11 view .LVU183
 806 03f8 02F58062 		add	r2, r2, #1024
 807 03fc 9342     		cmp	r3, r2
 808 03fe 00F09D81 		beq	.L162
 194:Drivers/STM32F7xx_HAL_Driver/Src/stm32f7xx_hal_dma_ex.c ****     __HAL_DMA_CLEAR_FLAG (hdma, __HAL_DMA_GET_DME_FLAG_INDEX(hdma));
 809              		.loc 1 194 5 discriminator 13 view .LVU184
 810 0402 A2F56872 		sub	r2, r2, #928
 811 0406 9342     		cmp	r3, r2
 812 0408 00F09B81 		beq	.L163
 194:Drivers/STM32F7xx_HAL_Driver/Src/stm32f7xx_hal_dma_ex.c ****     __HAL_DMA_CLEAR_FLAG (hdma, __HAL_DMA_GET_DME_FLAG_INDEX(hdma));
 813              		.loc 1 194 5 discriminator 15 view .LVU185
 814 040c 02F58062 		add	r2, r2, #1024
 815 0410 9342     		cmp	r3, r2
 816 0412 00F09981 		beq	.L164
 194:Drivers/STM32F7xx_HAL_Driver/Src/stm32f7xx_hal_dma_ex.c ****     __HAL_DMA_CLEAR_FLAG (hdma, __HAL_DMA_GET_DME_FLAG_INDEX(hdma));
 817              		.loc 1 194 5 discriminator 17 view .LVU186
 818 0416 A2F58962 		sub	r2, r2, #1096
 819 041a 9342     		cmp	r3, r2
 820 041c 00F09781 		beq	.L165
 194:Drivers/STM32F7xx_HAL_Driver/Src/stm32f7xx_hal_dma_ex.c ****     __HAL_DMA_CLEAR_FLAG (hdma, __HAL_DMA_GET_DME_FLAG_INDEX(hdma));
 821              		.loc 1 194 5 discriminator 19 view .LVU187
 822 0420 02F58062 		add	r2, r2, #1024
 823 0424 9342     		cmp	r3, r2
 824 0426 00F09581 		beq	.L166
 194:Drivers/STM32F7xx_HAL_Driver/Src/stm32f7xx_hal_dma_ex.c ****     __HAL_DMA_CLEAR_FLAG (hdma, __HAL_DMA_GET_DME_FLAG_INDEX(hdma));
 825              		.loc 1 194 5 discriminator 21 view .LVU188
 826 042a A2F56872 		sub	r2, r2, #928
 827 042e 9342     		cmp	r3, r2
 828 0430 00F09381 		beq	.L167
 194:Drivers/STM32F7xx_HAL_Driver/Src/stm32f7xx_hal_dma_ex.c ****     __HAL_DMA_CLEAR_FLAG (hdma, __HAL_DMA_GET_DME_FLAG_INDEX(hdma));
 829              		.loc 1 194 5 discriminator 23 view .LVU189
 830 0434 02F58062 		add	r2, r2, #1024
 831 0438 9342     		cmp	r3, r2
 832 043a 00F02081 		beq	.L309
 194:Drivers/STM32F7xx_HAL_Driver/Src/stm32f7xx_hal_dma_ex.c ****     __HAL_DMA_CLEAR_FLAG (hdma, __HAL_DMA_GET_DME_FLAG_INDEX(hdma));
 833              		.loc 1 194 5 view .LVU190
 834 043e 4FF00072 		mov	r2, #33554432
 835 0442 2CE1     		b	.L35
 836              	.L110:
 193:Drivers/STM32F7xx_HAL_Driver/Src/stm32f7xx_hal_dma_ex.c ****     __HAL_DMA_CLEAR_FLAG (hdma, __HAL_DMA_GET_TE_FLAG_INDEX(hdma));
 837              		.loc 1 193 5 view .LVU191
 838 0444 1022     		movs	r2, #16
 839 0446 B7E7     		b	.L27
 840              	.L111:
 841 0448 1022     		movs	r2, #16
 842 044a B5E7     		b	.L27
 843              	.L112:
 844 044c 1022     		movs	r2, #16
ARM GAS  C:\Users\Legend\AppData\Local\Temp\cceZzDEz.s 			page 24


 845 044e B3E7     		b	.L27
 846              	.L113:
 847 0450 4FF48062 		mov	r2, #1024
 848 0454 B0E7     		b	.L27
 849              	.L114:
 850 0456 4FF48062 		mov	r2, #1024
 851 045a ADE7     		b	.L27
 852              	.L115:
 853 045c 4FF48062 		mov	r2, #1024
 854 0460 AAE7     		b	.L27
 855              	.L116:
 856 0462 4FF48062 		mov	r2, #1024
 857 0466 A7E7     		b	.L27
 858              	.L117:
 859 0468 4FF48012 		mov	r2, #1048576
 860 046c A4E7     		b	.L27
 861              	.L118:
 862 046e 4FF48012 		mov	r2, #1048576
 863 0472 A1E7     		b	.L27
 864              	.L119:
 865 0474 4FF48012 		mov	r2, #1048576
 866 0478 9EE7     		b	.L27
 867              	.L26:
 193:Drivers/STM32F7xx_HAL_Driver/Src/stm32f7xx_hal_dma_ex.c ****     __HAL_DMA_CLEAR_FLAG (hdma, __HAL_DMA_GET_TE_FLAG_INDEX(hdma));
 868              		.loc 1 193 5 discriminator 2 view .LVU192
 869 047a 844A     		ldr	r2, .L327+8
 870 047c 9342     		cmp	r3, r2
 871 047e 53D9     		bls	.L29
 193:Drivers/STM32F7xx_HAL_Driver/Src/stm32f7xx_hal_dma_ex.c ****     __HAL_DMA_CLEAR_FLAG (hdma, __HAL_DMA_GET_TE_FLAG_INDEX(hdma));
 872              		.loc 1 193 5 discriminator 51 view .LVU193
 873 0480 A83A     		subs	r2, r2, #168
 874 0482 9342     		cmp	r3, r2
 875 0484 31D0     		beq	.L121
 193:Drivers/STM32F7xx_HAL_Driver/Src/stm32f7xx_hal_dma_ex.c ****     __HAL_DMA_CLEAR_FLAG (hdma, __HAL_DMA_GET_TE_FLAG_INDEX(hdma));
 876              		.loc 1 193 5 discriminator 53 view .LVU194
 877 0486 02F58062 		add	r2, r2, #1024
 878 048a 9342     		cmp	r3, r2
 879 048c 31D0     		beq	.L122
 193:Drivers/STM32F7xx_HAL_Driver/Src/stm32f7xx_hal_dma_ex.c ****     __HAL_DMA_CLEAR_FLAG (hdma, __HAL_DMA_GET_TE_FLAG_INDEX(hdma));
 880              		.loc 1 193 5 discriminator 55 view .LVU195
 881 048e A2F56872 		sub	r2, r2, #928
 882 0492 9342     		cmp	r3, r2
 883 0494 2FD0     		beq	.L123
 193:Drivers/STM32F7xx_HAL_Driver/Src/stm32f7xx_hal_dma_ex.c ****     __HAL_DMA_CLEAR_FLAG (hdma, __HAL_DMA_GET_TE_FLAG_INDEX(hdma));
 884              		.loc 1 193 5 discriminator 57 view .LVU196
 885 0496 02F58062 		add	r2, r2, #1024
 886 049a 9342     		cmp	r3, r2
 887 049c 2DD0     		beq	.L124
 193:Drivers/STM32F7xx_HAL_Driver/Src/stm32f7xx_hal_dma_ex.c ****     __HAL_DMA_CLEAR_FLAG (hdma, __HAL_DMA_GET_TE_FLAG_INDEX(hdma));
 888              		.loc 1 193 5 discriminator 59 view .LVU197
 889 049e A2F58962 		sub	r2, r2, #1096
 890 04a2 9342     		cmp	r3, r2
 891 04a4 2BD0     		beq	.L125
 193:Drivers/STM32F7xx_HAL_Driver/Src/stm32f7xx_hal_dma_ex.c ****     __HAL_DMA_CLEAR_FLAG (hdma, __HAL_DMA_GET_TE_FLAG_INDEX(hdma));
 892              		.loc 1 193 5 discriminator 61 view .LVU198
 893 04a6 02F58062 		add	r2, r2, #1024
 894 04aa 9342     		cmp	r3, r2
ARM GAS  C:\Users\Legend\AppData\Local\Temp\cceZzDEz.s 			page 25


 895 04ac 2AD0     		beq	.L126
 193:Drivers/STM32F7xx_HAL_Driver/Src/stm32f7xx_hal_dma_ex.c ****     __HAL_DMA_CLEAR_FLAG (hdma, __HAL_DMA_GET_TE_FLAG_INDEX(hdma));
 896              		.loc 1 193 5 discriminator 63 view .LVU199
 897 04ae A2F56872 		sub	r2, r2, #928
 898 04b2 9342     		cmp	r3, r2
 899 04b4 29D0     		beq	.L127
 193:Drivers/STM32F7xx_HAL_Driver/Src/stm32f7xx_hal_dma_ex.c ****     __HAL_DMA_CLEAR_FLAG (hdma, __HAL_DMA_GET_TE_FLAG_INDEX(hdma));
 900              		.loc 1 193 5 discriminator 65 view .LVU200
 901 04b6 02F58062 		add	r2, r2, #1024
 902 04ba 9342     		cmp	r3, r2
 903 04bc 28D0     		beq	.L128
 193:Drivers/STM32F7xx_HAL_Driver/Src/stm32f7xx_hal_dma_ex.c ****     __HAL_DMA_CLEAR_FLAG (hdma, __HAL_DMA_GET_TE_FLAG_INDEX(hdma));
 904              		.loc 1 193 5 discriminator 67 view .LVU201
 905 04be A2F58962 		sub	r2, r2, #1096
 906 04c2 9342     		cmp	r3, r2
 907 04c4 27D0     		beq	.L129
 193:Drivers/STM32F7xx_HAL_Driver/Src/stm32f7xx_hal_dma_ex.c ****     __HAL_DMA_CLEAR_FLAG (hdma, __HAL_DMA_GET_TE_FLAG_INDEX(hdma));
 908              		.loc 1 193 5 discriminator 69 view .LVU202
 909 04c6 02F58062 		add	r2, r2, #1024
 910 04ca 9342     		cmp	r3, r2
 911 04cc 26D0     		beq	.L130
 193:Drivers/STM32F7xx_HAL_Driver/Src/stm32f7xx_hal_dma_ex.c ****     __HAL_DMA_CLEAR_FLAG (hdma, __HAL_DMA_GET_TE_FLAG_INDEX(hdma));
 912              		.loc 1 193 5 discriminator 71 view .LVU203
 913 04ce A2F56872 		sub	r2, r2, #928
 914 04d2 9342     		cmp	r3, r2
 915 04d4 25D0     		beq	.L131
 193:Drivers/STM32F7xx_HAL_Driver/Src/stm32f7xx_hal_dma_ex.c ****     __HAL_DMA_CLEAR_FLAG (hdma, __HAL_DMA_GET_TE_FLAG_INDEX(hdma));
 916              		.loc 1 193 5 discriminator 73 view .LVU204
 917 04d6 02F58062 		add	r2, r2, #1024
 918 04da 9342     		cmp	r3, r2
 919 04dc 02D0     		beq	.L310
 193:Drivers/STM32F7xx_HAL_Driver/Src/stm32f7xx_hal_dma_ex.c ****     __HAL_DMA_CLEAR_FLAG (hdma, __HAL_DMA_GET_TE_FLAG_INDEX(hdma));
 920              		.loc 1 193 5 view .LVU205
 921 04de 4FF08062 		mov	r2, #67108864
 922 04e2 03E0     		b	.L30
 923              	.L310:
 924 04e4 4FF48012 		mov	r2, #1048576
 925 04e8 00E0     		b	.L30
 926              	.L121:
 927 04ea 1022     		movs	r2, #16
 928              	.L30:
 193:Drivers/STM32F7xx_HAL_Driver/Src/stm32f7xx_hal_dma_ex.c ****     __HAL_DMA_CLEAR_FLAG (hdma, __HAL_DMA_GET_TE_FLAG_INDEX(hdma));
 929              		.loc 1 193 5 discriminator 100 view .LVU206
 930 04ec 654B     		ldr	r3, .L327
 931 04ee 9A60     		str	r2, [r3, #8]
 932 04f0 64E7     		b	.L28
 933              	.L122:
 193:Drivers/STM32F7xx_HAL_Driver/Src/stm32f7xx_hal_dma_ex.c ****     __HAL_DMA_CLEAR_FLAG (hdma, __HAL_DMA_GET_TE_FLAG_INDEX(hdma));
 934              		.loc 1 193 5 view .LVU207
 935 04f2 1022     		movs	r2, #16
 936 04f4 FAE7     		b	.L30
 937              	.L123:
 938 04f6 1022     		movs	r2, #16
 939 04f8 F8E7     		b	.L30
 940              	.L124:
 941 04fa 1022     		movs	r2, #16
 942 04fc F6E7     		b	.L30
ARM GAS  C:\Users\Legend\AppData\Local\Temp\cceZzDEz.s 			page 26


 943              	.L125:
 944 04fe 4FF48062 		mov	r2, #1024
 945 0502 F3E7     		b	.L30
 946              	.L126:
 947 0504 4FF48062 		mov	r2, #1024
 948 0508 F0E7     		b	.L30
 949              	.L127:
 950 050a 4FF48062 		mov	r2, #1024
 951 050e EDE7     		b	.L30
 952              	.L128:
 953 0510 4FF48062 		mov	r2, #1024
 954 0514 EAE7     		b	.L30
 955              	.L129:
 956 0516 4FF48012 		mov	r2, #1048576
 957 051a E7E7     		b	.L30
 958              	.L130:
 959 051c 4FF48012 		mov	r2, #1048576
 960 0520 E4E7     		b	.L30
 961              	.L131:
 962 0522 4FF48012 		mov	r2, #1048576
 963 0526 E1E7     		b	.L30
 964              	.L29:
 193:Drivers/STM32F7xx_HAL_Driver/Src/stm32f7xx_hal_dma_ex.c ****     __HAL_DMA_CLEAR_FLAG (hdma, __HAL_DMA_GET_TE_FLAG_INDEX(hdma));
 965              		.loc 1 193 5 discriminator 52 view .LVU208
 966 0528 594A     		ldr	r2, .L327+12
 967 052a 9342     		cmp	r3, r2
 968 052c 53D9     		bls	.L31
 193:Drivers/STM32F7xx_HAL_Driver/Src/stm32f7xx_hal_dma_ex.c ****     __HAL_DMA_CLEAR_FLAG (hdma, __HAL_DMA_GET_TE_FLAG_INDEX(hdma));
 969              		.loc 1 193 5 discriminator 102 view .LVU209
 970 052e 483A     		subs	r2, r2, #72
 971 0530 9342     		cmp	r3, r2
 972 0532 31D0     		beq	.L133
 193:Drivers/STM32F7xx_HAL_Driver/Src/stm32f7xx_hal_dma_ex.c ****     __HAL_DMA_CLEAR_FLAG (hdma, __HAL_DMA_GET_TE_FLAG_INDEX(hdma));
 973              		.loc 1 193 5 discriminator 104 view .LVU210
 974 0534 02F58062 		add	r2, r2, #1024
 975 0538 9342     		cmp	r3, r2
 976 053a 31D0     		beq	.L134
 193:Drivers/STM32F7xx_HAL_Driver/Src/stm32f7xx_hal_dma_ex.c ****     __HAL_DMA_CLEAR_FLAG (hdma, __HAL_DMA_GET_TE_FLAG_INDEX(hdma));
 977              		.loc 1 193 5 discriminator 106 view .LVU211
 978 053c A2F56872 		sub	r2, r2, #928
 979 0540 9342     		cmp	r3, r2
 980 0542 2FD0     		beq	.L135
 193:Drivers/STM32F7xx_HAL_Driver/Src/stm32f7xx_hal_dma_ex.c ****     __HAL_DMA_CLEAR_FLAG (hdma, __HAL_DMA_GET_TE_FLAG_INDEX(hdma));
 981              		.loc 1 193 5 discriminator 108 view .LVU212
 982 0544 02F58062 		add	r2, r2, #1024
 983 0548 9342     		cmp	r3, r2
 984 054a 2DD0     		beq	.L136
 193:Drivers/STM32F7xx_HAL_Driver/Src/stm32f7xx_hal_dma_ex.c ****     __HAL_DMA_CLEAR_FLAG (hdma, __HAL_DMA_GET_TE_FLAG_INDEX(hdma));
 985              		.loc 1 193 5 discriminator 110 view .LVU213
 986 054c A2F58962 		sub	r2, r2, #1096
 987 0550 9342     		cmp	r3, r2
 988 0552 2BD0     		beq	.L137
 193:Drivers/STM32F7xx_HAL_Driver/Src/stm32f7xx_hal_dma_ex.c ****     __HAL_DMA_CLEAR_FLAG (hdma, __HAL_DMA_GET_TE_FLAG_INDEX(hdma));
 989              		.loc 1 193 5 discriminator 112 view .LVU214
 990 0554 02F58062 		add	r2, r2, #1024
 991 0558 9342     		cmp	r3, r2
 992 055a 2AD0     		beq	.L138
ARM GAS  C:\Users\Legend\AppData\Local\Temp\cceZzDEz.s 			page 27


 193:Drivers/STM32F7xx_HAL_Driver/Src/stm32f7xx_hal_dma_ex.c ****     __HAL_DMA_CLEAR_FLAG (hdma, __HAL_DMA_GET_TE_FLAG_INDEX(hdma));
 993              		.loc 1 193 5 discriminator 114 view .LVU215
 994 055c A2F56872 		sub	r2, r2, #928
 995 0560 9342     		cmp	r3, r2
 996 0562 29D0     		beq	.L139
 193:Drivers/STM32F7xx_HAL_Driver/Src/stm32f7xx_hal_dma_ex.c ****     __HAL_DMA_CLEAR_FLAG (hdma, __HAL_DMA_GET_TE_FLAG_INDEX(hdma));
 997              		.loc 1 193 5 discriminator 116 view .LVU216
 998 0564 02F58062 		add	r2, r2, #1024
 999 0568 9342     		cmp	r3, r2
 1000 056a 28D0     		beq	.L140
 193:Drivers/STM32F7xx_HAL_Driver/Src/stm32f7xx_hal_dma_ex.c ****     __HAL_DMA_CLEAR_FLAG (hdma, __HAL_DMA_GET_TE_FLAG_INDEX(hdma));
 1001              		.loc 1 193 5 discriminator 118 view .LVU217
 1002 056c A2F58962 		sub	r2, r2, #1096
 1003 0570 9342     		cmp	r3, r2
 1004 0572 27D0     		beq	.L141
 193:Drivers/STM32F7xx_HAL_Driver/Src/stm32f7xx_hal_dma_ex.c ****     __HAL_DMA_CLEAR_FLAG (hdma, __HAL_DMA_GET_TE_FLAG_INDEX(hdma));
 1005              		.loc 1 193 5 discriminator 120 view .LVU218
 1006 0574 02F58062 		add	r2, r2, #1024
 1007 0578 9342     		cmp	r3, r2
 1008 057a 26D0     		beq	.L142
 193:Drivers/STM32F7xx_HAL_Driver/Src/stm32f7xx_hal_dma_ex.c ****     __HAL_DMA_CLEAR_FLAG (hdma, __HAL_DMA_GET_TE_FLAG_INDEX(hdma));
 1009              		.loc 1 193 5 discriminator 122 view .LVU219
 1010 057c A2F56872 		sub	r2, r2, #928
 1011 0580 9342     		cmp	r3, r2
 1012 0582 25D0     		beq	.L143
 193:Drivers/STM32F7xx_HAL_Driver/Src/stm32f7xx_hal_dma_ex.c ****     __HAL_DMA_CLEAR_FLAG (hdma, __HAL_DMA_GET_TE_FLAG_INDEX(hdma));
 1013              		.loc 1 193 5 discriminator 124 view .LVU220
 1014 0584 02F58062 		add	r2, r2, #1024
 1015 0588 9342     		cmp	r3, r2
 1016 058a 02D0     		beq	.L311
 193:Drivers/STM32F7xx_HAL_Driver/Src/stm32f7xx_hal_dma_ex.c ****     __HAL_DMA_CLEAR_FLAG (hdma, __HAL_DMA_GET_TE_FLAG_INDEX(hdma));
 1017              		.loc 1 193 5 view .LVU221
 1018 058c 4FF08063 		mov	r3, #67108864
 1019 0590 03E0     		b	.L32
 1020              	.L311:
 1021 0592 4FF48013 		mov	r3, #1048576
 1022 0596 00E0     		b	.L32
 1023              	.L133:
 1024 0598 1023     		movs	r3, #16
 1025              	.L32:
 193:Drivers/STM32F7xx_HAL_Driver/Src/stm32f7xx_hal_dma_ex.c ****     __HAL_DMA_CLEAR_FLAG (hdma, __HAL_DMA_GET_TE_FLAG_INDEX(hdma));
 1026              		.loc 1 193 5 discriminator 151 view .LVU222
 1027 059a 3E4A     		ldr	r2, .L327+16
 1028 059c D360     		str	r3, [r2, #12]
 1029 059e 0DE7     		b	.L28
 1030              	.L134:
 193:Drivers/STM32F7xx_HAL_Driver/Src/stm32f7xx_hal_dma_ex.c ****     __HAL_DMA_CLEAR_FLAG (hdma, __HAL_DMA_GET_TE_FLAG_INDEX(hdma));
 1031              		.loc 1 193 5 view .LVU223
 1032 05a0 1023     		movs	r3, #16
 1033 05a2 FAE7     		b	.L32
 1034              	.L135:
 1035 05a4 1023     		movs	r3, #16
 1036 05a6 F8E7     		b	.L32
 1037              	.L136:
 1038 05a8 1023     		movs	r3, #16
 1039 05aa F6E7     		b	.L32
 1040              	.L137:
ARM GAS  C:\Users\Legend\AppData\Local\Temp\cceZzDEz.s 			page 28


 1041 05ac 4FF48063 		mov	r3, #1024
 1042 05b0 F3E7     		b	.L32
 1043              	.L138:
 1044 05b2 4FF48063 		mov	r3, #1024
 1045 05b6 F0E7     		b	.L32
 1046              	.L139:
 1047 05b8 4FF48063 		mov	r3, #1024
 1048 05bc EDE7     		b	.L32
 1049              	.L140:
 1050 05be 4FF48063 		mov	r3, #1024
 1051 05c2 EAE7     		b	.L32
 1052              	.L141:
 1053 05c4 4FF48013 		mov	r3, #1048576
 1054 05c8 E7E7     		b	.L32
 1055              	.L142:
 1056 05ca 4FF48013 		mov	r3, #1048576
 1057 05ce E4E7     		b	.L32
 1058              	.L143:
 1059 05d0 4FF48013 		mov	r3, #1048576
 1060 05d4 E1E7     		b	.L32
 1061              	.L31:
 193:Drivers/STM32F7xx_HAL_Driver/Src/stm32f7xx_hal_dma_ex.c ****     __HAL_DMA_CLEAR_FLAG (hdma, __HAL_DMA_GET_TE_FLAG_INDEX(hdma));
 1062              		.loc 1 193 5 discriminator 103 view .LVU224
 1063 05d6 304A     		ldr	r2, .L327+20
 1064 05d8 9342     		cmp	r3, r2
 1065 05da 31D0     		beq	.L145
 193:Drivers/STM32F7xx_HAL_Driver/Src/stm32f7xx_hal_dma_ex.c ****     __HAL_DMA_CLEAR_FLAG (hdma, __HAL_DMA_GET_TE_FLAG_INDEX(hdma));
 1066              		.loc 1 193 5 discriminator 153 view .LVU225
 1067 05dc 02F58062 		add	r2, r2, #1024
 1068 05e0 9342     		cmp	r3, r2
 1069 05e2 31D0     		beq	.L146
 193:Drivers/STM32F7xx_HAL_Driver/Src/stm32f7xx_hal_dma_ex.c ****     __HAL_DMA_CLEAR_FLAG (hdma, __HAL_DMA_GET_TE_FLAG_INDEX(hdma));
 1070              		.loc 1 193 5 discriminator 155 view .LVU226
 1071 05e4 A2F56872 		sub	r2, r2, #928
 1072 05e8 9342     		cmp	r3, r2
 1073 05ea 2FD0     		beq	.L147
 193:Drivers/STM32F7xx_HAL_Driver/Src/stm32f7xx_hal_dma_ex.c ****     __HAL_DMA_CLEAR_FLAG (hdma, __HAL_DMA_GET_TE_FLAG_INDEX(hdma));
 1074              		.loc 1 193 5 discriminator 157 view .LVU227
 1075 05ec 02F58062 		add	r2, r2, #1024
 1076 05f0 9342     		cmp	r3, r2
 1077 05f2 2DD0     		beq	.L148
 193:Drivers/STM32F7xx_HAL_Driver/Src/stm32f7xx_hal_dma_ex.c ****     __HAL_DMA_CLEAR_FLAG (hdma, __HAL_DMA_GET_TE_FLAG_INDEX(hdma));
 1078              		.loc 1 193 5 discriminator 159 view .LVU228
 1079 05f4 A2F58962 		sub	r2, r2, #1096
 1080 05f8 9342     		cmp	r3, r2
 1081 05fa 2BD0     		beq	.L149
 193:Drivers/STM32F7xx_HAL_Driver/Src/stm32f7xx_hal_dma_ex.c ****     __HAL_DMA_CLEAR_FLAG (hdma, __HAL_DMA_GET_TE_FLAG_INDEX(hdma));
 1082              		.loc 1 193 5 discriminator 161 view .LVU229
 1083 05fc 02F58062 		add	r2, r2, #1024
 1084 0600 9342     		cmp	r3, r2
 1085 0602 2AD0     		beq	.L150
 193:Drivers/STM32F7xx_HAL_Driver/Src/stm32f7xx_hal_dma_ex.c ****     __HAL_DMA_CLEAR_FLAG (hdma, __HAL_DMA_GET_TE_FLAG_INDEX(hdma));
 1086              		.loc 1 193 5 discriminator 163 view .LVU230
 1087 0604 A2F56872 		sub	r2, r2, #928
 1088 0608 9342     		cmp	r3, r2
 1089 060a 29D0     		beq	.L151
 193:Drivers/STM32F7xx_HAL_Driver/Src/stm32f7xx_hal_dma_ex.c ****     __HAL_DMA_CLEAR_FLAG (hdma, __HAL_DMA_GET_TE_FLAG_INDEX(hdma));
ARM GAS  C:\Users\Legend\AppData\Local\Temp\cceZzDEz.s 			page 29


 1090              		.loc 1 193 5 discriminator 165 view .LVU231
 1091 060c 02F58062 		add	r2, r2, #1024
 1092 0610 9342     		cmp	r3, r2
 1093 0612 28D0     		beq	.L152
 193:Drivers/STM32F7xx_HAL_Driver/Src/stm32f7xx_hal_dma_ex.c ****     __HAL_DMA_CLEAR_FLAG (hdma, __HAL_DMA_GET_TE_FLAG_INDEX(hdma));
 1094              		.loc 1 193 5 discriminator 167 view .LVU232
 1095 0614 A2F58962 		sub	r2, r2, #1096
 1096 0618 9342     		cmp	r3, r2
 1097 061a 27D0     		beq	.L153
 193:Drivers/STM32F7xx_HAL_Driver/Src/stm32f7xx_hal_dma_ex.c ****     __HAL_DMA_CLEAR_FLAG (hdma, __HAL_DMA_GET_TE_FLAG_INDEX(hdma));
 1098              		.loc 1 193 5 discriminator 169 view .LVU233
 1099 061c 02F58062 		add	r2, r2, #1024
 1100 0620 9342     		cmp	r3, r2
 1101 0622 26D0     		beq	.L154
 193:Drivers/STM32F7xx_HAL_Driver/Src/stm32f7xx_hal_dma_ex.c ****     __HAL_DMA_CLEAR_FLAG (hdma, __HAL_DMA_GET_TE_FLAG_INDEX(hdma));
 1102              		.loc 1 193 5 discriminator 171 view .LVU234
 1103 0624 A2F56872 		sub	r2, r2, #928
 1104 0628 9342     		cmp	r3, r2
 1105 062a 25D0     		beq	.L155
 193:Drivers/STM32F7xx_HAL_Driver/Src/stm32f7xx_hal_dma_ex.c ****     __HAL_DMA_CLEAR_FLAG (hdma, __HAL_DMA_GET_TE_FLAG_INDEX(hdma));
 1106              		.loc 1 193 5 discriminator 173 view .LVU235
 1107 062c 02F58062 		add	r2, r2, #1024
 1108 0630 9342     		cmp	r3, r2
 1109 0632 02D0     		beq	.L312
 193:Drivers/STM32F7xx_HAL_Driver/Src/stm32f7xx_hal_dma_ex.c ****     __HAL_DMA_CLEAR_FLAG (hdma, __HAL_DMA_GET_TE_FLAG_INDEX(hdma));
 1110              		.loc 1 193 5 view .LVU236
 1111 0634 4FF08063 		mov	r3, #67108864
 1112 0638 03E0     		b	.L33
 1113              	.L312:
 1114 063a 4FF48013 		mov	r3, #1048576
 1115 063e 00E0     		b	.L33
 1116              	.L145:
 1117 0640 1023     		movs	r3, #16
 1118              	.L33:
 193:Drivers/STM32F7xx_HAL_Driver/Src/stm32f7xx_hal_dma_ex.c ****     __HAL_DMA_CLEAR_FLAG (hdma, __HAL_DMA_GET_TE_FLAG_INDEX(hdma));
 1119              		.loc 1 193 5 discriminator 200 view .LVU237
 1120 0642 144A     		ldr	r2, .L327+16
 1121 0644 9360     		str	r3, [r2, #8]
 1122 0646 B9E6     		b	.L28
 1123              	.L146:
 193:Drivers/STM32F7xx_HAL_Driver/Src/stm32f7xx_hal_dma_ex.c ****     __HAL_DMA_CLEAR_FLAG (hdma, __HAL_DMA_GET_TE_FLAG_INDEX(hdma));
 1124              		.loc 1 193 5 view .LVU238
 1125 0648 1023     		movs	r3, #16
 1126 064a FAE7     		b	.L33
 1127              	.L147:
 1128 064c 1023     		movs	r3, #16
 1129 064e F8E7     		b	.L33
 1130              	.L148:
 1131 0650 1023     		movs	r3, #16
 1132 0652 F6E7     		b	.L33
 1133              	.L149:
 1134 0654 4FF48063 		mov	r3, #1024
 1135 0658 F3E7     		b	.L33
 1136              	.L150:
 1137 065a 4FF48063 		mov	r3, #1024
 1138 065e F0E7     		b	.L33
 1139              	.L151:
ARM GAS  C:\Users\Legend\AppData\Local\Temp\cceZzDEz.s 			page 30


 1140 0660 4FF48063 		mov	r3, #1024
 1141 0664 EDE7     		b	.L33
 1142              	.L152:
 1143 0666 4FF48063 		mov	r3, #1024
 1144 066a EAE7     		b	.L33
 1145              	.L153:
 1146 066c 4FF48013 		mov	r3, #1048576
 1147 0670 E7E7     		b	.L33
 1148              	.L154:
 1149 0672 4FF48013 		mov	r3, #1048576
 1150 0676 E4E7     		b	.L33
 1151              	.L155:
 1152 0678 4FF48013 		mov	r3, #1048576
 1153 067c E1E7     		b	.L33
 1154              	.L309:
 194:Drivers/STM32F7xx_HAL_Driver/Src/stm32f7xx_hal_dma_ex.c ****     __HAL_DMA_CLEAR_FLAG (hdma, __HAL_DMA_GET_DME_FLAG_INDEX(hdma));
 1155              		.loc 1 194 5 view .LVU239
 1156 067e 4FF40022 		mov	r2, #524288
 1157 0682 0CE0     		b	.L35
 1158              	.L328:
 1159              		.align	2
 1160              	.L327:
 1161 0684 00640240 		.word	1073898496
 1162 0688 58640240 		.word	1073898584
 1163 068c B8600240 		.word	1073897656
 1164 0690 58600240 		.word	1073897560
 1165 0694 00600240 		.word	1073897472
 1166 0698 10600240 		.word	1073897488
 1167              	.L157:
 1168 069c 0822     		movs	r2, #8
 1169              	.L35:
 194:Drivers/STM32F7xx_HAL_Driver/Src/stm32f7xx_hal_dma_ex.c ****     __HAL_DMA_CLEAR_FLAG (hdma, __HAL_DMA_GET_DME_FLAG_INDEX(hdma));
 1170              		.loc 1 194 5 discriminator 50 view .LVU240
 1171 069e B34B     		ldr	r3, .L329
 1172 06a0 DA60     		str	r2, [r3, #12]
 1173              	.L36:
 195:Drivers/STM32F7xx_HAL_Driver/Src/stm32f7xx_hal_dma_ex.c ****     __HAL_DMA_CLEAR_FLAG (hdma, __HAL_DMA_GET_FE_FLAG_INDEX(hdma));
 1174              		.loc 1 195 5 is_stmt 1 view .LVU241
 1175 06a2 2368     		ldr	r3, [r4]
 1176 06a4 B24A     		ldr	r2, .L329+4
 1177 06a6 9342     		cmp	r3, r2
 1178 06a8 40F2CE81 		bls	.L42
 195:Drivers/STM32F7xx_HAL_Driver/Src/stm32f7xx_hal_dma_ex.c ****     __HAL_DMA_CLEAR_FLAG (hdma, __HAL_DMA_GET_FE_FLAG_INDEX(hdma));
 1179              		.loc 1 195 5 is_stmt 0 discriminator 1 view .LVU242
 1180 06ac A2F58962 		sub	r2, r2, #1096
 1181 06b0 9342     		cmp	r3, r2
 1182 06b2 00F06781 		beq	.L205
 195:Drivers/STM32F7xx_HAL_Driver/Src/stm32f7xx_hal_dma_ex.c ****     __HAL_DMA_CLEAR_FLAG (hdma, __HAL_DMA_GET_FE_FLAG_INDEX(hdma));
 1183              		.loc 1 195 5 discriminator 3 view .LVU243
 1184 06b6 02F58062 		add	r2, r2, #1024
 1185 06ba 9342     		cmp	r3, r2
 1186 06bc 00F0A981 		beq	.L206
 195:Drivers/STM32F7xx_HAL_Driver/Src/stm32f7xx_hal_dma_ex.c ****     __HAL_DMA_CLEAR_FLAG (hdma, __HAL_DMA_GET_FE_FLAG_INDEX(hdma));
 1187              		.loc 1 195 5 discriminator 5 view .LVU244
 1188 06c0 A2F56872 		sub	r2, r2, #928
 1189 06c4 9342     		cmp	r3, r2
 1190 06c6 00F0A681 		beq	.L207
ARM GAS  C:\Users\Legend\AppData\Local\Temp\cceZzDEz.s 			page 31


 195:Drivers/STM32F7xx_HAL_Driver/Src/stm32f7xx_hal_dma_ex.c ****     __HAL_DMA_CLEAR_FLAG (hdma, __HAL_DMA_GET_FE_FLAG_INDEX(hdma));
 1191              		.loc 1 195 5 discriminator 7 view .LVU245
 1192 06ca 02F58062 		add	r2, r2, #1024
 1193 06ce 9342     		cmp	r3, r2
 1194 06d0 00F0A381 		beq	.L208
 195:Drivers/STM32F7xx_HAL_Driver/Src/stm32f7xx_hal_dma_ex.c ****     __HAL_DMA_CLEAR_FLAG (hdma, __HAL_DMA_GET_FE_FLAG_INDEX(hdma));
 1195              		.loc 1 195 5 discriminator 9 view .LVU246
 1196 06d4 A2F58962 		sub	r2, r2, #1096
 1197 06d8 9342     		cmp	r3, r2
 1198 06da 00F0A081 		beq	.L209
 195:Drivers/STM32F7xx_HAL_Driver/Src/stm32f7xx_hal_dma_ex.c ****     __HAL_DMA_CLEAR_FLAG (hdma, __HAL_DMA_GET_FE_FLAG_INDEX(hdma));
 1199              		.loc 1 195 5 discriminator 11 view .LVU247
 1200 06de 02F58062 		add	r2, r2, #1024
 1201 06e2 9342     		cmp	r3, r2
 1202 06e4 00F09E81 		beq	.L210
 195:Drivers/STM32F7xx_HAL_Driver/Src/stm32f7xx_hal_dma_ex.c ****     __HAL_DMA_CLEAR_FLAG (hdma, __HAL_DMA_GET_FE_FLAG_INDEX(hdma));
 1203              		.loc 1 195 5 discriminator 13 view .LVU248
 1204 06e8 A2F56872 		sub	r2, r2, #928
 1205 06ec 9342     		cmp	r3, r2
 1206 06ee 00F09C81 		beq	.L211
 195:Drivers/STM32F7xx_HAL_Driver/Src/stm32f7xx_hal_dma_ex.c ****     __HAL_DMA_CLEAR_FLAG (hdma, __HAL_DMA_GET_FE_FLAG_INDEX(hdma));
 1207              		.loc 1 195 5 discriminator 15 view .LVU249
 1208 06f2 02F58062 		add	r2, r2, #1024
 1209 06f6 9342     		cmp	r3, r2
 1210 06f8 00F09A81 		beq	.L212
 195:Drivers/STM32F7xx_HAL_Driver/Src/stm32f7xx_hal_dma_ex.c ****     __HAL_DMA_CLEAR_FLAG (hdma, __HAL_DMA_GET_FE_FLAG_INDEX(hdma));
 1211              		.loc 1 195 5 discriminator 17 view .LVU250
 1212 06fc A2F58962 		sub	r2, r2, #1096
 1213 0700 9342     		cmp	r3, r2
 1214 0702 00F09881 		beq	.L213
 195:Drivers/STM32F7xx_HAL_Driver/Src/stm32f7xx_hal_dma_ex.c ****     __HAL_DMA_CLEAR_FLAG (hdma, __HAL_DMA_GET_FE_FLAG_INDEX(hdma));
 1215              		.loc 1 195 5 discriminator 19 view .LVU251
 1216 0706 02F58062 		add	r2, r2, #1024
 1217 070a 9342     		cmp	r3, r2
 1218 070c 00F09681 		beq	.L214
 195:Drivers/STM32F7xx_HAL_Driver/Src/stm32f7xx_hal_dma_ex.c ****     __HAL_DMA_CLEAR_FLAG (hdma, __HAL_DMA_GET_FE_FLAG_INDEX(hdma));
 1219              		.loc 1 195 5 discriminator 21 view .LVU252
 1220 0710 A2F56872 		sub	r2, r2, #928
 1221 0714 9342     		cmp	r3, r2
 1222 0716 00F09481 		beq	.L215
 195:Drivers/STM32F7xx_HAL_Driver/Src/stm32f7xx_hal_dma_ex.c ****     __HAL_DMA_CLEAR_FLAG (hdma, __HAL_DMA_GET_FE_FLAG_INDEX(hdma));
 1223              		.loc 1 195 5 discriminator 23 view .LVU253
 1224 071a 02F58062 		add	r2, r2, #1024
 1225 071e 9342     		cmp	r3, r2
 1226 0720 00F02081 		beq	.L313
 195:Drivers/STM32F7xx_HAL_Driver/Src/stm32f7xx_hal_dma_ex.c ****     __HAL_DMA_CLEAR_FLAG (hdma, __HAL_DMA_GET_FE_FLAG_INDEX(hdma));
 1227              		.loc 1 195 5 view .LVU254
 1228 0724 4FF08072 		mov	r2, #16777216
 1229 0728 2DE1     		b	.L43
 1230              	.L158:
 194:Drivers/STM32F7xx_HAL_Driver/Src/stm32f7xx_hal_dma_ex.c ****     __HAL_DMA_CLEAR_FLAG (hdma, __HAL_DMA_GET_DME_FLAG_INDEX(hdma));
 1231              		.loc 1 194 5 view .LVU255
 1232 072a 0822     		movs	r2, #8
 1233 072c B7E7     		b	.L35
 1234              	.L159:
 1235 072e 0822     		movs	r2, #8
 1236 0730 B5E7     		b	.L35
ARM GAS  C:\Users\Legend\AppData\Local\Temp\cceZzDEz.s 			page 32


 1237              	.L160:
 1238 0732 0822     		movs	r2, #8
 1239 0734 B3E7     		b	.L35
 1240              	.L161:
 1241 0736 4FF40072 		mov	r2, #512
 1242 073a B0E7     		b	.L35
 1243              	.L162:
 1244 073c 4FF40072 		mov	r2, #512
 1245 0740 ADE7     		b	.L35
 1246              	.L163:
 1247 0742 4FF40072 		mov	r2, #512
 1248 0746 AAE7     		b	.L35
 1249              	.L164:
 1250 0748 4FF40072 		mov	r2, #512
 1251 074c A7E7     		b	.L35
 1252              	.L165:
 1253 074e 4FF40022 		mov	r2, #524288
 1254 0752 A4E7     		b	.L35
 1255              	.L166:
 1256 0754 4FF40022 		mov	r2, #524288
 1257 0758 A1E7     		b	.L35
 1258              	.L167:
 1259 075a 4FF40022 		mov	r2, #524288
 1260 075e 9EE7     		b	.L35
 1261              	.L34:
 194:Drivers/STM32F7xx_HAL_Driver/Src/stm32f7xx_hal_dma_ex.c ****     __HAL_DMA_CLEAR_FLAG (hdma, __HAL_DMA_GET_DME_FLAG_INDEX(hdma));
 1262              		.loc 1 194 5 discriminator 2 view .LVU256
 1263 0760 844A     		ldr	r2, .L329+8
 1264 0762 9342     		cmp	r3, r2
 1265 0764 53D9     		bls	.L37
 194:Drivers/STM32F7xx_HAL_Driver/Src/stm32f7xx_hal_dma_ex.c ****     __HAL_DMA_CLEAR_FLAG (hdma, __HAL_DMA_GET_DME_FLAG_INDEX(hdma));
 1266              		.loc 1 194 5 discriminator 51 view .LVU257
 1267 0766 A83A     		subs	r2, r2, #168
 1268 0768 9342     		cmp	r3, r2
 1269 076a 31D0     		beq	.L169
 194:Drivers/STM32F7xx_HAL_Driver/Src/stm32f7xx_hal_dma_ex.c ****     __HAL_DMA_CLEAR_FLAG (hdma, __HAL_DMA_GET_DME_FLAG_INDEX(hdma));
 1270              		.loc 1 194 5 discriminator 53 view .LVU258
 1271 076c 02F58062 		add	r2, r2, #1024
 1272 0770 9342     		cmp	r3, r2
 1273 0772 31D0     		beq	.L170
 194:Drivers/STM32F7xx_HAL_Driver/Src/stm32f7xx_hal_dma_ex.c ****     __HAL_DMA_CLEAR_FLAG (hdma, __HAL_DMA_GET_DME_FLAG_INDEX(hdma));
 1274              		.loc 1 194 5 discriminator 55 view .LVU259
 1275 0774 A2F56872 		sub	r2, r2, #928
 1276 0778 9342     		cmp	r3, r2
 1277 077a 2FD0     		beq	.L171
 194:Drivers/STM32F7xx_HAL_Driver/Src/stm32f7xx_hal_dma_ex.c ****     __HAL_DMA_CLEAR_FLAG (hdma, __HAL_DMA_GET_DME_FLAG_INDEX(hdma));
 1278              		.loc 1 194 5 discriminator 57 view .LVU260
 1279 077c 02F58062 		add	r2, r2, #1024
 1280 0780 9342     		cmp	r3, r2
 1281 0782 2DD0     		beq	.L172
 194:Drivers/STM32F7xx_HAL_Driver/Src/stm32f7xx_hal_dma_ex.c ****     __HAL_DMA_CLEAR_FLAG (hdma, __HAL_DMA_GET_DME_FLAG_INDEX(hdma));
 1282              		.loc 1 194 5 discriminator 59 view .LVU261
 1283 0784 A2F58962 		sub	r2, r2, #1096
 1284 0788 9342     		cmp	r3, r2
 1285 078a 2BD0     		beq	.L173
 194:Drivers/STM32F7xx_HAL_Driver/Src/stm32f7xx_hal_dma_ex.c ****     __HAL_DMA_CLEAR_FLAG (hdma, __HAL_DMA_GET_DME_FLAG_INDEX(hdma));
 1286              		.loc 1 194 5 discriminator 61 view .LVU262
ARM GAS  C:\Users\Legend\AppData\Local\Temp\cceZzDEz.s 			page 33


 1287 078c 02F58062 		add	r2, r2, #1024
 1288 0790 9342     		cmp	r3, r2
 1289 0792 2AD0     		beq	.L174
 194:Drivers/STM32F7xx_HAL_Driver/Src/stm32f7xx_hal_dma_ex.c ****     __HAL_DMA_CLEAR_FLAG (hdma, __HAL_DMA_GET_DME_FLAG_INDEX(hdma));
 1290              		.loc 1 194 5 discriminator 63 view .LVU263
 1291 0794 A2F56872 		sub	r2, r2, #928
 1292 0798 9342     		cmp	r3, r2
 1293 079a 29D0     		beq	.L175
 194:Drivers/STM32F7xx_HAL_Driver/Src/stm32f7xx_hal_dma_ex.c ****     __HAL_DMA_CLEAR_FLAG (hdma, __HAL_DMA_GET_DME_FLAG_INDEX(hdma));
 1294              		.loc 1 194 5 discriminator 65 view .LVU264
 1295 079c 02F58062 		add	r2, r2, #1024
 1296 07a0 9342     		cmp	r3, r2
 1297 07a2 28D0     		beq	.L176
 194:Drivers/STM32F7xx_HAL_Driver/Src/stm32f7xx_hal_dma_ex.c ****     __HAL_DMA_CLEAR_FLAG (hdma, __HAL_DMA_GET_DME_FLAG_INDEX(hdma));
 1298              		.loc 1 194 5 discriminator 67 view .LVU265
 1299 07a4 A2F58962 		sub	r2, r2, #1096
 1300 07a8 9342     		cmp	r3, r2
 1301 07aa 27D0     		beq	.L177
 194:Drivers/STM32F7xx_HAL_Driver/Src/stm32f7xx_hal_dma_ex.c ****     __HAL_DMA_CLEAR_FLAG (hdma, __HAL_DMA_GET_DME_FLAG_INDEX(hdma));
 1302              		.loc 1 194 5 discriminator 69 view .LVU266
 1303 07ac 02F58062 		add	r2, r2, #1024
 1304 07b0 9342     		cmp	r3, r2
 1305 07b2 26D0     		beq	.L178
 194:Drivers/STM32F7xx_HAL_Driver/Src/stm32f7xx_hal_dma_ex.c ****     __HAL_DMA_CLEAR_FLAG (hdma, __HAL_DMA_GET_DME_FLAG_INDEX(hdma));
 1306              		.loc 1 194 5 discriminator 71 view .LVU267
 1307 07b4 A2F56872 		sub	r2, r2, #928
 1308 07b8 9342     		cmp	r3, r2
 1309 07ba 25D0     		beq	.L179
 194:Drivers/STM32F7xx_HAL_Driver/Src/stm32f7xx_hal_dma_ex.c ****     __HAL_DMA_CLEAR_FLAG (hdma, __HAL_DMA_GET_DME_FLAG_INDEX(hdma));
 1310              		.loc 1 194 5 discriminator 73 view .LVU268
 1311 07bc 02F58062 		add	r2, r2, #1024
 1312 07c0 9342     		cmp	r3, r2
 1313 07c2 02D0     		beq	.L314
 194:Drivers/STM32F7xx_HAL_Driver/Src/stm32f7xx_hal_dma_ex.c ****     __HAL_DMA_CLEAR_FLAG (hdma, __HAL_DMA_GET_DME_FLAG_INDEX(hdma));
 1314              		.loc 1 194 5 view .LVU269
 1315 07c4 4FF00072 		mov	r2, #33554432
 1316 07c8 03E0     		b	.L38
 1317              	.L314:
 1318 07ca 4FF40022 		mov	r2, #524288
 1319 07ce 00E0     		b	.L38
 1320              	.L169:
 1321 07d0 0822     		movs	r2, #8
 1322              	.L38:
 194:Drivers/STM32F7xx_HAL_Driver/Src/stm32f7xx_hal_dma_ex.c ****     __HAL_DMA_CLEAR_FLAG (hdma, __HAL_DMA_GET_DME_FLAG_INDEX(hdma));
 1323              		.loc 1 194 5 discriminator 100 view .LVU270
 1324 07d2 664B     		ldr	r3, .L329
 1325 07d4 9A60     		str	r2, [r3, #8]
 1326 07d6 64E7     		b	.L36
 1327              	.L170:
 194:Drivers/STM32F7xx_HAL_Driver/Src/stm32f7xx_hal_dma_ex.c ****     __HAL_DMA_CLEAR_FLAG (hdma, __HAL_DMA_GET_DME_FLAG_INDEX(hdma));
 1328              		.loc 1 194 5 view .LVU271
 1329 07d8 0822     		movs	r2, #8
 1330 07da FAE7     		b	.L38
 1331              	.L171:
 1332 07dc 0822     		movs	r2, #8
 1333 07de F8E7     		b	.L38
 1334              	.L172:
ARM GAS  C:\Users\Legend\AppData\Local\Temp\cceZzDEz.s 			page 34


 1335 07e0 0822     		movs	r2, #8
 1336 07e2 F6E7     		b	.L38
 1337              	.L173:
 1338 07e4 4FF40072 		mov	r2, #512
 1339 07e8 F3E7     		b	.L38
 1340              	.L174:
 1341 07ea 4FF40072 		mov	r2, #512
 1342 07ee F0E7     		b	.L38
 1343              	.L175:
 1344 07f0 4FF40072 		mov	r2, #512
 1345 07f4 EDE7     		b	.L38
 1346              	.L176:
 1347 07f6 4FF40072 		mov	r2, #512
 1348 07fa EAE7     		b	.L38
 1349              	.L177:
 1350 07fc 4FF40022 		mov	r2, #524288
 1351 0800 E7E7     		b	.L38
 1352              	.L178:
 1353 0802 4FF40022 		mov	r2, #524288
 1354 0806 E4E7     		b	.L38
 1355              	.L179:
 1356 0808 4FF40022 		mov	r2, #524288
 1357 080c E1E7     		b	.L38
 1358              	.L37:
 194:Drivers/STM32F7xx_HAL_Driver/Src/stm32f7xx_hal_dma_ex.c ****     __HAL_DMA_CLEAR_FLAG (hdma, __HAL_DMA_GET_DME_FLAG_INDEX(hdma));
 1359              		.loc 1 194 5 discriminator 52 view .LVU272
 1360 080e 5A4A     		ldr	r2, .L329+12
 1361 0810 9342     		cmp	r3, r2
 1362 0812 53D9     		bls	.L39
 194:Drivers/STM32F7xx_HAL_Driver/Src/stm32f7xx_hal_dma_ex.c ****     __HAL_DMA_CLEAR_FLAG (hdma, __HAL_DMA_GET_DME_FLAG_INDEX(hdma));
 1363              		.loc 1 194 5 discriminator 102 view .LVU273
 1364 0814 483A     		subs	r2, r2, #72
 1365 0816 9342     		cmp	r3, r2
 1366 0818 31D0     		beq	.L181
 194:Drivers/STM32F7xx_HAL_Driver/Src/stm32f7xx_hal_dma_ex.c ****     __HAL_DMA_CLEAR_FLAG (hdma, __HAL_DMA_GET_DME_FLAG_INDEX(hdma));
 1367              		.loc 1 194 5 discriminator 104 view .LVU274
 1368 081a 02F58062 		add	r2, r2, #1024
 1369 081e 9342     		cmp	r3, r2
 1370 0820 31D0     		beq	.L182
 194:Drivers/STM32F7xx_HAL_Driver/Src/stm32f7xx_hal_dma_ex.c ****     __HAL_DMA_CLEAR_FLAG (hdma, __HAL_DMA_GET_DME_FLAG_INDEX(hdma));
 1371              		.loc 1 194 5 discriminator 106 view .LVU275
 1372 0822 A2F56872 		sub	r2, r2, #928
 1373 0826 9342     		cmp	r3, r2
 1374 0828 2FD0     		beq	.L183
 194:Drivers/STM32F7xx_HAL_Driver/Src/stm32f7xx_hal_dma_ex.c ****     __HAL_DMA_CLEAR_FLAG (hdma, __HAL_DMA_GET_DME_FLAG_INDEX(hdma));
 1375              		.loc 1 194 5 discriminator 108 view .LVU276
 1376 082a 02F58062 		add	r2, r2, #1024
 1377 082e 9342     		cmp	r3, r2
 1378 0830 2DD0     		beq	.L184
 194:Drivers/STM32F7xx_HAL_Driver/Src/stm32f7xx_hal_dma_ex.c ****     __HAL_DMA_CLEAR_FLAG (hdma, __HAL_DMA_GET_DME_FLAG_INDEX(hdma));
 1379              		.loc 1 194 5 discriminator 110 view .LVU277
 1380 0832 A2F58962 		sub	r2, r2, #1096
 1381 0836 9342     		cmp	r3, r2
 1382 0838 2BD0     		beq	.L185
 194:Drivers/STM32F7xx_HAL_Driver/Src/stm32f7xx_hal_dma_ex.c ****     __HAL_DMA_CLEAR_FLAG (hdma, __HAL_DMA_GET_DME_FLAG_INDEX(hdma));
 1383              		.loc 1 194 5 discriminator 112 view .LVU278
 1384 083a 02F58062 		add	r2, r2, #1024
ARM GAS  C:\Users\Legend\AppData\Local\Temp\cceZzDEz.s 			page 35


 1385 083e 9342     		cmp	r3, r2
 1386 0840 2AD0     		beq	.L186
 194:Drivers/STM32F7xx_HAL_Driver/Src/stm32f7xx_hal_dma_ex.c ****     __HAL_DMA_CLEAR_FLAG (hdma, __HAL_DMA_GET_DME_FLAG_INDEX(hdma));
 1387              		.loc 1 194 5 discriminator 114 view .LVU279
 1388 0842 A2F56872 		sub	r2, r2, #928
 1389 0846 9342     		cmp	r3, r2
 1390 0848 29D0     		beq	.L187
 194:Drivers/STM32F7xx_HAL_Driver/Src/stm32f7xx_hal_dma_ex.c ****     __HAL_DMA_CLEAR_FLAG (hdma, __HAL_DMA_GET_DME_FLAG_INDEX(hdma));
 1391              		.loc 1 194 5 discriminator 116 view .LVU280
 1392 084a 02F58062 		add	r2, r2, #1024
 1393 084e 9342     		cmp	r3, r2
 1394 0850 28D0     		beq	.L188
 194:Drivers/STM32F7xx_HAL_Driver/Src/stm32f7xx_hal_dma_ex.c ****     __HAL_DMA_CLEAR_FLAG (hdma, __HAL_DMA_GET_DME_FLAG_INDEX(hdma));
 1395              		.loc 1 194 5 discriminator 118 view .LVU281
 1396 0852 A2F58962 		sub	r2, r2, #1096
 1397 0856 9342     		cmp	r3, r2
 1398 0858 27D0     		beq	.L189
 194:Drivers/STM32F7xx_HAL_Driver/Src/stm32f7xx_hal_dma_ex.c ****     __HAL_DMA_CLEAR_FLAG (hdma, __HAL_DMA_GET_DME_FLAG_INDEX(hdma));
 1399              		.loc 1 194 5 discriminator 120 view .LVU282
 1400 085a 02F58062 		add	r2, r2, #1024
 1401 085e 9342     		cmp	r3, r2
 1402 0860 26D0     		beq	.L190
 194:Drivers/STM32F7xx_HAL_Driver/Src/stm32f7xx_hal_dma_ex.c ****     __HAL_DMA_CLEAR_FLAG (hdma, __HAL_DMA_GET_DME_FLAG_INDEX(hdma));
 1403              		.loc 1 194 5 discriminator 122 view .LVU283
 1404 0862 A2F56872 		sub	r2, r2, #928
 1405 0866 9342     		cmp	r3, r2
 1406 0868 25D0     		beq	.L191
 194:Drivers/STM32F7xx_HAL_Driver/Src/stm32f7xx_hal_dma_ex.c ****     __HAL_DMA_CLEAR_FLAG (hdma, __HAL_DMA_GET_DME_FLAG_INDEX(hdma));
 1407              		.loc 1 194 5 discriminator 124 view .LVU284
 1408 086a 02F58062 		add	r2, r2, #1024
 1409 086e 9342     		cmp	r3, r2
 1410 0870 02D0     		beq	.L315
 194:Drivers/STM32F7xx_HAL_Driver/Src/stm32f7xx_hal_dma_ex.c ****     __HAL_DMA_CLEAR_FLAG (hdma, __HAL_DMA_GET_DME_FLAG_INDEX(hdma));
 1411              		.loc 1 194 5 view .LVU285
 1412 0872 4FF00073 		mov	r3, #33554432
 1413 0876 03E0     		b	.L40
 1414              	.L315:
 1415 0878 4FF40023 		mov	r3, #524288
 1416 087c 00E0     		b	.L40
 1417              	.L181:
 1418 087e 0823     		movs	r3, #8
 1419              	.L40:
 194:Drivers/STM32F7xx_HAL_Driver/Src/stm32f7xx_hal_dma_ex.c ****     __HAL_DMA_CLEAR_FLAG (hdma, __HAL_DMA_GET_DME_FLAG_INDEX(hdma));
 1420              		.loc 1 194 5 discriminator 151 view .LVU286
 1421 0880 3E4A     		ldr	r2, .L329+16
 1422 0882 D360     		str	r3, [r2, #12]
 1423 0884 0DE7     		b	.L36
 1424              	.L182:
 194:Drivers/STM32F7xx_HAL_Driver/Src/stm32f7xx_hal_dma_ex.c ****     __HAL_DMA_CLEAR_FLAG (hdma, __HAL_DMA_GET_DME_FLAG_INDEX(hdma));
 1425              		.loc 1 194 5 view .LVU287
 1426 0886 0823     		movs	r3, #8
 1427 0888 FAE7     		b	.L40
 1428              	.L183:
 1429 088a 0823     		movs	r3, #8
 1430 088c F8E7     		b	.L40
 1431              	.L184:
 1432 088e 0823     		movs	r3, #8
ARM GAS  C:\Users\Legend\AppData\Local\Temp\cceZzDEz.s 			page 36


 1433 0890 F6E7     		b	.L40
 1434              	.L185:
 1435 0892 4FF40073 		mov	r3, #512
 1436 0896 F3E7     		b	.L40
 1437              	.L186:
 1438 0898 4FF40073 		mov	r3, #512
 1439 089c F0E7     		b	.L40
 1440              	.L187:
 1441 089e 4FF40073 		mov	r3, #512
 1442 08a2 EDE7     		b	.L40
 1443              	.L188:
 1444 08a4 4FF40073 		mov	r3, #512
 1445 08a8 EAE7     		b	.L40
 1446              	.L189:
 1447 08aa 4FF40023 		mov	r3, #524288
 1448 08ae E7E7     		b	.L40
 1449              	.L190:
 1450 08b0 4FF40023 		mov	r3, #524288
 1451 08b4 E4E7     		b	.L40
 1452              	.L191:
 1453 08b6 4FF40023 		mov	r3, #524288
 1454 08ba E1E7     		b	.L40
 1455              	.L39:
 194:Drivers/STM32F7xx_HAL_Driver/Src/stm32f7xx_hal_dma_ex.c ****     __HAL_DMA_CLEAR_FLAG (hdma, __HAL_DMA_GET_DME_FLAG_INDEX(hdma));
 1456              		.loc 1 194 5 discriminator 103 view .LVU288
 1457 08bc 304A     		ldr	r2, .L329+20
 1458 08be 9342     		cmp	r3, r2
 1459 08c0 31D0     		beq	.L193
 194:Drivers/STM32F7xx_HAL_Driver/Src/stm32f7xx_hal_dma_ex.c ****     __HAL_DMA_CLEAR_FLAG (hdma, __HAL_DMA_GET_DME_FLAG_INDEX(hdma));
 1460              		.loc 1 194 5 discriminator 153 view .LVU289
 1461 08c2 02F58062 		add	r2, r2, #1024
 1462 08c6 9342     		cmp	r3, r2
 1463 08c8 31D0     		beq	.L194
 194:Drivers/STM32F7xx_HAL_Driver/Src/stm32f7xx_hal_dma_ex.c ****     __HAL_DMA_CLEAR_FLAG (hdma, __HAL_DMA_GET_DME_FLAG_INDEX(hdma));
 1464              		.loc 1 194 5 discriminator 155 view .LVU290
 1465 08ca A2F56872 		sub	r2, r2, #928
 1466 08ce 9342     		cmp	r3, r2
 1467 08d0 2FD0     		beq	.L195
 194:Drivers/STM32F7xx_HAL_Driver/Src/stm32f7xx_hal_dma_ex.c ****     __HAL_DMA_CLEAR_FLAG (hdma, __HAL_DMA_GET_DME_FLAG_INDEX(hdma));
 1468              		.loc 1 194 5 discriminator 157 view .LVU291
 1469 08d2 02F58062 		add	r2, r2, #1024
 1470 08d6 9342     		cmp	r3, r2
 1471 08d8 2DD0     		beq	.L196
 194:Drivers/STM32F7xx_HAL_Driver/Src/stm32f7xx_hal_dma_ex.c ****     __HAL_DMA_CLEAR_FLAG (hdma, __HAL_DMA_GET_DME_FLAG_INDEX(hdma));
 1472              		.loc 1 194 5 discriminator 159 view .LVU292
 1473 08da A2F58962 		sub	r2, r2, #1096
 1474 08de 9342     		cmp	r3, r2
 1475 08e0 2BD0     		beq	.L197
 194:Drivers/STM32F7xx_HAL_Driver/Src/stm32f7xx_hal_dma_ex.c ****     __HAL_DMA_CLEAR_FLAG (hdma, __HAL_DMA_GET_DME_FLAG_INDEX(hdma));
 1476              		.loc 1 194 5 discriminator 161 view .LVU293
 1477 08e2 02F58062 		add	r2, r2, #1024
 1478 08e6 9342     		cmp	r3, r2
 1479 08e8 2AD0     		beq	.L198
 194:Drivers/STM32F7xx_HAL_Driver/Src/stm32f7xx_hal_dma_ex.c ****     __HAL_DMA_CLEAR_FLAG (hdma, __HAL_DMA_GET_DME_FLAG_INDEX(hdma));
 1480              		.loc 1 194 5 discriminator 163 view .LVU294
 1481 08ea A2F56872 		sub	r2, r2, #928
 1482 08ee 9342     		cmp	r3, r2
ARM GAS  C:\Users\Legend\AppData\Local\Temp\cceZzDEz.s 			page 37


 1483 08f0 29D0     		beq	.L199
 194:Drivers/STM32F7xx_HAL_Driver/Src/stm32f7xx_hal_dma_ex.c ****     __HAL_DMA_CLEAR_FLAG (hdma, __HAL_DMA_GET_DME_FLAG_INDEX(hdma));
 1484              		.loc 1 194 5 discriminator 165 view .LVU295
 1485 08f2 02F58062 		add	r2, r2, #1024
 1486 08f6 9342     		cmp	r3, r2
 1487 08f8 28D0     		beq	.L200
 194:Drivers/STM32F7xx_HAL_Driver/Src/stm32f7xx_hal_dma_ex.c ****     __HAL_DMA_CLEAR_FLAG (hdma, __HAL_DMA_GET_DME_FLAG_INDEX(hdma));
 1488              		.loc 1 194 5 discriminator 167 view .LVU296
 1489 08fa A2F58962 		sub	r2, r2, #1096
 1490 08fe 9342     		cmp	r3, r2
 1491 0900 27D0     		beq	.L201
 194:Drivers/STM32F7xx_HAL_Driver/Src/stm32f7xx_hal_dma_ex.c ****     __HAL_DMA_CLEAR_FLAG (hdma, __HAL_DMA_GET_DME_FLAG_INDEX(hdma));
 1492              		.loc 1 194 5 discriminator 169 view .LVU297
 1493 0902 02F58062 		add	r2, r2, #1024
 1494 0906 9342     		cmp	r3, r2
 1495 0908 26D0     		beq	.L202
 194:Drivers/STM32F7xx_HAL_Driver/Src/stm32f7xx_hal_dma_ex.c ****     __HAL_DMA_CLEAR_FLAG (hdma, __HAL_DMA_GET_DME_FLAG_INDEX(hdma));
 1496              		.loc 1 194 5 discriminator 171 view .LVU298
 1497 090a A2F56872 		sub	r2, r2, #928
 1498 090e 9342     		cmp	r3, r2
 1499 0910 25D0     		beq	.L203
 194:Drivers/STM32F7xx_HAL_Driver/Src/stm32f7xx_hal_dma_ex.c ****     __HAL_DMA_CLEAR_FLAG (hdma, __HAL_DMA_GET_DME_FLAG_INDEX(hdma));
 1500              		.loc 1 194 5 discriminator 173 view .LVU299
 1501 0912 02F58062 		add	r2, r2, #1024
 1502 0916 9342     		cmp	r3, r2
 1503 0918 02D0     		beq	.L316
 194:Drivers/STM32F7xx_HAL_Driver/Src/stm32f7xx_hal_dma_ex.c ****     __HAL_DMA_CLEAR_FLAG (hdma, __HAL_DMA_GET_DME_FLAG_INDEX(hdma));
 1504              		.loc 1 194 5 view .LVU300
 1505 091a 4FF00073 		mov	r3, #33554432
 1506 091e 03E0     		b	.L41
 1507              	.L316:
 1508 0920 4FF40023 		mov	r3, #524288
 1509 0924 00E0     		b	.L41
 1510              	.L193:
 1511 0926 0823     		movs	r3, #8
 1512              	.L41:
 194:Drivers/STM32F7xx_HAL_Driver/Src/stm32f7xx_hal_dma_ex.c ****     __HAL_DMA_CLEAR_FLAG (hdma, __HAL_DMA_GET_DME_FLAG_INDEX(hdma));
 1513              		.loc 1 194 5 discriminator 200 view .LVU301
 1514 0928 144A     		ldr	r2, .L329+16
 1515 092a 9360     		str	r3, [r2, #8]
 1516 092c B9E6     		b	.L36
 1517              	.L194:
 194:Drivers/STM32F7xx_HAL_Driver/Src/stm32f7xx_hal_dma_ex.c ****     __HAL_DMA_CLEAR_FLAG (hdma, __HAL_DMA_GET_DME_FLAG_INDEX(hdma));
 1518              		.loc 1 194 5 view .LVU302
 1519 092e 0823     		movs	r3, #8
 1520 0930 FAE7     		b	.L41
 1521              	.L195:
 1522 0932 0823     		movs	r3, #8
 1523 0934 F8E7     		b	.L41
 1524              	.L196:
 1525 0936 0823     		movs	r3, #8
 1526 0938 F6E7     		b	.L41
 1527              	.L197:
 1528 093a 4FF40073 		mov	r3, #512
 1529 093e F3E7     		b	.L41
 1530              	.L198:
 1531 0940 4FF40073 		mov	r3, #512
ARM GAS  C:\Users\Legend\AppData\Local\Temp\cceZzDEz.s 			page 38


 1532 0944 F0E7     		b	.L41
 1533              	.L199:
 1534 0946 4FF40073 		mov	r3, #512
 1535 094a EDE7     		b	.L41
 1536              	.L200:
 1537 094c 4FF40073 		mov	r3, #512
 1538 0950 EAE7     		b	.L41
 1539              	.L201:
 1540 0952 4FF40023 		mov	r3, #524288
 1541 0956 E7E7     		b	.L41
 1542              	.L202:
 1543 0958 4FF40023 		mov	r3, #524288
 1544 095c E4E7     		b	.L41
 1545              	.L203:
 1546 095e 4FF40023 		mov	r3, #524288
 1547 0962 E1E7     		b	.L41
 1548              	.L313:
 195:Drivers/STM32F7xx_HAL_Driver/Src/stm32f7xx_hal_dma_ex.c ****     __HAL_DMA_CLEAR_FLAG (hdma, __HAL_DMA_GET_FE_FLAG_INDEX(hdma));
 1549              		.loc 1 195 5 view .LVU303
 1550 0964 4FF48022 		mov	r2, #262144
 1551 0968 0DE0     		b	.L43
 1552              	.L330:
 1553 096a 00BF     		.align	2
 1554              	.L329:
 1555 096c 00640240 		.word	1073898496
 1556 0970 58640240 		.word	1073898584
 1557 0974 B8600240 		.word	1073897656
 1558 0978 58600240 		.word	1073897560
 1559 097c 00600240 		.word	1073897472
 1560 0980 10600240 		.word	1073897488
 1561              	.L205:
 1562 0984 0422     		movs	r2, #4
 1563              	.L43:
 195:Drivers/STM32F7xx_HAL_Driver/Src/stm32f7xx_hal_dma_ex.c ****     __HAL_DMA_CLEAR_FLAG (hdma, __HAL_DMA_GET_FE_FLAG_INDEX(hdma));
 1564              		.loc 1 195 5 discriminator 50 view .LVU304
 1565 0986 C24B     		ldr	r3, .L331
 1566 0988 DA60     		str	r2, [r3, #12]
 1567              	.L44:
 196:Drivers/STM32F7xx_HAL_Driver/Src/stm32f7xx_hal_dma_ex.c ****     
 1568              		.loc 1 196 5 is_stmt 1 view .LVU305
 1569 098a 2368     		ldr	r3, [r4]
 1570 098c C14A     		ldr	r2, .L331+4
 1571 098e 9342     		cmp	r3, r2
 1572 0990 40F2A181 		bls	.L50
 196:Drivers/STM32F7xx_HAL_Driver/Src/stm32f7xx_hal_dma_ex.c ****     
 1573              		.loc 1 196 5 is_stmt 0 discriminator 1 view .LVU306
 1574 0994 A2F58962 		sub	r2, r2, #1096
 1575 0998 9342     		cmp	r3, r2
 1576 099a 00F05A81 		beq	.L253
 196:Drivers/STM32F7xx_HAL_Driver/Src/stm32f7xx_hal_dma_ex.c ****     
 1577              		.loc 1 196 5 discriminator 3 view .LVU307
 1578 099e 02F58062 		add	r2, r2, #1024
 1579 09a2 9342     		cmp	r3, r2
 1580 09a4 00F08081 		beq	.L254
 196:Drivers/STM32F7xx_HAL_Driver/Src/stm32f7xx_hal_dma_ex.c ****     
 1581              		.loc 1 196 5 discriminator 5 view .LVU308
 1582 09a8 A2F56872 		sub	r2, r2, #928
ARM GAS  C:\Users\Legend\AppData\Local\Temp\cceZzDEz.s 			page 39


 1583 09ac 9342     		cmp	r3, r2
 1584 09ae 00F07D81 		beq	.L255
 196:Drivers/STM32F7xx_HAL_Driver/Src/stm32f7xx_hal_dma_ex.c ****     
 1585              		.loc 1 196 5 discriminator 7 view .LVU309
 1586 09b2 02F58062 		add	r2, r2, #1024
 1587 09b6 9342     		cmp	r3, r2
 1588 09b8 00F07A81 		beq	.L256
 196:Drivers/STM32F7xx_HAL_Driver/Src/stm32f7xx_hal_dma_ex.c ****     
 1589              		.loc 1 196 5 discriminator 9 view .LVU310
 1590 09bc A2F58962 		sub	r2, r2, #1096
 1591 09c0 9342     		cmp	r3, r2
 1592 09c2 00F07781 		beq	.L257
 196:Drivers/STM32F7xx_HAL_Driver/Src/stm32f7xx_hal_dma_ex.c ****     
 1593              		.loc 1 196 5 discriminator 11 view .LVU311
 1594 09c6 02F58062 		add	r2, r2, #1024
 1595 09ca 9342     		cmp	r3, r2
 1596 09cc 00F07481 		beq	.L258
 196:Drivers/STM32F7xx_HAL_Driver/Src/stm32f7xx_hal_dma_ex.c ****     
 1597              		.loc 1 196 5 discriminator 13 view .LVU312
 1598 09d0 A2F56872 		sub	r2, r2, #928
 1599 09d4 9342     		cmp	r3, r2
 1600 09d6 00F07181 		beq	.L259
 196:Drivers/STM32F7xx_HAL_Driver/Src/stm32f7xx_hal_dma_ex.c ****     
 1601              		.loc 1 196 5 discriminator 15 view .LVU313
 1602 09da 02F58062 		add	r2, r2, #1024
 1603 09de 9342     		cmp	r3, r2
 1604 09e0 00F06E81 		beq	.L260
 196:Drivers/STM32F7xx_HAL_Driver/Src/stm32f7xx_hal_dma_ex.c ****     
 1605              		.loc 1 196 5 discriminator 17 view .LVU314
 1606 09e4 A2F58962 		sub	r2, r2, #1096
 1607 09e8 9342     		cmp	r3, r2
 1608 09ea 00F06B81 		beq	.L261
 196:Drivers/STM32F7xx_HAL_Driver/Src/stm32f7xx_hal_dma_ex.c ****     
 1609              		.loc 1 196 5 discriminator 19 view .LVU315
 1610 09ee 02F58062 		add	r2, r2, #1024
 1611 09f2 9342     		cmp	r3, r2
 1612 09f4 00F06981 		beq	.L262
 196:Drivers/STM32F7xx_HAL_Driver/Src/stm32f7xx_hal_dma_ex.c ****     
 1613              		.loc 1 196 5 discriminator 21 view .LVU316
 1614 09f8 A2F56872 		sub	r2, r2, #928
 1615 09fc 9342     		cmp	r3, r2
 1616 09fe 00F06781 		beq	.L263
 196:Drivers/STM32F7xx_HAL_Driver/Src/stm32f7xx_hal_dma_ex.c ****     
 1617              		.loc 1 196 5 discriminator 23 view .LVU317
 1618 0a02 02F58062 		add	r2, r2, #1024
 1619 0a06 9342     		cmp	r3, r2
 1620 0a08 00F02081 		beq	.L317
 196:Drivers/STM32F7xx_HAL_Driver/Src/stm32f7xx_hal_dma_ex.c ****     
 1621              		.loc 1 196 5 view .LVU318
 1622 0a0c 4FF48002 		mov	r2, #4194304
 1623 0a10 20E1     		b	.L51
 1624              	.L206:
 195:Drivers/STM32F7xx_HAL_Driver/Src/stm32f7xx_hal_dma_ex.c ****     __HAL_DMA_CLEAR_FLAG (hdma, __HAL_DMA_GET_FE_FLAG_INDEX(hdma));
 1625              		.loc 1 195 5 view .LVU319
 1626 0a12 0422     		movs	r2, #4
 1627 0a14 B7E7     		b	.L43
 1628              	.L207:
ARM GAS  C:\Users\Legend\AppData\Local\Temp\cceZzDEz.s 			page 40


 1629 0a16 0422     		movs	r2, #4
 1630 0a18 B5E7     		b	.L43
 1631              	.L208:
 1632 0a1a 0422     		movs	r2, #4
 1633 0a1c B3E7     		b	.L43
 1634              	.L209:
 1635 0a1e 4FF48072 		mov	r2, #256
 1636 0a22 B0E7     		b	.L43
 1637              	.L210:
 1638 0a24 4FF48072 		mov	r2, #256
 1639 0a28 ADE7     		b	.L43
 1640              	.L211:
 1641 0a2a 4FF48072 		mov	r2, #256
 1642 0a2e AAE7     		b	.L43
 1643              	.L212:
 1644 0a30 4FF48072 		mov	r2, #256
 1645 0a34 A7E7     		b	.L43
 1646              	.L213:
 1647 0a36 4FF48022 		mov	r2, #262144
 1648 0a3a A4E7     		b	.L43
 1649              	.L214:
 1650 0a3c 4FF48022 		mov	r2, #262144
 1651 0a40 A1E7     		b	.L43
 1652              	.L215:
 1653 0a42 4FF48022 		mov	r2, #262144
 1654 0a46 9EE7     		b	.L43
 1655              	.L42:
 195:Drivers/STM32F7xx_HAL_Driver/Src/stm32f7xx_hal_dma_ex.c ****     __HAL_DMA_CLEAR_FLAG (hdma, __HAL_DMA_GET_FE_FLAG_INDEX(hdma));
 1656              		.loc 1 195 5 discriminator 2 view .LVU320
 1657 0a48 934A     		ldr	r2, .L331+8
 1658 0a4a 9342     		cmp	r3, r2
 1659 0a4c 53D9     		bls	.L45
 195:Drivers/STM32F7xx_HAL_Driver/Src/stm32f7xx_hal_dma_ex.c ****     __HAL_DMA_CLEAR_FLAG (hdma, __HAL_DMA_GET_FE_FLAG_INDEX(hdma));
 1660              		.loc 1 195 5 discriminator 51 view .LVU321
 1661 0a4e A83A     		subs	r2, r2, #168
 1662 0a50 9342     		cmp	r3, r2
 1663 0a52 31D0     		beq	.L217
 195:Drivers/STM32F7xx_HAL_Driver/Src/stm32f7xx_hal_dma_ex.c ****     __HAL_DMA_CLEAR_FLAG (hdma, __HAL_DMA_GET_FE_FLAG_INDEX(hdma));
 1664              		.loc 1 195 5 discriminator 53 view .LVU322
 1665 0a54 02F58062 		add	r2, r2, #1024
 1666 0a58 9342     		cmp	r3, r2
 1667 0a5a 31D0     		beq	.L218
 195:Drivers/STM32F7xx_HAL_Driver/Src/stm32f7xx_hal_dma_ex.c ****     __HAL_DMA_CLEAR_FLAG (hdma, __HAL_DMA_GET_FE_FLAG_INDEX(hdma));
 1668              		.loc 1 195 5 discriminator 55 view .LVU323
 1669 0a5c A2F56872 		sub	r2, r2, #928
 1670 0a60 9342     		cmp	r3, r2
 1671 0a62 2FD0     		beq	.L219
 195:Drivers/STM32F7xx_HAL_Driver/Src/stm32f7xx_hal_dma_ex.c ****     __HAL_DMA_CLEAR_FLAG (hdma, __HAL_DMA_GET_FE_FLAG_INDEX(hdma));
 1672              		.loc 1 195 5 discriminator 57 view .LVU324
 1673 0a64 02F58062 		add	r2, r2, #1024
 1674 0a68 9342     		cmp	r3, r2
 1675 0a6a 2DD0     		beq	.L220
 195:Drivers/STM32F7xx_HAL_Driver/Src/stm32f7xx_hal_dma_ex.c ****     __HAL_DMA_CLEAR_FLAG (hdma, __HAL_DMA_GET_FE_FLAG_INDEX(hdma));
 1676              		.loc 1 195 5 discriminator 59 view .LVU325
 1677 0a6c A2F58962 		sub	r2, r2, #1096
 1678 0a70 9342     		cmp	r3, r2
 1679 0a72 2BD0     		beq	.L221
ARM GAS  C:\Users\Legend\AppData\Local\Temp\cceZzDEz.s 			page 41


 195:Drivers/STM32F7xx_HAL_Driver/Src/stm32f7xx_hal_dma_ex.c ****     __HAL_DMA_CLEAR_FLAG (hdma, __HAL_DMA_GET_FE_FLAG_INDEX(hdma));
 1680              		.loc 1 195 5 discriminator 61 view .LVU326
 1681 0a74 02F58062 		add	r2, r2, #1024
 1682 0a78 9342     		cmp	r3, r2
 1683 0a7a 2AD0     		beq	.L222
 195:Drivers/STM32F7xx_HAL_Driver/Src/stm32f7xx_hal_dma_ex.c ****     __HAL_DMA_CLEAR_FLAG (hdma, __HAL_DMA_GET_FE_FLAG_INDEX(hdma));
 1684              		.loc 1 195 5 discriminator 63 view .LVU327
 1685 0a7c A2F56872 		sub	r2, r2, #928
 1686 0a80 9342     		cmp	r3, r2
 1687 0a82 29D0     		beq	.L223
 195:Drivers/STM32F7xx_HAL_Driver/Src/stm32f7xx_hal_dma_ex.c ****     __HAL_DMA_CLEAR_FLAG (hdma, __HAL_DMA_GET_FE_FLAG_INDEX(hdma));
 1688              		.loc 1 195 5 discriminator 65 view .LVU328
 1689 0a84 02F58062 		add	r2, r2, #1024
 1690 0a88 9342     		cmp	r3, r2
 1691 0a8a 28D0     		beq	.L224
 195:Drivers/STM32F7xx_HAL_Driver/Src/stm32f7xx_hal_dma_ex.c ****     __HAL_DMA_CLEAR_FLAG (hdma, __HAL_DMA_GET_FE_FLAG_INDEX(hdma));
 1692              		.loc 1 195 5 discriminator 67 view .LVU329
 1693 0a8c A2F58962 		sub	r2, r2, #1096
 1694 0a90 9342     		cmp	r3, r2
 1695 0a92 27D0     		beq	.L225
 195:Drivers/STM32F7xx_HAL_Driver/Src/stm32f7xx_hal_dma_ex.c ****     __HAL_DMA_CLEAR_FLAG (hdma, __HAL_DMA_GET_FE_FLAG_INDEX(hdma));
 1696              		.loc 1 195 5 discriminator 69 view .LVU330
 1697 0a94 02F58062 		add	r2, r2, #1024
 1698 0a98 9342     		cmp	r3, r2
 1699 0a9a 26D0     		beq	.L226
 195:Drivers/STM32F7xx_HAL_Driver/Src/stm32f7xx_hal_dma_ex.c ****     __HAL_DMA_CLEAR_FLAG (hdma, __HAL_DMA_GET_FE_FLAG_INDEX(hdma));
 1700              		.loc 1 195 5 discriminator 71 view .LVU331
 1701 0a9c A2F56872 		sub	r2, r2, #928
 1702 0aa0 9342     		cmp	r3, r2
 1703 0aa2 25D0     		beq	.L227
 195:Drivers/STM32F7xx_HAL_Driver/Src/stm32f7xx_hal_dma_ex.c ****     __HAL_DMA_CLEAR_FLAG (hdma, __HAL_DMA_GET_FE_FLAG_INDEX(hdma));
 1704              		.loc 1 195 5 discriminator 73 view .LVU332
 1705 0aa4 02F58062 		add	r2, r2, #1024
 1706 0aa8 9342     		cmp	r3, r2
 1707 0aaa 02D0     		beq	.L318
 195:Drivers/STM32F7xx_HAL_Driver/Src/stm32f7xx_hal_dma_ex.c ****     __HAL_DMA_CLEAR_FLAG (hdma, __HAL_DMA_GET_FE_FLAG_INDEX(hdma));
 1708              		.loc 1 195 5 view .LVU333
 1709 0aac 4FF08072 		mov	r2, #16777216
 1710 0ab0 03E0     		b	.L46
 1711              	.L318:
 1712 0ab2 4FF48022 		mov	r2, #262144
 1713 0ab6 00E0     		b	.L46
 1714              	.L217:
 1715 0ab8 0422     		movs	r2, #4
 1716              	.L46:
 195:Drivers/STM32F7xx_HAL_Driver/Src/stm32f7xx_hal_dma_ex.c ****     __HAL_DMA_CLEAR_FLAG (hdma, __HAL_DMA_GET_FE_FLAG_INDEX(hdma));
 1717              		.loc 1 195 5 discriminator 100 view .LVU334
 1718 0aba 754B     		ldr	r3, .L331
 1719 0abc 9A60     		str	r2, [r3, #8]
 1720 0abe 64E7     		b	.L44
 1721              	.L218:
 195:Drivers/STM32F7xx_HAL_Driver/Src/stm32f7xx_hal_dma_ex.c ****     __HAL_DMA_CLEAR_FLAG (hdma, __HAL_DMA_GET_FE_FLAG_INDEX(hdma));
 1722              		.loc 1 195 5 view .LVU335
 1723 0ac0 0422     		movs	r2, #4
 1724 0ac2 FAE7     		b	.L46
 1725              	.L219:
 1726 0ac4 0422     		movs	r2, #4
ARM GAS  C:\Users\Legend\AppData\Local\Temp\cceZzDEz.s 			page 42


 1727 0ac6 F8E7     		b	.L46
 1728              	.L220:
 1729 0ac8 0422     		movs	r2, #4
 1730 0aca F6E7     		b	.L46
 1731              	.L221:
 1732 0acc 4FF48072 		mov	r2, #256
 1733 0ad0 F3E7     		b	.L46
 1734              	.L222:
 1735 0ad2 4FF48072 		mov	r2, #256
 1736 0ad6 F0E7     		b	.L46
 1737              	.L223:
 1738 0ad8 4FF48072 		mov	r2, #256
 1739 0adc EDE7     		b	.L46
 1740              	.L224:
 1741 0ade 4FF48072 		mov	r2, #256
 1742 0ae2 EAE7     		b	.L46
 1743              	.L225:
 1744 0ae4 4FF48022 		mov	r2, #262144
 1745 0ae8 E7E7     		b	.L46
 1746              	.L226:
 1747 0aea 4FF48022 		mov	r2, #262144
 1748 0aee E4E7     		b	.L46
 1749              	.L227:
 1750 0af0 4FF48022 		mov	r2, #262144
 1751 0af4 E1E7     		b	.L46
 1752              	.L45:
 195:Drivers/STM32F7xx_HAL_Driver/Src/stm32f7xx_hal_dma_ex.c ****     __HAL_DMA_CLEAR_FLAG (hdma, __HAL_DMA_GET_FE_FLAG_INDEX(hdma));
 1753              		.loc 1 195 5 discriminator 52 view .LVU336
 1754 0af6 694A     		ldr	r2, .L331+12
 1755 0af8 9342     		cmp	r3, r2
 1756 0afa 53D9     		bls	.L47
 195:Drivers/STM32F7xx_HAL_Driver/Src/stm32f7xx_hal_dma_ex.c ****     __HAL_DMA_CLEAR_FLAG (hdma, __HAL_DMA_GET_FE_FLAG_INDEX(hdma));
 1757              		.loc 1 195 5 discriminator 102 view .LVU337
 1758 0afc 483A     		subs	r2, r2, #72
 1759 0afe 9342     		cmp	r3, r2
 1760 0b00 31D0     		beq	.L229
 195:Drivers/STM32F7xx_HAL_Driver/Src/stm32f7xx_hal_dma_ex.c ****     __HAL_DMA_CLEAR_FLAG (hdma, __HAL_DMA_GET_FE_FLAG_INDEX(hdma));
 1761              		.loc 1 195 5 discriminator 104 view .LVU338
 1762 0b02 02F58062 		add	r2, r2, #1024
 1763 0b06 9342     		cmp	r3, r2
 1764 0b08 31D0     		beq	.L230
 195:Drivers/STM32F7xx_HAL_Driver/Src/stm32f7xx_hal_dma_ex.c ****     __HAL_DMA_CLEAR_FLAG (hdma, __HAL_DMA_GET_FE_FLAG_INDEX(hdma));
 1765              		.loc 1 195 5 discriminator 106 view .LVU339
 1766 0b0a A2F56872 		sub	r2, r2, #928
 1767 0b0e 9342     		cmp	r3, r2
 1768 0b10 2FD0     		beq	.L231
 195:Drivers/STM32F7xx_HAL_Driver/Src/stm32f7xx_hal_dma_ex.c ****     __HAL_DMA_CLEAR_FLAG (hdma, __HAL_DMA_GET_FE_FLAG_INDEX(hdma));
 1769              		.loc 1 195 5 discriminator 108 view .LVU340
 1770 0b12 02F58062 		add	r2, r2, #1024
 1771 0b16 9342     		cmp	r3, r2
 1772 0b18 2DD0     		beq	.L232
 195:Drivers/STM32F7xx_HAL_Driver/Src/stm32f7xx_hal_dma_ex.c ****     __HAL_DMA_CLEAR_FLAG (hdma, __HAL_DMA_GET_FE_FLAG_INDEX(hdma));
 1773              		.loc 1 195 5 discriminator 110 view .LVU341
 1774 0b1a A2F58962 		sub	r2, r2, #1096
 1775 0b1e 9342     		cmp	r3, r2
 1776 0b20 2BD0     		beq	.L233
 195:Drivers/STM32F7xx_HAL_Driver/Src/stm32f7xx_hal_dma_ex.c ****     __HAL_DMA_CLEAR_FLAG (hdma, __HAL_DMA_GET_FE_FLAG_INDEX(hdma));
ARM GAS  C:\Users\Legend\AppData\Local\Temp\cceZzDEz.s 			page 43


 1777              		.loc 1 195 5 discriminator 112 view .LVU342
 1778 0b22 02F58062 		add	r2, r2, #1024
 1779 0b26 9342     		cmp	r3, r2
 1780 0b28 2AD0     		beq	.L234
 195:Drivers/STM32F7xx_HAL_Driver/Src/stm32f7xx_hal_dma_ex.c ****     __HAL_DMA_CLEAR_FLAG (hdma, __HAL_DMA_GET_FE_FLAG_INDEX(hdma));
 1781              		.loc 1 195 5 discriminator 114 view .LVU343
 1782 0b2a A2F56872 		sub	r2, r2, #928
 1783 0b2e 9342     		cmp	r3, r2
 1784 0b30 29D0     		beq	.L235
 195:Drivers/STM32F7xx_HAL_Driver/Src/stm32f7xx_hal_dma_ex.c ****     __HAL_DMA_CLEAR_FLAG (hdma, __HAL_DMA_GET_FE_FLAG_INDEX(hdma));
 1785              		.loc 1 195 5 discriminator 116 view .LVU344
 1786 0b32 02F58062 		add	r2, r2, #1024
 1787 0b36 9342     		cmp	r3, r2
 1788 0b38 28D0     		beq	.L236
 195:Drivers/STM32F7xx_HAL_Driver/Src/stm32f7xx_hal_dma_ex.c ****     __HAL_DMA_CLEAR_FLAG (hdma, __HAL_DMA_GET_FE_FLAG_INDEX(hdma));
 1789              		.loc 1 195 5 discriminator 118 view .LVU345
 1790 0b3a A2F58962 		sub	r2, r2, #1096
 1791 0b3e 9342     		cmp	r3, r2
 1792 0b40 27D0     		beq	.L237
 195:Drivers/STM32F7xx_HAL_Driver/Src/stm32f7xx_hal_dma_ex.c ****     __HAL_DMA_CLEAR_FLAG (hdma, __HAL_DMA_GET_FE_FLAG_INDEX(hdma));
 1793              		.loc 1 195 5 discriminator 120 view .LVU346
 1794 0b42 02F58062 		add	r2, r2, #1024
 1795 0b46 9342     		cmp	r3, r2
 1796 0b48 26D0     		beq	.L238
 195:Drivers/STM32F7xx_HAL_Driver/Src/stm32f7xx_hal_dma_ex.c ****     __HAL_DMA_CLEAR_FLAG (hdma, __HAL_DMA_GET_FE_FLAG_INDEX(hdma));
 1797              		.loc 1 195 5 discriminator 122 view .LVU347
 1798 0b4a A2F56872 		sub	r2, r2, #928
 1799 0b4e 9342     		cmp	r3, r2
 1800 0b50 25D0     		beq	.L239
 195:Drivers/STM32F7xx_HAL_Driver/Src/stm32f7xx_hal_dma_ex.c ****     __HAL_DMA_CLEAR_FLAG (hdma, __HAL_DMA_GET_FE_FLAG_INDEX(hdma));
 1801              		.loc 1 195 5 discriminator 124 view .LVU348
 1802 0b52 02F58062 		add	r2, r2, #1024
 1803 0b56 9342     		cmp	r3, r2
 1804 0b58 02D0     		beq	.L319
 195:Drivers/STM32F7xx_HAL_Driver/Src/stm32f7xx_hal_dma_ex.c ****     __HAL_DMA_CLEAR_FLAG (hdma, __HAL_DMA_GET_FE_FLAG_INDEX(hdma));
 1805              		.loc 1 195 5 view .LVU349
 1806 0b5a 4FF08073 		mov	r3, #16777216
 1807 0b5e 03E0     		b	.L48
 1808              	.L319:
 1809 0b60 4FF48023 		mov	r3, #262144
 1810 0b64 00E0     		b	.L48
 1811              	.L229:
 1812 0b66 0423     		movs	r3, #4
 1813              	.L48:
 195:Drivers/STM32F7xx_HAL_Driver/Src/stm32f7xx_hal_dma_ex.c ****     __HAL_DMA_CLEAR_FLAG (hdma, __HAL_DMA_GET_FE_FLAG_INDEX(hdma));
 1814              		.loc 1 195 5 discriminator 151 view .LVU350
 1815 0b68 4D4A     		ldr	r2, .L331+16
 1816 0b6a D360     		str	r3, [r2, #12]
 1817 0b6c 0DE7     		b	.L44
 1818              	.L230:
 195:Drivers/STM32F7xx_HAL_Driver/Src/stm32f7xx_hal_dma_ex.c ****     __HAL_DMA_CLEAR_FLAG (hdma, __HAL_DMA_GET_FE_FLAG_INDEX(hdma));
 1819              		.loc 1 195 5 view .LVU351
 1820 0b6e 0423     		movs	r3, #4
 1821 0b70 FAE7     		b	.L48
 1822              	.L231:
 1823 0b72 0423     		movs	r3, #4
 1824 0b74 F8E7     		b	.L48
ARM GAS  C:\Users\Legend\AppData\Local\Temp\cceZzDEz.s 			page 44


 1825              	.L232:
 1826 0b76 0423     		movs	r3, #4
 1827 0b78 F6E7     		b	.L48
 1828              	.L233:
 1829 0b7a 4FF48073 		mov	r3, #256
 1830 0b7e F3E7     		b	.L48
 1831              	.L234:
 1832 0b80 4FF48073 		mov	r3, #256
 1833 0b84 F0E7     		b	.L48
 1834              	.L235:
 1835 0b86 4FF48073 		mov	r3, #256
 1836 0b8a EDE7     		b	.L48
 1837              	.L236:
 1838 0b8c 4FF48073 		mov	r3, #256
 1839 0b90 EAE7     		b	.L48
 1840              	.L237:
 1841 0b92 4FF48023 		mov	r3, #262144
 1842 0b96 E7E7     		b	.L48
 1843              	.L238:
 1844 0b98 4FF48023 		mov	r3, #262144
 1845 0b9c E4E7     		b	.L48
 1846              	.L239:
 1847 0b9e 4FF48023 		mov	r3, #262144
 1848 0ba2 E1E7     		b	.L48
 1849              	.L47:
 195:Drivers/STM32F7xx_HAL_Driver/Src/stm32f7xx_hal_dma_ex.c ****     __HAL_DMA_CLEAR_FLAG (hdma, __HAL_DMA_GET_FE_FLAG_INDEX(hdma));
 1850              		.loc 1 195 5 discriminator 103 view .LVU352
 1851 0ba4 3F4A     		ldr	r2, .L331+20
 1852 0ba6 9342     		cmp	r3, r2
 1853 0ba8 31D0     		beq	.L241
 195:Drivers/STM32F7xx_HAL_Driver/Src/stm32f7xx_hal_dma_ex.c ****     __HAL_DMA_CLEAR_FLAG (hdma, __HAL_DMA_GET_FE_FLAG_INDEX(hdma));
 1854              		.loc 1 195 5 discriminator 153 view .LVU353
 1855 0baa 02F58062 		add	r2, r2, #1024
 1856 0bae 9342     		cmp	r3, r2
 1857 0bb0 31D0     		beq	.L242
 195:Drivers/STM32F7xx_HAL_Driver/Src/stm32f7xx_hal_dma_ex.c ****     __HAL_DMA_CLEAR_FLAG (hdma, __HAL_DMA_GET_FE_FLAG_INDEX(hdma));
 1858              		.loc 1 195 5 discriminator 155 view .LVU354
 1859 0bb2 A2F56872 		sub	r2, r2, #928
 1860 0bb6 9342     		cmp	r3, r2
 1861 0bb8 2FD0     		beq	.L243
 195:Drivers/STM32F7xx_HAL_Driver/Src/stm32f7xx_hal_dma_ex.c ****     __HAL_DMA_CLEAR_FLAG (hdma, __HAL_DMA_GET_FE_FLAG_INDEX(hdma));
 1862              		.loc 1 195 5 discriminator 157 view .LVU355
 1863 0bba 02F58062 		add	r2, r2, #1024
 1864 0bbe 9342     		cmp	r3, r2
 1865 0bc0 2DD0     		beq	.L244
 195:Drivers/STM32F7xx_HAL_Driver/Src/stm32f7xx_hal_dma_ex.c ****     __HAL_DMA_CLEAR_FLAG (hdma, __HAL_DMA_GET_FE_FLAG_INDEX(hdma));
 1866              		.loc 1 195 5 discriminator 159 view .LVU356
 1867 0bc2 A2F58962 		sub	r2, r2, #1096
 1868 0bc6 9342     		cmp	r3, r2
 1869 0bc8 2BD0     		beq	.L245
 195:Drivers/STM32F7xx_HAL_Driver/Src/stm32f7xx_hal_dma_ex.c ****     __HAL_DMA_CLEAR_FLAG (hdma, __HAL_DMA_GET_FE_FLAG_INDEX(hdma));
 1870              		.loc 1 195 5 discriminator 161 view .LVU357
 1871 0bca 02F58062 		add	r2, r2, #1024
 1872 0bce 9342     		cmp	r3, r2
 1873 0bd0 2AD0     		beq	.L246
 195:Drivers/STM32F7xx_HAL_Driver/Src/stm32f7xx_hal_dma_ex.c ****     __HAL_DMA_CLEAR_FLAG (hdma, __HAL_DMA_GET_FE_FLAG_INDEX(hdma));
 1874              		.loc 1 195 5 discriminator 163 view .LVU358
ARM GAS  C:\Users\Legend\AppData\Local\Temp\cceZzDEz.s 			page 45


 1875 0bd2 A2F56872 		sub	r2, r2, #928
 1876 0bd6 9342     		cmp	r3, r2
 1877 0bd8 29D0     		beq	.L247
 195:Drivers/STM32F7xx_HAL_Driver/Src/stm32f7xx_hal_dma_ex.c ****     __HAL_DMA_CLEAR_FLAG (hdma, __HAL_DMA_GET_FE_FLAG_INDEX(hdma));
 1878              		.loc 1 195 5 discriminator 165 view .LVU359
 1879 0bda 02F58062 		add	r2, r2, #1024
 1880 0bde 9342     		cmp	r3, r2
 1881 0be0 28D0     		beq	.L248
 195:Drivers/STM32F7xx_HAL_Driver/Src/stm32f7xx_hal_dma_ex.c ****     __HAL_DMA_CLEAR_FLAG (hdma, __HAL_DMA_GET_FE_FLAG_INDEX(hdma));
 1882              		.loc 1 195 5 discriminator 167 view .LVU360
 1883 0be2 A2F58962 		sub	r2, r2, #1096
 1884 0be6 9342     		cmp	r3, r2
 1885 0be8 27D0     		beq	.L249
 195:Drivers/STM32F7xx_HAL_Driver/Src/stm32f7xx_hal_dma_ex.c ****     __HAL_DMA_CLEAR_FLAG (hdma, __HAL_DMA_GET_FE_FLAG_INDEX(hdma));
 1886              		.loc 1 195 5 discriminator 169 view .LVU361
 1887 0bea 02F58062 		add	r2, r2, #1024
 1888 0bee 9342     		cmp	r3, r2
 1889 0bf0 26D0     		beq	.L250
 195:Drivers/STM32F7xx_HAL_Driver/Src/stm32f7xx_hal_dma_ex.c ****     __HAL_DMA_CLEAR_FLAG (hdma, __HAL_DMA_GET_FE_FLAG_INDEX(hdma));
 1890              		.loc 1 195 5 discriminator 171 view .LVU362
 1891 0bf2 A2F56872 		sub	r2, r2, #928
 1892 0bf6 9342     		cmp	r3, r2
 1893 0bf8 25D0     		beq	.L251
 195:Drivers/STM32F7xx_HAL_Driver/Src/stm32f7xx_hal_dma_ex.c ****     __HAL_DMA_CLEAR_FLAG (hdma, __HAL_DMA_GET_FE_FLAG_INDEX(hdma));
 1894              		.loc 1 195 5 discriminator 173 view .LVU363
 1895 0bfa 02F58062 		add	r2, r2, #1024
 1896 0bfe 9342     		cmp	r3, r2
 1897 0c00 02D0     		beq	.L320
 195:Drivers/STM32F7xx_HAL_Driver/Src/stm32f7xx_hal_dma_ex.c ****     __HAL_DMA_CLEAR_FLAG (hdma, __HAL_DMA_GET_FE_FLAG_INDEX(hdma));
 1898              		.loc 1 195 5 view .LVU364
 1899 0c02 4FF08073 		mov	r3, #16777216
 1900 0c06 03E0     		b	.L49
 1901              	.L320:
 1902 0c08 4FF48023 		mov	r3, #262144
 1903 0c0c 00E0     		b	.L49
 1904              	.L241:
 1905 0c0e 0423     		movs	r3, #4
 1906              	.L49:
 195:Drivers/STM32F7xx_HAL_Driver/Src/stm32f7xx_hal_dma_ex.c ****     __HAL_DMA_CLEAR_FLAG (hdma, __HAL_DMA_GET_FE_FLAG_INDEX(hdma));
 1907              		.loc 1 195 5 discriminator 200 view .LVU365
 1908 0c10 234A     		ldr	r2, .L331+16
 1909 0c12 9360     		str	r3, [r2, #8]
 1910 0c14 B9E6     		b	.L44
 1911              	.L242:
 195:Drivers/STM32F7xx_HAL_Driver/Src/stm32f7xx_hal_dma_ex.c ****     __HAL_DMA_CLEAR_FLAG (hdma, __HAL_DMA_GET_FE_FLAG_INDEX(hdma));
 1912              		.loc 1 195 5 view .LVU366
 1913 0c16 0423     		movs	r3, #4
 1914 0c18 FAE7     		b	.L49
 1915              	.L243:
 1916 0c1a 0423     		movs	r3, #4
 1917 0c1c F8E7     		b	.L49
 1918              	.L244:
 1919 0c1e 0423     		movs	r3, #4
 1920 0c20 F6E7     		b	.L49
 1921              	.L245:
 1922 0c22 4FF48073 		mov	r3, #256
 1923 0c26 F3E7     		b	.L49
ARM GAS  C:\Users\Legend\AppData\Local\Temp\cceZzDEz.s 			page 46


 1924              	.L246:
 1925 0c28 4FF48073 		mov	r3, #256
 1926 0c2c F0E7     		b	.L49
 1927              	.L247:
 1928 0c2e 4FF48073 		mov	r3, #256
 1929 0c32 EDE7     		b	.L49
 1930              	.L248:
 1931 0c34 4FF48073 		mov	r3, #256
 1932 0c38 EAE7     		b	.L49
 1933              	.L249:
 1934 0c3a 4FF48023 		mov	r3, #262144
 1935 0c3e E7E7     		b	.L49
 1936              	.L250:
 1937 0c40 4FF48023 		mov	r3, #262144
 1938 0c44 E4E7     		b	.L49
 1939              	.L251:
 1940 0c46 4FF48023 		mov	r3, #262144
 1941 0c4a E1E7     		b	.L49
 1942              	.L317:
 196:Drivers/STM32F7xx_HAL_Driver/Src/stm32f7xx_hal_dma_ex.c ****     
 1943              		.loc 1 196 5 view .LVU367
 1944 0c4c 4FF48032 		mov	r2, #65536
 1945 0c50 00E0     		b	.L51
 1946              	.L253:
 1947 0c52 0122     		movs	r2, #1
 1948              	.L51:
 196:Drivers/STM32F7xx_HAL_Driver/Src/stm32f7xx_hal_dma_ex.c ****     
 1949              		.loc 1 196 5 discriminator 50 view .LVU368
 1950 0c54 0E4B     		ldr	r3, .L331
 1951 0c56 DA60     		str	r2, [r3, #12]
 1952              	.L52:
 199:Drivers/STM32F7xx_HAL_Driver/Src/stm32f7xx_hal_dma_ex.c ****     hdma->Instance->FCR |= DMA_IT_FE;
 1953              		.loc 1 199 5 is_stmt 1 view .LVU369
 199:Drivers/STM32F7xx_HAL_Driver/Src/stm32f7xx_hal_dma_ex.c ****     hdma->Instance->FCR |= DMA_IT_FE;
 1954              		.loc 1 199 9 is_stmt 0 view .LVU370
 1955 0c58 2268     		ldr	r2, [r4]
 199:Drivers/STM32F7xx_HAL_Driver/Src/stm32f7xx_hal_dma_ex.c ****     hdma->Instance->FCR |= DMA_IT_FE;
 1956              		.loc 1 199 25 view .LVU371
 1957 0c5a 1368     		ldr	r3, [r2]
 1958 0c5c 43F01603 		orr	r3, r3, #22
 1959 0c60 1360     		str	r3, [r2]
 200:Drivers/STM32F7xx_HAL_Driver/Src/stm32f7xx_hal_dma_ex.c ****     
 1960              		.loc 1 200 5 is_stmt 1 view .LVU372
 200:Drivers/STM32F7xx_HAL_Driver/Src/stm32f7xx_hal_dma_ex.c ****     
 1961              		.loc 1 200 9 is_stmt 0 view .LVU373
 1962 0c62 2268     		ldr	r2, [r4]
 200:Drivers/STM32F7xx_HAL_Driver/Src/stm32f7xx_hal_dma_ex.c ****     
 1963              		.loc 1 200 25 view .LVU374
 1964 0c64 5369     		ldr	r3, [r2, #20]
 1965 0c66 43F08003 		orr	r3, r3, #128
 1966 0c6a 5361     		str	r3, [r2, #20]
 202:Drivers/STM32F7xx_HAL_Driver/Src/stm32f7xx_hal_dma_ex.c ****     {
 1967              		.loc 1 202 5 is_stmt 1 view .LVU375
 202:Drivers/STM32F7xx_HAL_Driver/Src/stm32f7xx_hal_dma_ex.c ****     {
 1968              		.loc 1 202 13 is_stmt 0 view .LVU376
 1969 0c6c 236C     		ldr	r3, [r4, #64]
 202:Drivers/STM32F7xx_HAL_Driver/Src/stm32f7xx_hal_dma_ex.c ****     {
ARM GAS  C:\Users\Legend\AppData\Local\Temp\cceZzDEz.s 			page 47


 1970              		.loc 1 202 7 view .LVU377
 1971 0c6e 002B     		cmp	r3, #0
 1972 0c70 00F02781 		beq	.L321
 1973              	.L58:
 204:Drivers/STM32F7xx_HAL_Driver/Src/stm32f7xx_hal_dma_ex.c ****     }
 1974              		.loc 1 204 7 is_stmt 1 view .LVU378
 204:Drivers/STM32F7xx_HAL_Driver/Src/stm32f7xx_hal_dma_ex.c ****     }
 1975              		.loc 1 204 11 is_stmt 0 view .LVU379
 1976 0c74 2268     		ldr	r2, [r4]
 204:Drivers/STM32F7xx_HAL_Driver/Src/stm32f7xx_hal_dma_ex.c ****     }
 1977              		.loc 1 204 27 view .LVU380
 1978 0c76 1368     		ldr	r3, [r2]
 1979 0c78 43F00803 		orr	r3, r3, #8
 1980 0c7c 1360     		str	r3, [r2]
 1981              	.L59:
 208:Drivers/STM32F7xx_HAL_Driver/Src/stm32f7xx_hal_dma_ex.c ****   }
 1982              		.loc 1 208 5 is_stmt 1 view .LVU381
 1983 0c7e 2268     		ldr	r2, [r4]
 1984 0c80 1368     		ldr	r3, [r2]
 1985 0c82 43F00103 		orr	r3, r3, #1
 1986 0c86 1360     		str	r3, [r2]
 159:Drivers/STM32F7xx_HAL_Driver/Src/stm32f7xx_hal_dma_ex.c ****   
 1987              		.loc 1 159 21 is_stmt 0 view .LVU382
 1988 0c88 0020     		movs	r0, #0
 1989 0c8a FFF7CFB9 		b	.L16
 1990              	.L332:
 1991 0c8e 00BF     		.align	2
 1992              	.L331:
 1993 0c90 00640240 		.word	1073898496
 1994 0c94 58640240 		.word	1073898584
 1995 0c98 B8600240 		.word	1073897656
 1996 0c9c 58600240 		.word	1073897560
 1997 0ca0 00600240 		.word	1073897472
 1998 0ca4 10600240 		.word	1073897488
 1999              	.L254:
 196:Drivers/STM32F7xx_HAL_Driver/Src/stm32f7xx_hal_dma_ex.c ****     
 2000              		.loc 1 196 5 view .LVU383
 2001 0ca8 0122     		movs	r2, #1
 2002 0caa D3E7     		b	.L51
 2003              	.L255:
 2004 0cac 0122     		movs	r2, #1
 2005 0cae D1E7     		b	.L51
 2006              	.L256:
 2007 0cb0 0122     		movs	r2, #1
 2008 0cb2 CFE7     		b	.L51
 2009              	.L257:
 2010 0cb4 4022     		movs	r2, #64
 2011 0cb6 CDE7     		b	.L51
 2012              	.L258:
 2013 0cb8 4022     		movs	r2, #64
 2014 0cba CBE7     		b	.L51
 2015              	.L259:
 2016 0cbc 4022     		movs	r2, #64
 2017 0cbe C9E7     		b	.L51
 2018              	.L260:
 2019 0cc0 4022     		movs	r2, #64
 2020 0cc2 C7E7     		b	.L51
ARM GAS  C:\Users\Legend\AppData\Local\Temp\cceZzDEz.s 			page 48


 2021              	.L261:
 2022 0cc4 4FF48032 		mov	r2, #65536
 2023 0cc8 C4E7     		b	.L51
 2024              	.L262:
 2025 0cca 4FF48032 		mov	r2, #65536
 2026 0cce C1E7     		b	.L51
 2027              	.L263:
 2028 0cd0 4FF48032 		mov	r2, #65536
 2029 0cd4 BEE7     		b	.L51
 2030              	.L50:
 196:Drivers/STM32F7xx_HAL_Driver/Src/stm32f7xx_hal_dma_ex.c ****     
 2031              		.loc 1 196 5 discriminator 2 view .LVU384
 2032 0cd6 7F4A     		ldr	r2, .L333
 2033 0cd8 9342     		cmp	r3, r2
 2034 0cda 4FD9     		bls	.L53
 196:Drivers/STM32F7xx_HAL_Driver/Src/stm32f7xx_hal_dma_ex.c ****     
 2035              		.loc 1 196 5 discriminator 51 view .LVU385
 2036 0cdc A83A     		subs	r2, r2, #168
 2037 0cde 9342     		cmp	r3, r2
 2038 0ce0 31D0     		beq	.L265
 196:Drivers/STM32F7xx_HAL_Driver/Src/stm32f7xx_hal_dma_ex.c ****     
 2039              		.loc 1 196 5 discriminator 53 view .LVU386
 2040 0ce2 02F58062 		add	r2, r2, #1024
 2041 0ce6 9342     		cmp	r3, r2
 2042 0ce8 31D0     		beq	.L266
 196:Drivers/STM32F7xx_HAL_Driver/Src/stm32f7xx_hal_dma_ex.c ****     
 2043              		.loc 1 196 5 discriminator 55 view .LVU387
 2044 0cea A2F56872 		sub	r2, r2, #928
 2045 0cee 9342     		cmp	r3, r2
 2046 0cf0 2FD0     		beq	.L267
 196:Drivers/STM32F7xx_HAL_Driver/Src/stm32f7xx_hal_dma_ex.c ****     
 2047              		.loc 1 196 5 discriminator 57 view .LVU388
 2048 0cf2 02F58062 		add	r2, r2, #1024
 2049 0cf6 9342     		cmp	r3, r2
 2050 0cf8 2DD0     		beq	.L268
 196:Drivers/STM32F7xx_HAL_Driver/Src/stm32f7xx_hal_dma_ex.c ****     
 2051              		.loc 1 196 5 discriminator 59 view .LVU389
 2052 0cfa A2F58962 		sub	r2, r2, #1096
 2053 0cfe 9342     		cmp	r3, r2
 2054 0d00 2BD0     		beq	.L269
 196:Drivers/STM32F7xx_HAL_Driver/Src/stm32f7xx_hal_dma_ex.c ****     
 2055              		.loc 1 196 5 discriminator 61 view .LVU390
 2056 0d02 02F58062 		add	r2, r2, #1024
 2057 0d06 9342     		cmp	r3, r2
 2058 0d08 29D0     		beq	.L270
 196:Drivers/STM32F7xx_HAL_Driver/Src/stm32f7xx_hal_dma_ex.c ****     
 2059              		.loc 1 196 5 discriminator 63 view .LVU391
 2060 0d0a A2F56872 		sub	r2, r2, #928
 2061 0d0e 9342     		cmp	r3, r2
 2062 0d10 27D0     		beq	.L271
 196:Drivers/STM32F7xx_HAL_Driver/Src/stm32f7xx_hal_dma_ex.c ****     
 2063              		.loc 1 196 5 discriminator 65 view .LVU392
 2064 0d12 02F58062 		add	r2, r2, #1024
 2065 0d16 9342     		cmp	r3, r2
 2066 0d18 25D0     		beq	.L272
 196:Drivers/STM32F7xx_HAL_Driver/Src/stm32f7xx_hal_dma_ex.c ****     
 2067              		.loc 1 196 5 discriminator 67 view .LVU393
ARM GAS  C:\Users\Legend\AppData\Local\Temp\cceZzDEz.s 			page 49


 2068 0d1a A2F58962 		sub	r2, r2, #1096
 2069 0d1e 9342     		cmp	r3, r2
 2070 0d20 23D0     		beq	.L273
 196:Drivers/STM32F7xx_HAL_Driver/Src/stm32f7xx_hal_dma_ex.c ****     
 2071              		.loc 1 196 5 discriminator 69 view .LVU394
 2072 0d22 02F58062 		add	r2, r2, #1024
 2073 0d26 9342     		cmp	r3, r2
 2074 0d28 22D0     		beq	.L274
 196:Drivers/STM32F7xx_HAL_Driver/Src/stm32f7xx_hal_dma_ex.c ****     
 2075              		.loc 1 196 5 discriminator 71 view .LVU395
 2076 0d2a A2F56872 		sub	r2, r2, #928
 2077 0d2e 9342     		cmp	r3, r2
 2078 0d30 21D0     		beq	.L275
 196:Drivers/STM32F7xx_HAL_Driver/Src/stm32f7xx_hal_dma_ex.c ****     
 2079              		.loc 1 196 5 discriminator 73 view .LVU396
 2080 0d32 02F58062 		add	r2, r2, #1024
 2081 0d36 9342     		cmp	r3, r2
 2082 0d38 02D0     		beq	.L322
 196:Drivers/STM32F7xx_HAL_Driver/Src/stm32f7xx_hal_dma_ex.c ****     
 2083              		.loc 1 196 5 view .LVU397
 2084 0d3a 4FF48002 		mov	r2, #4194304
 2085 0d3e 03E0     		b	.L54
 2086              	.L322:
 2087 0d40 4FF48032 		mov	r2, #65536
 2088 0d44 00E0     		b	.L54
 2089              	.L265:
 2090 0d46 0122     		movs	r2, #1
 2091              	.L54:
 196:Drivers/STM32F7xx_HAL_Driver/Src/stm32f7xx_hal_dma_ex.c ****     
 2092              		.loc 1 196 5 discriminator 100 view .LVU398
 2093 0d48 634B     		ldr	r3, .L333+4
 2094 0d4a 9A60     		str	r2, [r3, #8]
 2095 0d4c 84E7     		b	.L52
 2096              	.L266:
 196:Drivers/STM32F7xx_HAL_Driver/Src/stm32f7xx_hal_dma_ex.c ****     
 2097              		.loc 1 196 5 view .LVU399
 2098 0d4e 0122     		movs	r2, #1
 2099 0d50 FAE7     		b	.L54
 2100              	.L267:
 2101 0d52 0122     		movs	r2, #1
 2102 0d54 F8E7     		b	.L54
 2103              	.L268:
 2104 0d56 0122     		movs	r2, #1
 2105 0d58 F6E7     		b	.L54
 2106              	.L269:
 2107 0d5a 4022     		movs	r2, #64
 2108 0d5c F4E7     		b	.L54
 2109              	.L270:
 2110 0d5e 4022     		movs	r2, #64
 2111 0d60 F2E7     		b	.L54
 2112              	.L271:
 2113 0d62 4022     		movs	r2, #64
 2114 0d64 F0E7     		b	.L54
 2115              	.L272:
 2116 0d66 4022     		movs	r2, #64
 2117 0d68 EEE7     		b	.L54
 2118              	.L273:
ARM GAS  C:\Users\Legend\AppData\Local\Temp\cceZzDEz.s 			page 50


 2119 0d6a 4FF48032 		mov	r2, #65536
 2120 0d6e EBE7     		b	.L54
 2121              	.L274:
 2122 0d70 4FF48032 		mov	r2, #65536
 2123 0d74 E8E7     		b	.L54
 2124              	.L275:
 2125 0d76 4FF48032 		mov	r2, #65536
 2126 0d7a E5E7     		b	.L54
 2127              	.L53:
 196:Drivers/STM32F7xx_HAL_Driver/Src/stm32f7xx_hal_dma_ex.c ****     
 2128              		.loc 1 196 5 discriminator 52 view .LVU400
 2129 0d7c 574A     		ldr	r2, .L333+8
 2130 0d7e 9342     		cmp	r3, r2
 2131 0d80 4FD9     		bls	.L55
 196:Drivers/STM32F7xx_HAL_Driver/Src/stm32f7xx_hal_dma_ex.c ****     
 2132              		.loc 1 196 5 discriminator 102 view .LVU401
 2133 0d82 483A     		subs	r2, r2, #72
 2134 0d84 9342     		cmp	r3, r2
 2135 0d86 31D0     		beq	.L277
 196:Drivers/STM32F7xx_HAL_Driver/Src/stm32f7xx_hal_dma_ex.c ****     
 2136              		.loc 1 196 5 discriminator 104 view .LVU402
 2137 0d88 02F58062 		add	r2, r2, #1024
 2138 0d8c 9342     		cmp	r3, r2
 2139 0d8e 31D0     		beq	.L278
 196:Drivers/STM32F7xx_HAL_Driver/Src/stm32f7xx_hal_dma_ex.c ****     
 2140              		.loc 1 196 5 discriminator 106 view .LVU403
 2141 0d90 A2F56872 		sub	r2, r2, #928
 2142 0d94 9342     		cmp	r3, r2
 2143 0d96 2FD0     		beq	.L279
 196:Drivers/STM32F7xx_HAL_Driver/Src/stm32f7xx_hal_dma_ex.c ****     
 2144              		.loc 1 196 5 discriminator 108 view .LVU404
 2145 0d98 02F58062 		add	r2, r2, #1024
 2146 0d9c 9342     		cmp	r3, r2
 2147 0d9e 2DD0     		beq	.L280
 196:Drivers/STM32F7xx_HAL_Driver/Src/stm32f7xx_hal_dma_ex.c ****     
 2148              		.loc 1 196 5 discriminator 110 view .LVU405
 2149 0da0 A2F58962 		sub	r2, r2, #1096
 2150 0da4 9342     		cmp	r3, r2
 2151 0da6 2BD0     		beq	.L281
 196:Drivers/STM32F7xx_HAL_Driver/Src/stm32f7xx_hal_dma_ex.c ****     
 2152              		.loc 1 196 5 discriminator 112 view .LVU406
 2153 0da8 02F58062 		add	r2, r2, #1024
 2154 0dac 9342     		cmp	r3, r2
 2155 0dae 29D0     		beq	.L282
 196:Drivers/STM32F7xx_HAL_Driver/Src/stm32f7xx_hal_dma_ex.c ****     
 2156              		.loc 1 196 5 discriminator 114 view .LVU407
 2157 0db0 A2F56872 		sub	r2, r2, #928
 2158 0db4 9342     		cmp	r3, r2
 2159 0db6 27D0     		beq	.L283
 196:Drivers/STM32F7xx_HAL_Driver/Src/stm32f7xx_hal_dma_ex.c ****     
 2160              		.loc 1 196 5 discriminator 116 view .LVU408
 2161 0db8 02F58062 		add	r2, r2, #1024
 2162 0dbc 9342     		cmp	r3, r2
 2163 0dbe 25D0     		beq	.L284
 196:Drivers/STM32F7xx_HAL_Driver/Src/stm32f7xx_hal_dma_ex.c ****     
 2164              		.loc 1 196 5 discriminator 118 view .LVU409
 2165 0dc0 A2F58962 		sub	r2, r2, #1096
ARM GAS  C:\Users\Legend\AppData\Local\Temp\cceZzDEz.s 			page 51


 2166 0dc4 9342     		cmp	r3, r2
 2167 0dc6 23D0     		beq	.L285
 196:Drivers/STM32F7xx_HAL_Driver/Src/stm32f7xx_hal_dma_ex.c ****     
 2168              		.loc 1 196 5 discriminator 120 view .LVU410
 2169 0dc8 02F58062 		add	r2, r2, #1024
 2170 0dcc 9342     		cmp	r3, r2
 2171 0dce 22D0     		beq	.L286
 196:Drivers/STM32F7xx_HAL_Driver/Src/stm32f7xx_hal_dma_ex.c ****     
 2172              		.loc 1 196 5 discriminator 122 view .LVU411
 2173 0dd0 A2F56872 		sub	r2, r2, #928
 2174 0dd4 9342     		cmp	r3, r2
 2175 0dd6 21D0     		beq	.L287
 196:Drivers/STM32F7xx_HAL_Driver/Src/stm32f7xx_hal_dma_ex.c ****     
 2176              		.loc 1 196 5 discriminator 124 view .LVU412
 2177 0dd8 02F58062 		add	r2, r2, #1024
 2178 0ddc 9342     		cmp	r3, r2
 2179 0dde 02D0     		beq	.L323
 196:Drivers/STM32F7xx_HAL_Driver/Src/stm32f7xx_hal_dma_ex.c ****     
 2180              		.loc 1 196 5 view .LVU413
 2181 0de0 4FF48003 		mov	r3, #4194304
 2182 0de4 03E0     		b	.L56
 2183              	.L323:
 2184 0de6 4FF48033 		mov	r3, #65536
 2185 0dea 00E0     		b	.L56
 2186              	.L277:
 2187 0dec 0123     		movs	r3, #1
 2188              	.L56:
 196:Drivers/STM32F7xx_HAL_Driver/Src/stm32f7xx_hal_dma_ex.c ****     
 2189              		.loc 1 196 5 discriminator 151 view .LVU414
 2190 0dee 3C4A     		ldr	r2, .L333+12
 2191 0df0 D360     		str	r3, [r2, #12]
 2192 0df2 31E7     		b	.L52
 2193              	.L278:
 196:Drivers/STM32F7xx_HAL_Driver/Src/stm32f7xx_hal_dma_ex.c ****     
 2194              		.loc 1 196 5 view .LVU415
 2195 0df4 0123     		movs	r3, #1
 2196 0df6 FAE7     		b	.L56
 2197              	.L279:
 2198 0df8 0123     		movs	r3, #1
 2199 0dfa F8E7     		b	.L56
 2200              	.L280:
 2201 0dfc 0123     		movs	r3, #1
 2202 0dfe F6E7     		b	.L56
 2203              	.L281:
 2204 0e00 4023     		movs	r3, #64
 2205 0e02 F4E7     		b	.L56
 2206              	.L282:
 2207 0e04 4023     		movs	r3, #64
 2208 0e06 F2E7     		b	.L56
 2209              	.L283:
 2210 0e08 4023     		movs	r3, #64
 2211 0e0a F0E7     		b	.L56
 2212              	.L284:
 2213 0e0c 4023     		movs	r3, #64
 2214 0e0e EEE7     		b	.L56
 2215              	.L285:
 2216 0e10 4FF48033 		mov	r3, #65536
ARM GAS  C:\Users\Legend\AppData\Local\Temp\cceZzDEz.s 			page 52


 2217 0e14 EBE7     		b	.L56
 2218              	.L286:
 2219 0e16 4FF48033 		mov	r3, #65536
 2220 0e1a E8E7     		b	.L56
 2221              	.L287:
 2222 0e1c 4FF48033 		mov	r3, #65536
 2223 0e20 E5E7     		b	.L56
 2224              	.L55:
 196:Drivers/STM32F7xx_HAL_Driver/Src/stm32f7xx_hal_dma_ex.c ****     
 2225              		.loc 1 196 5 discriminator 103 view .LVU416
 2226 0e22 304A     		ldr	r2, .L333+16
 2227 0e24 9342     		cmp	r3, r2
 2228 0e26 31D0     		beq	.L289
 196:Drivers/STM32F7xx_HAL_Driver/Src/stm32f7xx_hal_dma_ex.c ****     
 2229              		.loc 1 196 5 discriminator 153 view .LVU417
 2230 0e28 02F58062 		add	r2, r2, #1024
 2231 0e2c 9342     		cmp	r3, r2
 2232 0e2e 31D0     		beq	.L290
 196:Drivers/STM32F7xx_HAL_Driver/Src/stm32f7xx_hal_dma_ex.c ****     
 2233              		.loc 1 196 5 discriminator 155 view .LVU418
 2234 0e30 A2F56872 		sub	r2, r2, #928
 2235 0e34 9342     		cmp	r3, r2
 2236 0e36 2FD0     		beq	.L291
 196:Drivers/STM32F7xx_HAL_Driver/Src/stm32f7xx_hal_dma_ex.c ****     
 2237              		.loc 1 196 5 discriminator 157 view .LVU419
 2238 0e38 02F58062 		add	r2, r2, #1024
 2239 0e3c 9342     		cmp	r3, r2
 2240 0e3e 2DD0     		beq	.L292
 196:Drivers/STM32F7xx_HAL_Driver/Src/stm32f7xx_hal_dma_ex.c ****     
 2241              		.loc 1 196 5 discriminator 159 view .LVU420
 2242 0e40 A2F58962 		sub	r2, r2, #1096
 2243 0e44 9342     		cmp	r3, r2
 2244 0e46 2BD0     		beq	.L293
 196:Drivers/STM32F7xx_HAL_Driver/Src/stm32f7xx_hal_dma_ex.c ****     
 2245              		.loc 1 196 5 discriminator 161 view .LVU421
 2246 0e48 02F58062 		add	r2, r2, #1024
 2247 0e4c 9342     		cmp	r3, r2
 2248 0e4e 29D0     		beq	.L294
 196:Drivers/STM32F7xx_HAL_Driver/Src/stm32f7xx_hal_dma_ex.c ****     
 2249              		.loc 1 196 5 discriminator 163 view .LVU422
 2250 0e50 A2F56872 		sub	r2, r2, #928
 2251 0e54 9342     		cmp	r3, r2
 2252 0e56 27D0     		beq	.L295
 196:Drivers/STM32F7xx_HAL_Driver/Src/stm32f7xx_hal_dma_ex.c ****     
 2253              		.loc 1 196 5 discriminator 165 view .LVU423
 2254 0e58 02F58062 		add	r2, r2, #1024
 2255 0e5c 9342     		cmp	r3, r2
 2256 0e5e 25D0     		beq	.L296
 196:Drivers/STM32F7xx_HAL_Driver/Src/stm32f7xx_hal_dma_ex.c ****     
 2257              		.loc 1 196 5 discriminator 167 view .LVU424
 2258 0e60 A2F58962 		sub	r2, r2, #1096
 2259 0e64 9342     		cmp	r3, r2
 2260 0e66 23D0     		beq	.L297
 196:Drivers/STM32F7xx_HAL_Driver/Src/stm32f7xx_hal_dma_ex.c ****     
 2261              		.loc 1 196 5 discriminator 169 view .LVU425
 2262 0e68 02F58062 		add	r2, r2, #1024
 2263 0e6c 9342     		cmp	r3, r2
ARM GAS  C:\Users\Legend\AppData\Local\Temp\cceZzDEz.s 			page 53


 2264 0e6e 22D0     		beq	.L298
 196:Drivers/STM32F7xx_HAL_Driver/Src/stm32f7xx_hal_dma_ex.c ****     
 2265              		.loc 1 196 5 discriminator 171 view .LVU426
 2266 0e70 A2F56872 		sub	r2, r2, #928
 2267 0e74 9342     		cmp	r3, r2
 2268 0e76 21D0     		beq	.L299
 196:Drivers/STM32F7xx_HAL_Driver/Src/stm32f7xx_hal_dma_ex.c ****     
 2269              		.loc 1 196 5 discriminator 173 view .LVU427
 2270 0e78 02F58062 		add	r2, r2, #1024
 2271 0e7c 9342     		cmp	r3, r2
 2272 0e7e 02D0     		beq	.L324
 196:Drivers/STM32F7xx_HAL_Driver/Src/stm32f7xx_hal_dma_ex.c ****     
 2273              		.loc 1 196 5 view .LVU428
 2274 0e80 4FF48003 		mov	r3, #4194304
 2275 0e84 03E0     		b	.L57
 2276              	.L324:
 2277 0e86 4FF48033 		mov	r3, #65536
 2278 0e8a 00E0     		b	.L57
 2279              	.L289:
 2280 0e8c 0123     		movs	r3, #1
 2281              	.L57:
 196:Drivers/STM32F7xx_HAL_Driver/Src/stm32f7xx_hal_dma_ex.c ****     
 2282              		.loc 1 196 5 discriminator 200 view .LVU429
 2283 0e8e 144A     		ldr	r2, .L333+12
 2284 0e90 9360     		str	r3, [r2, #8]
 2285 0e92 E1E6     		b	.L52
 2286              	.L290:
 196:Drivers/STM32F7xx_HAL_Driver/Src/stm32f7xx_hal_dma_ex.c ****     
 2287              		.loc 1 196 5 view .LVU430
 2288 0e94 0123     		movs	r3, #1
 2289 0e96 FAE7     		b	.L57
 2290              	.L291:
 2291 0e98 0123     		movs	r3, #1
 2292 0e9a F8E7     		b	.L57
 2293              	.L292:
 2294 0e9c 0123     		movs	r3, #1
 2295 0e9e F6E7     		b	.L57
 2296              	.L293:
 2297 0ea0 4023     		movs	r3, #64
 2298 0ea2 F4E7     		b	.L57
 2299              	.L294:
 2300 0ea4 4023     		movs	r3, #64
 2301 0ea6 F2E7     		b	.L57
 2302              	.L295:
 2303 0ea8 4023     		movs	r3, #64
 2304 0eaa F0E7     		b	.L57
 2305              	.L296:
 2306 0eac 4023     		movs	r3, #64
 2307 0eae EEE7     		b	.L57
 2308              	.L297:
 2309 0eb0 4FF48033 		mov	r3, #65536
 2310 0eb4 EBE7     		b	.L57
 2311              	.L298:
 2312 0eb6 4FF48033 		mov	r3, #65536
 2313 0eba E8E7     		b	.L57
 2314              	.L299:
 2315 0ebc 4FF48033 		mov	r3, #65536
ARM GAS  C:\Users\Legend\AppData\Local\Temp\cceZzDEz.s 			page 54


 2316 0ec0 E5E7     		b	.L57
 2317              	.L321:
 202:Drivers/STM32F7xx_HAL_Driver/Src/stm32f7xx_hal_dma_ex.c ****     {
 2318              		.loc 1 202 53 discriminator 1 view .LVU431
 2319 0ec2 A36C     		ldr	r3, [r4, #72]
 202:Drivers/STM32F7xx_HAL_Driver/Src/stm32f7xx_hal_dma_ex.c ****     {
 2320              		.loc 1 202 45 discriminator 1 view .LVU432
 2321 0ec4 002B     		cmp	r3, #0
 2322 0ec6 7FF4D5AE 		bne	.L58
 2323 0eca D8E6     		b	.L59
 2324              	.LVL38:
 2325              	.L60:
 172:Drivers/STM32F7xx_HAL_Driver/Src/stm32f7xx_hal_dma_ex.c ****   
 2326              		.loc 1 172 3 view .LVU433
 2327 0ecc 0220     		movs	r0, #2
 2328 0ece FFF7ADB8 		b	.L16
 2329              	.L334:
 2330 0ed2 00BF     		.align	2
 2331              	.L333:
 2332 0ed4 B8600240 		.word	1073897656
 2333 0ed8 00640240 		.word	1073898496
 2334 0edc 58600240 		.word	1073897560
 2335 0ee0 00600240 		.word	1073897472
 2336 0ee4 10600240 		.word	1073897488
 2337              		.cfi_endproc
 2338              	.LFE142:
 2340              		.section	.text.HAL_DMAEx_ChangeMemory,"ax",%progbits
 2341              		.align	1
 2342              		.global	HAL_DMAEx_ChangeMemory
 2343              		.syntax unified
 2344              		.thumb
 2345              		.thumb_func
 2346              		.fpu fpv5-d16
 2348              	HAL_DMAEx_ChangeMemory:
 2349              	.LVL39:
 2350              	.LFB143:
 236:Drivers/STM32F7xx_HAL_Driver/Src/stm32f7xx_hal_dma_ex.c ****   if(memory == MEMORY0)
 2351              		.loc 1 236 1 is_stmt 1 view -0
 2352              		.cfi_startproc
 2353              		@ args = 0, pretend = 0, frame = 0
 2354              		@ frame_needed = 0, uses_anonymous_args = 0
 2355              		@ link register save eliminated.
 237:Drivers/STM32F7xx_HAL_Driver/Src/stm32f7xx_hal_dma_ex.c ****   {
 2356              		.loc 1 237 3 view .LVU435
 237:Drivers/STM32F7xx_HAL_Driver/Src/stm32f7xx_hal_dma_ex.c ****   {
 2357              		.loc 1 237 5 is_stmt 0 view .LVU436
 2358 0000 1AB9     		cbnz	r2, .L336
 240:Drivers/STM32F7xx_HAL_Driver/Src/stm32f7xx_hal_dma_ex.c ****   }
 2359              		.loc 1 240 5 is_stmt 1 view .LVU437
 240:Drivers/STM32F7xx_HAL_Driver/Src/stm32f7xx_hal_dma_ex.c ****   }
 2360              		.loc 1 240 9 is_stmt 0 view .LVU438
 2361 0002 0368     		ldr	r3, [r0]
 240:Drivers/STM32F7xx_HAL_Driver/Src/stm32f7xx_hal_dma_ex.c ****   }
 2362              		.loc 1 240 26 view .LVU439
 2363 0004 D960     		str	r1, [r3, #12]
 2364              	.L337:
 248:Drivers/STM32F7xx_HAL_Driver/Src/stm32f7xx_hal_dma_ex.c **** }
ARM GAS  C:\Users\Legend\AppData\Local\Temp\cceZzDEz.s 			page 55


 2365              		.loc 1 248 3 is_stmt 1 view .LVU440
 249:Drivers/STM32F7xx_HAL_Driver/Src/stm32f7xx_hal_dma_ex.c **** 
 2366              		.loc 1 249 1 is_stmt 0 view .LVU441
 2367 0006 0020     		movs	r0, #0
 2368              	.LVL40:
 249:Drivers/STM32F7xx_HAL_Driver/Src/stm32f7xx_hal_dma_ex.c **** 
 2369              		.loc 1 249 1 view .LVU442
 2370 0008 7047     		bx	lr
 2371              	.LVL41:
 2372              	.L336:
 245:Drivers/STM32F7xx_HAL_Driver/Src/stm32f7xx_hal_dma_ex.c ****   }
 2373              		.loc 1 245 5 is_stmt 1 view .LVU443
 245:Drivers/STM32F7xx_HAL_Driver/Src/stm32f7xx_hal_dma_ex.c ****   }
 2374              		.loc 1 245 9 is_stmt 0 view .LVU444
 2375 000a 0368     		ldr	r3, [r0]
 245:Drivers/STM32F7xx_HAL_Driver/Src/stm32f7xx_hal_dma_ex.c ****   }
 2376              		.loc 1 245 26 view .LVU445
 2377 000c 1961     		str	r1, [r3, #16]
 2378 000e FAE7     		b	.L337
 2379              		.cfi_endproc
 2380              	.LFE143:
 2382              		.text
 2383              	.Letext0:
 2384              		.file 2 "f:\\prosoft\\gcc_arm_none\\2019q4\\9 2019-q4-major\\arm-none-eabi\\include\\machine\\_def
 2385              		.file 3 "f:\\prosoft\\gcc_arm_none\\2019q4\\9 2019-q4-major\\arm-none-eabi\\include\\sys\\_stdint.
 2386              		.file 4 "Drivers/CMSIS/Include/core_cm7.h"
 2387              		.file 5 "Drivers/CMSIS/Device/ST/STM32F7xx/Include/system_stm32f7xx.h"
 2388              		.file 6 "Drivers/CMSIS/Device/ST/STM32F7xx/Include/stm32f767xx.h"
 2389              		.file 7 "Drivers/STM32F7xx_HAL_Driver/Inc/stm32f7xx_hal_def.h"
 2390              		.file 8 "Drivers/STM32F7xx_HAL_Driver/Inc/stm32f7xx_hal_dma.h"
 2391              		.file 9 "Drivers/STM32F7xx_HAL_Driver/Inc/stm32f7xx_hal_dma_ex.h"
 2392              		.file 10 "Drivers/STM32F7xx_HAL_Driver/Inc/stm32f7xx_hal.h"
ARM GAS  C:\Users\Legend\AppData\Local\Temp\cceZzDEz.s 			page 56

