ARM GAS  C:\Users\Legend\AppData\Local\Temp\ccDp7bOI.s 			page 1


   1              		.cpu cortex-m7
   2              		.eabi_attribute 28, 1
   3              		.eabi_attribute 20, 1
   4              		.eabi_attribute 21, 1
   5              		.eabi_attribute 23, 3
   6              		.eabi_attribute 24, 1
   7              		.eabi_attribute 25, 1
   8              		.eabi_attribute 26, 1
   9              		.eabi_attribute 30, 1
  10              		.eabi_attribute 34, 1
  11              		.eabi_attribute 18, 4
  12              		.file	"stm32f7xx_hal_exti.c"
  13              		.text
  14              	.Ltext0:
  15              		.cfi_sections	.debug_frame
  16              		.section	.text.HAL_EXTI_SetConfigLine,"ax",%progbits
  17              		.align	1
  18              		.global	HAL_EXTI_SetConfigLine
  19              		.arch armv7e-m
  20              		.syntax unified
  21              		.thumb
  22              		.thumb_func
  23              		.fpu fpv5-d16
  25              	HAL_EXTI_SetConfigLine:
  26              	.LVL0:
  27              	.LFB141:
  28              		.file 1 "Drivers/STM32F7xx_HAL_Driver/Src/stm32f7xx_hal_exti.c"
   1:Drivers/STM32F7xx_HAL_Driver/Src/stm32f7xx_hal_exti.c **** /**
   2:Drivers/STM32F7xx_HAL_Driver/Src/stm32f7xx_hal_exti.c ****   ******************************************************************************
   3:Drivers/STM32F7xx_HAL_Driver/Src/stm32f7xx_hal_exti.c ****   * @file    stm32F7xx_hal_exti.c
   4:Drivers/STM32F7xx_HAL_Driver/Src/stm32f7xx_hal_exti.c ****   * @author  MCD Application Team
   5:Drivers/STM32F7xx_HAL_Driver/Src/stm32f7xx_hal_exti.c ****   * @brief   EXTI HAL module driver.
   6:Drivers/STM32F7xx_HAL_Driver/Src/stm32f7xx_hal_exti.c ****   *          This file provides firmware functions to manage the following
   7:Drivers/STM32F7xx_HAL_Driver/Src/stm32f7xx_hal_exti.c ****   *          functionalities of the Extended Interrupts and events controller (EXTI) peripheral:
   8:Drivers/STM32F7xx_HAL_Driver/Src/stm32f7xx_hal_exti.c ****   *           + Initialization and de-initialization functions
   9:Drivers/STM32F7xx_HAL_Driver/Src/stm32f7xx_hal_exti.c ****   *           + IO operation functions
  10:Drivers/STM32F7xx_HAL_Driver/Src/stm32f7xx_hal_exti.c ****   *
  11:Drivers/STM32F7xx_HAL_Driver/Src/stm32f7xx_hal_exti.c ****   @verbatim
  12:Drivers/STM32F7xx_HAL_Driver/Src/stm32f7xx_hal_exti.c ****   ==============================================================================
  13:Drivers/STM32F7xx_HAL_Driver/Src/stm32f7xx_hal_exti.c ****                     ##### EXTI Peripheral features #####
  14:Drivers/STM32F7xx_HAL_Driver/Src/stm32f7xx_hal_exti.c ****   ==============================================================================
  15:Drivers/STM32F7xx_HAL_Driver/Src/stm32f7xx_hal_exti.c ****   [..]
  16:Drivers/STM32F7xx_HAL_Driver/Src/stm32f7xx_hal_exti.c ****     (+) Each Exti line can be configured within this driver.
  17:Drivers/STM32F7xx_HAL_Driver/Src/stm32f7xx_hal_exti.c **** 
  18:Drivers/STM32F7xx_HAL_Driver/Src/stm32f7xx_hal_exti.c ****     (+) Exti line can be configured in 3 different modes
  19:Drivers/STM32F7xx_HAL_Driver/Src/stm32f7xx_hal_exti.c ****         (++) Interrupt
  20:Drivers/STM32F7xx_HAL_Driver/Src/stm32f7xx_hal_exti.c ****         (++) Event
  21:Drivers/STM32F7xx_HAL_Driver/Src/stm32f7xx_hal_exti.c ****         (++) Both of them
  22:Drivers/STM32F7xx_HAL_Driver/Src/stm32f7xx_hal_exti.c **** 
  23:Drivers/STM32F7xx_HAL_Driver/Src/stm32f7xx_hal_exti.c ****     (+) Configurable Exti lines can be configured with 3 different triggers
  24:Drivers/STM32F7xx_HAL_Driver/Src/stm32f7xx_hal_exti.c ****         (++) Rising
  25:Drivers/STM32F7xx_HAL_Driver/Src/stm32f7xx_hal_exti.c ****         (++) Falling
  26:Drivers/STM32F7xx_HAL_Driver/Src/stm32f7xx_hal_exti.c ****         (++) Both of them
  27:Drivers/STM32F7xx_HAL_Driver/Src/stm32f7xx_hal_exti.c **** 
  28:Drivers/STM32F7xx_HAL_Driver/Src/stm32f7xx_hal_exti.c ****     (+) When set in interrupt mode, configurable Exti lines have two different
  29:Drivers/STM32F7xx_HAL_Driver/Src/stm32f7xx_hal_exti.c ****         interrupts pending registers which allow to distinguish which transition
  30:Drivers/STM32F7xx_HAL_Driver/Src/stm32f7xx_hal_exti.c ****         occurs:
ARM GAS  C:\Users\Legend\AppData\Local\Temp\ccDp7bOI.s 			page 2


  31:Drivers/STM32F7xx_HAL_Driver/Src/stm32f7xx_hal_exti.c ****         (++) Rising edge pending interrupt
  32:Drivers/STM32F7xx_HAL_Driver/Src/stm32f7xx_hal_exti.c ****         (++) Falling
  33:Drivers/STM32F7xx_HAL_Driver/Src/stm32f7xx_hal_exti.c **** 
  34:Drivers/STM32F7xx_HAL_Driver/Src/stm32f7xx_hal_exti.c ****     (+) Exti lines 0 to 15 are linked to gpio pin number 0 to 15. Gpio port can
  35:Drivers/STM32F7xx_HAL_Driver/Src/stm32f7xx_hal_exti.c ****         be selected through multiplexer.
  36:Drivers/STM32F7xx_HAL_Driver/Src/stm32f7xx_hal_exti.c **** 
  37:Drivers/STM32F7xx_HAL_Driver/Src/stm32f7xx_hal_exti.c ****                      ##### How to use this driver #####
  38:Drivers/STM32F7xx_HAL_Driver/Src/stm32f7xx_hal_exti.c ****   ==============================================================================
  39:Drivers/STM32F7xx_HAL_Driver/Src/stm32f7xx_hal_exti.c ****   [..]
  40:Drivers/STM32F7xx_HAL_Driver/Src/stm32f7xx_hal_exti.c **** 
  41:Drivers/STM32F7xx_HAL_Driver/Src/stm32f7xx_hal_exti.c ****     (#) Configure the EXTI line using HAL_EXTI_SetConfigLine().
  42:Drivers/STM32F7xx_HAL_Driver/Src/stm32f7xx_hal_exti.c ****         (++) Choose the interrupt line number by setting "Line" member from
  43:Drivers/STM32F7xx_HAL_Driver/Src/stm32f7xx_hal_exti.c ****              EXTI_ConfigTypeDef structure.
  44:Drivers/STM32F7xx_HAL_Driver/Src/stm32f7xx_hal_exti.c ****         (++) Configure the interrupt and/or event mode using "Mode" member from
  45:Drivers/STM32F7xx_HAL_Driver/Src/stm32f7xx_hal_exti.c ****              EXTI_ConfigTypeDef structure.
  46:Drivers/STM32F7xx_HAL_Driver/Src/stm32f7xx_hal_exti.c ****         (++) For configurable lines, configure rising and/or falling trigger
  47:Drivers/STM32F7xx_HAL_Driver/Src/stm32f7xx_hal_exti.c ****              "Trigger" member from EXTI_ConfigTypeDef structure.
  48:Drivers/STM32F7xx_HAL_Driver/Src/stm32f7xx_hal_exti.c ****         (++) For Exti lines linked to gpio, choose gpio port using "GPIOSel"
  49:Drivers/STM32F7xx_HAL_Driver/Src/stm32f7xx_hal_exti.c ****              member from GPIO_InitTypeDef structure.
  50:Drivers/STM32F7xx_HAL_Driver/Src/stm32f7xx_hal_exti.c **** 
  51:Drivers/STM32F7xx_HAL_Driver/Src/stm32f7xx_hal_exti.c ****     (#) Get current Exti configuration of a dedicated line using
  52:Drivers/STM32F7xx_HAL_Driver/Src/stm32f7xx_hal_exti.c ****         HAL_EXTI_GetConfigLine().
  53:Drivers/STM32F7xx_HAL_Driver/Src/stm32f7xx_hal_exti.c ****         (++) Provide exiting handle as parameter.
  54:Drivers/STM32F7xx_HAL_Driver/Src/stm32f7xx_hal_exti.c ****         (++) Provide pointer on EXTI_ConfigTypeDef structure as second parameter.
  55:Drivers/STM32F7xx_HAL_Driver/Src/stm32f7xx_hal_exti.c **** 
  56:Drivers/STM32F7xx_HAL_Driver/Src/stm32f7xx_hal_exti.c ****     (#) Clear Exti configuration of a dedicated line using HAL_EXTI_GetConfigLine().
  57:Drivers/STM32F7xx_HAL_Driver/Src/stm32f7xx_hal_exti.c ****         (++) Provide exiting handle as parameter.
  58:Drivers/STM32F7xx_HAL_Driver/Src/stm32f7xx_hal_exti.c **** 
  59:Drivers/STM32F7xx_HAL_Driver/Src/stm32f7xx_hal_exti.c ****     (#) Register callback to treat Exti interrupts using HAL_EXTI_RegisterCallback().
  60:Drivers/STM32F7xx_HAL_Driver/Src/stm32f7xx_hal_exti.c ****         (++) Provide exiting handle as first parameter.
  61:Drivers/STM32F7xx_HAL_Driver/Src/stm32f7xx_hal_exti.c ****         (++) Provide which callback will be registered using one value from
  62:Drivers/STM32F7xx_HAL_Driver/Src/stm32f7xx_hal_exti.c ****              EXTI_CallbackIDTypeDef.
  63:Drivers/STM32F7xx_HAL_Driver/Src/stm32f7xx_hal_exti.c ****         (++) Provide callback function pointer.
  64:Drivers/STM32F7xx_HAL_Driver/Src/stm32f7xx_hal_exti.c **** 
  65:Drivers/STM32F7xx_HAL_Driver/Src/stm32f7xx_hal_exti.c ****     (#) Get interrupt pending bit using HAL_EXTI_GetPending().
  66:Drivers/STM32F7xx_HAL_Driver/Src/stm32f7xx_hal_exti.c **** 
  67:Drivers/STM32F7xx_HAL_Driver/Src/stm32f7xx_hal_exti.c ****     (#) Clear interrupt pending bit using HAL_EXTI_GetPending().
  68:Drivers/STM32F7xx_HAL_Driver/Src/stm32f7xx_hal_exti.c **** 
  69:Drivers/STM32F7xx_HAL_Driver/Src/stm32f7xx_hal_exti.c ****     (#) Generate software interrupt using HAL_EXTI_GenerateSWI().
  70:Drivers/STM32F7xx_HAL_Driver/Src/stm32f7xx_hal_exti.c **** 
  71:Drivers/STM32F7xx_HAL_Driver/Src/stm32f7xx_hal_exti.c ****   @endverbatim
  72:Drivers/STM32F7xx_HAL_Driver/Src/stm32f7xx_hal_exti.c ****   ******************************************************************************
  73:Drivers/STM32F7xx_HAL_Driver/Src/stm32f7xx_hal_exti.c ****   * @attention
  74:Drivers/STM32F7xx_HAL_Driver/Src/stm32f7xx_hal_exti.c ****   *
  75:Drivers/STM32F7xx_HAL_Driver/Src/stm32f7xx_hal_exti.c ****   * <h2><center>&copy; Copyright (c) 2018 STMicroelectronics.
  76:Drivers/STM32F7xx_HAL_Driver/Src/stm32f7xx_hal_exti.c ****   * All rights reserved.</center></h2>
  77:Drivers/STM32F7xx_HAL_Driver/Src/stm32f7xx_hal_exti.c ****   *
  78:Drivers/STM32F7xx_HAL_Driver/Src/stm32f7xx_hal_exti.c ****   * This software component is licensed by ST under BSD 3-Clause license,
  79:Drivers/STM32F7xx_HAL_Driver/Src/stm32f7xx_hal_exti.c ****   * the "License"; You may not use this file except in compliance with the
  80:Drivers/STM32F7xx_HAL_Driver/Src/stm32f7xx_hal_exti.c ****   * License. You may obtain a copy of the License at:
  81:Drivers/STM32F7xx_HAL_Driver/Src/stm32f7xx_hal_exti.c ****   *                        opensource.org/licenses/BSD-3-Clause
  82:Drivers/STM32F7xx_HAL_Driver/Src/stm32f7xx_hal_exti.c ****   *
  83:Drivers/STM32F7xx_HAL_Driver/Src/stm32f7xx_hal_exti.c ****   ******************************************************************************
  84:Drivers/STM32F7xx_HAL_Driver/Src/stm32f7xx_hal_exti.c ****   */
  85:Drivers/STM32F7xx_HAL_Driver/Src/stm32f7xx_hal_exti.c **** 
  86:Drivers/STM32F7xx_HAL_Driver/Src/stm32f7xx_hal_exti.c **** /* Includes ------------------------------------------------------------------*/
  87:Drivers/STM32F7xx_HAL_Driver/Src/stm32f7xx_hal_exti.c **** #include "stm32f7xx_hal.h"
ARM GAS  C:\Users\Legend\AppData\Local\Temp\ccDp7bOI.s 			page 3


  88:Drivers/STM32F7xx_HAL_Driver/Src/stm32f7xx_hal_exti.c **** 
  89:Drivers/STM32F7xx_HAL_Driver/Src/stm32f7xx_hal_exti.c **** /** @addtogroup STM32F7xx_HAL_Driver
  90:Drivers/STM32F7xx_HAL_Driver/Src/stm32f7xx_hal_exti.c ****   * @{
  91:Drivers/STM32F7xx_HAL_Driver/Src/stm32f7xx_hal_exti.c ****   */
  92:Drivers/STM32F7xx_HAL_Driver/Src/stm32f7xx_hal_exti.c **** 
  93:Drivers/STM32F7xx_HAL_Driver/Src/stm32f7xx_hal_exti.c **** /** @addtogroup EXTI
  94:Drivers/STM32F7xx_HAL_Driver/Src/stm32f7xx_hal_exti.c ****   * @{
  95:Drivers/STM32F7xx_HAL_Driver/Src/stm32f7xx_hal_exti.c ****   */
  96:Drivers/STM32F7xx_HAL_Driver/Src/stm32f7xx_hal_exti.c **** /** MISRA C:2012 deviation rule has been granted for following rule:
  97:Drivers/STM32F7xx_HAL_Driver/Src/stm32f7xx_hal_exti.c ****   * Rule-18.1_b - Medium: Array `EXTICR' 1st subscript interval [0,7] may be out
  98:Drivers/STM32F7xx_HAL_Driver/Src/stm32f7xx_hal_exti.c ****   * of bounds [0,3] in following API :
  99:Drivers/STM32F7xx_HAL_Driver/Src/stm32f7xx_hal_exti.c ****   * HAL_EXTI_SetConfigLine
 100:Drivers/STM32F7xx_HAL_Driver/Src/stm32f7xx_hal_exti.c ****   * HAL_EXTI_GetConfigLine
 101:Drivers/STM32F7xx_HAL_Driver/Src/stm32f7xx_hal_exti.c ****   * HAL_EXTI_ClearConfigLine
 102:Drivers/STM32F7xx_HAL_Driver/Src/stm32f7xx_hal_exti.c ****   */
 103:Drivers/STM32F7xx_HAL_Driver/Src/stm32f7xx_hal_exti.c **** 
 104:Drivers/STM32F7xx_HAL_Driver/Src/stm32f7xx_hal_exti.c **** #ifdef HAL_EXTI_MODULE_ENABLED
 105:Drivers/STM32F7xx_HAL_Driver/Src/stm32f7xx_hal_exti.c **** 
 106:Drivers/STM32F7xx_HAL_Driver/Src/stm32f7xx_hal_exti.c **** /* Private typedef -----------------------------------------------------------*/
 107:Drivers/STM32F7xx_HAL_Driver/Src/stm32f7xx_hal_exti.c **** /* Private defines -----------------------------------------------------------*/
 108:Drivers/STM32F7xx_HAL_Driver/Src/stm32f7xx_hal_exti.c **** /** @defgroup EXTI_Private_Constants EXTI Private Constants
 109:Drivers/STM32F7xx_HAL_Driver/Src/stm32f7xx_hal_exti.c ****   * @{
 110:Drivers/STM32F7xx_HAL_Driver/Src/stm32f7xx_hal_exti.c ****   */
 111:Drivers/STM32F7xx_HAL_Driver/Src/stm32f7xx_hal_exti.c **** 
 112:Drivers/STM32F7xx_HAL_Driver/Src/stm32f7xx_hal_exti.c **** /**
 113:Drivers/STM32F7xx_HAL_Driver/Src/stm32f7xx_hal_exti.c ****   * @}
 114:Drivers/STM32F7xx_HAL_Driver/Src/stm32f7xx_hal_exti.c ****   */
 115:Drivers/STM32F7xx_HAL_Driver/Src/stm32f7xx_hal_exti.c **** 
 116:Drivers/STM32F7xx_HAL_Driver/Src/stm32f7xx_hal_exti.c **** /* Private macros ------------------------------------------------------------*/
 117:Drivers/STM32F7xx_HAL_Driver/Src/stm32f7xx_hal_exti.c **** /* Private variables ---------------------------------------------------------*/
 118:Drivers/STM32F7xx_HAL_Driver/Src/stm32f7xx_hal_exti.c **** /* Private function prototypes -----------------------------------------------*/
 119:Drivers/STM32F7xx_HAL_Driver/Src/stm32f7xx_hal_exti.c **** /* Exported functions --------------------------------------------------------*/
 120:Drivers/STM32F7xx_HAL_Driver/Src/stm32f7xx_hal_exti.c **** 
 121:Drivers/STM32F7xx_HAL_Driver/Src/stm32f7xx_hal_exti.c **** /** @addtogroup EXTI_Exported_Functions
 122:Drivers/STM32F7xx_HAL_Driver/Src/stm32f7xx_hal_exti.c ****   * @{
 123:Drivers/STM32F7xx_HAL_Driver/Src/stm32f7xx_hal_exti.c ****   */
 124:Drivers/STM32F7xx_HAL_Driver/Src/stm32f7xx_hal_exti.c **** 
 125:Drivers/STM32F7xx_HAL_Driver/Src/stm32f7xx_hal_exti.c **** /** @addtogroup EXTI_Exported_Functions_Group1
 126:Drivers/STM32F7xx_HAL_Driver/Src/stm32f7xx_hal_exti.c ****   *  @brief    Configuration functions
 127:Drivers/STM32F7xx_HAL_Driver/Src/stm32f7xx_hal_exti.c ****   *
 128:Drivers/STM32F7xx_HAL_Driver/Src/stm32f7xx_hal_exti.c **** @verbatim
 129:Drivers/STM32F7xx_HAL_Driver/Src/stm32f7xx_hal_exti.c ****  ===============================================================================
 130:Drivers/STM32F7xx_HAL_Driver/Src/stm32f7xx_hal_exti.c ****               ##### Configuration functions #####
 131:Drivers/STM32F7xx_HAL_Driver/Src/stm32f7xx_hal_exti.c ****  ===============================================================================
 132:Drivers/STM32F7xx_HAL_Driver/Src/stm32f7xx_hal_exti.c **** 
 133:Drivers/STM32F7xx_HAL_Driver/Src/stm32f7xx_hal_exti.c **** @endverbatim
 134:Drivers/STM32F7xx_HAL_Driver/Src/stm32f7xx_hal_exti.c ****   * @{
 135:Drivers/STM32F7xx_HAL_Driver/Src/stm32f7xx_hal_exti.c ****   */
 136:Drivers/STM32F7xx_HAL_Driver/Src/stm32f7xx_hal_exti.c **** 
 137:Drivers/STM32F7xx_HAL_Driver/Src/stm32f7xx_hal_exti.c **** /**
 138:Drivers/STM32F7xx_HAL_Driver/Src/stm32f7xx_hal_exti.c ****   * @brief  Set configuration of a dedicated Exti line.
 139:Drivers/STM32F7xx_HAL_Driver/Src/stm32f7xx_hal_exti.c ****   * @param  hexti Exti handle.
 140:Drivers/STM32F7xx_HAL_Driver/Src/stm32f7xx_hal_exti.c ****   * @param  pExtiConfig Pointer on EXTI configuration to be set.
 141:Drivers/STM32F7xx_HAL_Driver/Src/stm32f7xx_hal_exti.c ****   * @retval HAL Status.
 142:Drivers/STM32F7xx_HAL_Driver/Src/stm32f7xx_hal_exti.c ****   */
 143:Drivers/STM32F7xx_HAL_Driver/Src/stm32f7xx_hal_exti.c **** HAL_StatusTypeDef HAL_EXTI_SetConfigLine(EXTI_HandleTypeDef *hexti, EXTI_ConfigTypeDef *pExtiConfig
 144:Drivers/STM32F7xx_HAL_Driver/Src/stm32f7xx_hal_exti.c **** {
ARM GAS  C:\Users\Legend\AppData\Local\Temp\ccDp7bOI.s 			page 4


  29              		.loc 1 144 1 view -0
  30              		.cfi_startproc
  31              		@ args = 0, pretend = 0, frame = 0
  32              		@ frame_needed = 0, uses_anonymous_args = 0
  33              		@ link register save eliminated.
 145:Drivers/STM32F7xx_HAL_Driver/Src/stm32f7xx_hal_exti.c ****   uint32_t regval;
  34              		.loc 1 145 3 view .LVU1
 146:Drivers/STM32F7xx_HAL_Driver/Src/stm32f7xx_hal_exti.c ****   uint32_t linepos;
  35              		.loc 1 146 3 view .LVU2
 147:Drivers/STM32F7xx_HAL_Driver/Src/stm32f7xx_hal_exti.c ****   uint32_t maskline;
  36              		.loc 1 147 3 view .LVU3
 148:Drivers/STM32F7xx_HAL_Driver/Src/stm32f7xx_hal_exti.c **** 
 149:Drivers/STM32F7xx_HAL_Driver/Src/stm32f7xx_hal_exti.c ****   /* Check null pointer */
 150:Drivers/STM32F7xx_HAL_Driver/Src/stm32f7xx_hal_exti.c ****   if ((hexti == NULL) || (pExtiConfig == NULL))
  37              		.loc 1 150 3 view .LVU4
  38              		.loc 1 150 39 is_stmt 0 view .LVU5
  39 0000 0B46     		mov	r3, r1
  40 0002 B1FA81F1 		clz	r1, r1
  41              	.LVL1:
  42              		.loc 1 150 39 view .LVU6
  43 0006 4909     		lsrs	r1, r1, #5
  44              		.loc 1 150 23 view .LVU7
  45 0008 0028     		cmp	r0, #0
  46 000a 08BF     		it	eq
  47 000c 0121     		moveq	r1, #1
  48              		.loc 1 150 6 view .LVU8
  49 000e 0029     		cmp	r1, #0
  50 0010 5ED1     		bne	.L11
 144:Drivers/STM32F7xx_HAL_Driver/Src/stm32f7xx_hal_exti.c ****   uint32_t regval;
  51              		.loc 1 144 1 view .LVU9
  52 0012 70B4     		push	{r4, r5, r6}
  53              	.LCFI0:
  54              		.cfi_def_cfa_offset 12
  55              		.cfi_offset 4, -12
  56              		.cfi_offset 5, -8
  57              		.cfi_offset 6, -4
 151:Drivers/STM32F7xx_HAL_Driver/Src/stm32f7xx_hal_exti.c ****   {
 152:Drivers/STM32F7xx_HAL_Driver/Src/stm32f7xx_hal_exti.c ****     return HAL_ERROR;
 153:Drivers/STM32F7xx_HAL_Driver/Src/stm32f7xx_hal_exti.c ****   }
 154:Drivers/STM32F7xx_HAL_Driver/Src/stm32f7xx_hal_exti.c **** 
 155:Drivers/STM32F7xx_HAL_Driver/Src/stm32f7xx_hal_exti.c ****   /* Check parameters */
 156:Drivers/STM32F7xx_HAL_Driver/Src/stm32f7xx_hal_exti.c ****   assert_param(IS_EXTI_LINE(pExtiConfig->Line));
  58              		.loc 1 156 3 is_stmt 1 view .LVU10
 157:Drivers/STM32F7xx_HAL_Driver/Src/stm32f7xx_hal_exti.c ****   assert_param(IS_EXTI_MODE(pExtiConfig->Mode));
  59              		.loc 1 157 3 view .LVU11
 158:Drivers/STM32F7xx_HAL_Driver/Src/stm32f7xx_hal_exti.c **** 
 159:Drivers/STM32F7xx_HAL_Driver/Src/stm32f7xx_hal_exti.c ****   /* Assign line number to handle */
 160:Drivers/STM32F7xx_HAL_Driver/Src/stm32f7xx_hal_exti.c ****   hexti->Line = pExtiConfig->Line;
  60              		.loc 1 160 3 view .LVU12
  61              		.loc 1 160 28 is_stmt 0 view .LVU13
  62 0014 1968     		ldr	r1, [r3]
  63              		.loc 1 160 15 view .LVU14
  64 0016 0160     		str	r1, [r0]
 161:Drivers/STM32F7xx_HAL_Driver/Src/stm32f7xx_hal_exti.c **** 
 162:Drivers/STM32F7xx_HAL_Driver/Src/stm32f7xx_hal_exti.c ****   /* Compute line mask */
 163:Drivers/STM32F7xx_HAL_Driver/Src/stm32f7xx_hal_exti.c ****   linepos = (pExtiConfig->Line & EXTI_PIN_MASK);
  65              		.loc 1 163 3 is_stmt 1 view .LVU15
ARM GAS  C:\Users\Legend\AppData\Local\Temp\ccDp7bOI.s 			page 5


  66              		.loc 1 163 11 is_stmt 0 view .LVU16
  67 0018 01F01F00 		and	r0, r1, #31
  68              	.LVL2:
 164:Drivers/STM32F7xx_HAL_Driver/Src/stm32f7xx_hal_exti.c ****   maskline = (1uL << linepos);
  69              		.loc 1 164 3 is_stmt 1 view .LVU17
  70              		.loc 1 164 12 is_stmt 0 view .LVU18
  71 001c 0122     		movs	r2, #1
  72 001e 8240     		lsls	r2, r2, r0
  73              	.LVL3:
 165:Drivers/STM32F7xx_HAL_Driver/Src/stm32f7xx_hal_exti.c **** 
 166:Drivers/STM32F7xx_HAL_Driver/Src/stm32f7xx_hal_exti.c ****   /* Configure triggers for configurable lines */
 167:Drivers/STM32F7xx_HAL_Driver/Src/stm32f7xx_hal_exti.c ****   if ((pExtiConfig->Line & EXTI_CONFIG) != 0x00u)
  74              		.loc 1 167 3 is_stmt 1 view .LVU19
  75              		.loc 1 167 6 is_stmt 0 view .LVU20
  76 0020 11F0007F 		tst	r1, #33554432
  77 0024 15D0     		beq	.L3
 168:Drivers/STM32F7xx_HAL_Driver/Src/stm32f7xx_hal_exti.c ****   {
 169:Drivers/STM32F7xx_HAL_Driver/Src/stm32f7xx_hal_exti.c ****     assert_param(IS_EXTI_TRIGGER(pExtiConfig->Trigger));
  78              		.loc 1 169 5 is_stmt 1 view .LVU21
 170:Drivers/STM32F7xx_HAL_Driver/Src/stm32f7xx_hal_exti.c **** 
 171:Drivers/STM32F7xx_HAL_Driver/Src/stm32f7xx_hal_exti.c ****     /* Configure rising trigger */
 172:Drivers/STM32F7xx_HAL_Driver/Src/stm32f7xx_hal_exti.c ****     /* Mask or set line */
 173:Drivers/STM32F7xx_HAL_Driver/Src/stm32f7xx_hal_exti.c ****     if ((pExtiConfig->Trigger & EXTI_TRIGGER_RISING) != 0x00u)
  79              		.loc 1 173 5 view .LVU22
  80              		.loc 1 173 21 is_stmt 0 view .LVU23
  81 0026 9C68     		ldr	r4, [r3, #8]
  82              		.loc 1 173 8 view .LVU24
  83 0028 14F0010F 		tst	r4, #1
  84 002c 24D0     		beq	.L4
 174:Drivers/STM32F7xx_HAL_Driver/Src/stm32f7xx_hal_exti.c ****     {
 175:Drivers/STM32F7xx_HAL_Driver/Src/stm32f7xx_hal_exti.c ****       EXTI->RTSR |= maskline;
  85              		.loc 1 175 7 is_stmt 1 view .LVU25
  86              		.loc 1 175 18 is_stmt 0 view .LVU26
  87 002e 294D     		ldr	r5, .L17
  88 0030 AC68     		ldr	r4, [r5, #8]
  89 0032 1443     		orrs	r4, r4, r2
  90 0034 AC60     		str	r4, [r5, #8]
  91              	.L5:
 176:Drivers/STM32F7xx_HAL_Driver/Src/stm32f7xx_hal_exti.c ****     }
 177:Drivers/STM32F7xx_HAL_Driver/Src/stm32f7xx_hal_exti.c ****     else
 178:Drivers/STM32F7xx_HAL_Driver/Src/stm32f7xx_hal_exti.c ****     {
 179:Drivers/STM32F7xx_HAL_Driver/Src/stm32f7xx_hal_exti.c ****       EXTI->RTSR &= ~maskline;
 180:Drivers/STM32F7xx_HAL_Driver/Src/stm32f7xx_hal_exti.c ****     }
 181:Drivers/STM32F7xx_HAL_Driver/Src/stm32f7xx_hal_exti.c **** 
 182:Drivers/STM32F7xx_HAL_Driver/Src/stm32f7xx_hal_exti.c ****     /* Configure falling trigger */
 183:Drivers/STM32F7xx_HAL_Driver/Src/stm32f7xx_hal_exti.c ****     /* Mask or set line */
 184:Drivers/STM32F7xx_HAL_Driver/Src/stm32f7xx_hal_exti.c ****     if ((pExtiConfig->Trigger & EXTI_TRIGGER_FALLING) != 0x00u)
  92              		.loc 1 184 5 is_stmt 1 view .LVU27
  93              		.loc 1 184 21 is_stmt 0 view .LVU28
  94 0036 9C68     		ldr	r4, [r3, #8]
  95              		.loc 1 184 8 view .LVU29
  96 0038 14F0020F 		tst	r4, #2
  97 003c 22D0     		beq	.L6
 185:Drivers/STM32F7xx_HAL_Driver/Src/stm32f7xx_hal_exti.c ****     {
 186:Drivers/STM32F7xx_HAL_Driver/Src/stm32f7xx_hal_exti.c ****       EXTI->FTSR |= maskline;
  98              		.loc 1 186 7 is_stmt 1 view .LVU30
  99              		.loc 1 186 18 is_stmt 0 view .LVU31
ARM GAS  C:\Users\Legend\AppData\Local\Temp\ccDp7bOI.s 			page 6


 100 003e 254D     		ldr	r5, .L17
 101 0040 EC68     		ldr	r4, [r5, #12]
 102 0042 1443     		orrs	r4, r4, r2
 103 0044 EC60     		str	r4, [r5, #12]
 104              	.L7:
 187:Drivers/STM32F7xx_HAL_Driver/Src/stm32f7xx_hal_exti.c ****     }
 188:Drivers/STM32F7xx_HAL_Driver/Src/stm32f7xx_hal_exti.c ****     else
 189:Drivers/STM32F7xx_HAL_Driver/Src/stm32f7xx_hal_exti.c ****     {
 190:Drivers/STM32F7xx_HAL_Driver/Src/stm32f7xx_hal_exti.c ****       EXTI->FTSR &= ~maskline;
 191:Drivers/STM32F7xx_HAL_Driver/Src/stm32f7xx_hal_exti.c ****     }
 192:Drivers/STM32F7xx_HAL_Driver/Src/stm32f7xx_hal_exti.c **** 
 193:Drivers/STM32F7xx_HAL_Driver/Src/stm32f7xx_hal_exti.c **** 
 194:Drivers/STM32F7xx_HAL_Driver/Src/stm32f7xx_hal_exti.c ****     /* Configure gpio port selection in case of gpio exti line */
 195:Drivers/STM32F7xx_HAL_Driver/Src/stm32f7xx_hal_exti.c ****     if ((pExtiConfig->Line & EXTI_GPIO) == EXTI_GPIO)
 105              		.loc 1 195 5 is_stmt 1 view .LVU32
 106              		.loc 1 195 21 is_stmt 0 view .LVU33
 107 0046 1C68     		ldr	r4, [r3]
 108              		.loc 1 195 28 view .LVU34
 109 0048 04F0C064 		and	r4, r4, #100663296
 110              		.loc 1 195 8 view .LVU35
 111 004c B4F1C06F 		cmp	r4, #100663296
 112 0050 1ED0     		beq	.L16
 113              	.LVL4:
 114              	.L3:
 196:Drivers/STM32F7xx_HAL_Driver/Src/stm32f7xx_hal_exti.c ****     {
 197:Drivers/STM32F7xx_HAL_Driver/Src/stm32f7xx_hal_exti.c ****       assert_param(IS_EXTI_GPIO_PORT(pExtiConfig->GPIOSel));
 198:Drivers/STM32F7xx_HAL_Driver/Src/stm32f7xx_hal_exti.c ****       assert_param(IS_EXTI_GPIO_PIN(linepos));
 199:Drivers/STM32F7xx_HAL_Driver/Src/stm32f7xx_hal_exti.c **** 
 200:Drivers/STM32F7xx_HAL_Driver/Src/stm32f7xx_hal_exti.c ****       regval = SYSCFG->EXTICR[linepos >> 2u];
 201:Drivers/STM32F7xx_HAL_Driver/Src/stm32f7xx_hal_exti.c ****       regval &= ~(SYSCFG_EXTICR1_EXTI0 << (SYSCFG_EXTICR1_EXTI1_Pos * (linepos & 0x03u)));
 202:Drivers/STM32F7xx_HAL_Driver/Src/stm32f7xx_hal_exti.c ****       regval |= (pExtiConfig->GPIOSel << (SYSCFG_EXTICR1_EXTI1_Pos * (linepos & 0x03u)));
 203:Drivers/STM32F7xx_HAL_Driver/Src/stm32f7xx_hal_exti.c ****       SYSCFG->EXTICR[linepos >> 2u] = regval;
 204:Drivers/STM32F7xx_HAL_Driver/Src/stm32f7xx_hal_exti.c ****     }
 205:Drivers/STM32F7xx_HAL_Driver/Src/stm32f7xx_hal_exti.c ****   }
 206:Drivers/STM32F7xx_HAL_Driver/Src/stm32f7xx_hal_exti.c **** 
 207:Drivers/STM32F7xx_HAL_Driver/Src/stm32f7xx_hal_exti.c ****   /* Configure interrupt mode : read current mode */
 208:Drivers/STM32F7xx_HAL_Driver/Src/stm32f7xx_hal_exti.c ****   /* Mask or set line */
 209:Drivers/STM32F7xx_HAL_Driver/Src/stm32f7xx_hal_exti.c ****   if ((pExtiConfig->Mode & EXTI_MODE_INTERRUPT) != 0x00u)
 115              		.loc 1 209 3 is_stmt 1 view .LVU36
 116              		.loc 1 209 19 is_stmt 0 view .LVU37
 117 0052 5968     		ldr	r1, [r3, #4]
 118              		.loc 1 209 6 view .LVU38
 119 0054 11F0010F 		tst	r1, #1
 120 0058 2DD0     		beq	.L8
 210:Drivers/STM32F7xx_HAL_Driver/Src/stm32f7xx_hal_exti.c ****   {
 211:Drivers/STM32F7xx_HAL_Driver/Src/stm32f7xx_hal_exti.c ****     EXTI->IMR |= maskline;
 121              		.loc 1 211 5 is_stmt 1 view .LVU39
 122              		.loc 1 211 15 is_stmt 0 view .LVU40
 123 005a 1E48     		ldr	r0, .L17
 124 005c 0168     		ldr	r1, [r0]
 125 005e 1143     		orrs	r1, r1, r2
 126 0060 0160     		str	r1, [r0]
 127              	.L9:
 212:Drivers/STM32F7xx_HAL_Driver/Src/stm32f7xx_hal_exti.c ****   }
 213:Drivers/STM32F7xx_HAL_Driver/Src/stm32f7xx_hal_exti.c ****   else
 214:Drivers/STM32F7xx_HAL_Driver/Src/stm32f7xx_hal_exti.c ****   {
 215:Drivers/STM32F7xx_HAL_Driver/Src/stm32f7xx_hal_exti.c ****     EXTI->IMR &= ~maskline;
ARM GAS  C:\Users\Legend\AppData\Local\Temp\ccDp7bOI.s 			page 7


 216:Drivers/STM32F7xx_HAL_Driver/Src/stm32f7xx_hal_exti.c ****   }
 217:Drivers/STM32F7xx_HAL_Driver/Src/stm32f7xx_hal_exti.c **** 
 218:Drivers/STM32F7xx_HAL_Driver/Src/stm32f7xx_hal_exti.c ****   /* Configure event mode : read current mode */
 219:Drivers/STM32F7xx_HAL_Driver/Src/stm32f7xx_hal_exti.c ****   /* Mask or set line */
 220:Drivers/STM32F7xx_HAL_Driver/Src/stm32f7xx_hal_exti.c ****   if ((pExtiConfig->Mode & EXTI_MODE_EVENT) != 0x00u)
 128              		.loc 1 220 3 is_stmt 1 view .LVU41
 129              		.loc 1 220 19 is_stmt 0 view .LVU42
 130 0062 5B68     		ldr	r3, [r3, #4]
 131              	.LVL5:
 132              		.loc 1 220 6 view .LVU43
 133 0064 13F0020F 		tst	r3, #2
 134 0068 2BD0     		beq	.L10
 221:Drivers/STM32F7xx_HAL_Driver/Src/stm32f7xx_hal_exti.c ****   {
 222:Drivers/STM32F7xx_HAL_Driver/Src/stm32f7xx_hal_exti.c ****     EXTI->EMR |= maskline;
 135              		.loc 1 222 5 is_stmt 1 view .LVU44
 136              		.loc 1 222 15 is_stmt 0 view .LVU45
 137 006a 1A49     		ldr	r1, .L17
 138 006c 4B68     		ldr	r3, [r1, #4]
 139 006e 1A43     		orrs	r2, r2, r3
 140              	.LVL6:
 141              		.loc 1 222 15 view .LVU46
 142 0070 4A60     		str	r2, [r1, #4]
 223:Drivers/STM32F7xx_HAL_Driver/Src/stm32f7xx_hal_exti.c ****   }
 224:Drivers/STM32F7xx_HAL_Driver/Src/stm32f7xx_hal_exti.c ****   else
 225:Drivers/STM32F7xx_HAL_Driver/Src/stm32f7xx_hal_exti.c ****   {
 226:Drivers/STM32F7xx_HAL_Driver/Src/stm32f7xx_hal_exti.c ****     EXTI->EMR &= ~maskline;
 227:Drivers/STM32F7xx_HAL_Driver/Src/stm32f7xx_hal_exti.c ****   }
 228:Drivers/STM32F7xx_HAL_Driver/Src/stm32f7xx_hal_exti.c **** 
 229:Drivers/STM32F7xx_HAL_Driver/Src/stm32f7xx_hal_exti.c ****   return HAL_OK;
 143              		.loc 1 229 10 view .LVU47
 144 0072 0020     		movs	r0, #0
 145              	.L2:
 230:Drivers/STM32F7xx_HAL_Driver/Src/stm32f7xx_hal_exti.c **** }
 146              		.loc 1 230 1 view .LVU48
 147 0074 70BC     		pop	{r4, r5, r6}
 148              	.LCFI1:
 149              		.cfi_remember_state
 150              		.cfi_restore 6
 151              		.cfi_restore 5
 152              		.cfi_restore 4
 153              		.cfi_def_cfa_offset 0
 154 0076 7047     		bx	lr
 155              	.LVL7:
 156              	.L4:
 157              	.LCFI2:
 158              		.cfi_restore_state
 179:Drivers/STM32F7xx_HAL_Driver/Src/stm32f7xx_hal_exti.c ****     }
 159              		.loc 1 179 7 is_stmt 1 view .LVU49
 179:Drivers/STM32F7xx_HAL_Driver/Src/stm32f7xx_hal_exti.c ****     }
 160              		.loc 1 179 18 is_stmt 0 view .LVU50
 161 0078 164D     		ldr	r5, .L17
 162 007a AC68     		ldr	r4, [r5, #8]
 163 007c 24EA0204 		bic	r4, r4, r2
 164 0080 AC60     		str	r4, [r5, #8]
 165 0082 D8E7     		b	.L5
 166              	.L6:
 190:Drivers/STM32F7xx_HAL_Driver/Src/stm32f7xx_hal_exti.c ****     }
ARM GAS  C:\Users\Legend\AppData\Local\Temp\ccDp7bOI.s 			page 8


 167              		.loc 1 190 7 is_stmt 1 view .LVU51
 190:Drivers/STM32F7xx_HAL_Driver/Src/stm32f7xx_hal_exti.c ****     }
 168              		.loc 1 190 18 is_stmt 0 view .LVU52
 169 0084 134D     		ldr	r5, .L17
 170 0086 EC68     		ldr	r4, [r5, #12]
 171 0088 24EA0204 		bic	r4, r4, r2
 172 008c EC60     		str	r4, [r5, #12]
 173 008e DAE7     		b	.L7
 174              	.L16:
 197:Drivers/STM32F7xx_HAL_Driver/Src/stm32f7xx_hal_exti.c ****       assert_param(IS_EXTI_GPIO_PIN(linepos));
 175              		.loc 1 197 7 is_stmt 1 view .LVU53
 198:Drivers/STM32F7xx_HAL_Driver/Src/stm32f7xx_hal_exti.c **** 
 176              		.loc 1 198 7 view .LVU54
 200:Drivers/STM32F7xx_HAL_Driver/Src/stm32f7xx_hal_exti.c ****       regval &= ~(SYSCFG_EXTICR1_EXTI0 << (SYSCFG_EXTICR1_EXTI1_Pos * (linepos & 0x03u)));
 177              		.loc 1 200 7 view .LVU55
 200:Drivers/STM32F7xx_HAL_Driver/Src/stm32f7xx_hal_exti.c ****       regval &= ~(SYSCFG_EXTICR1_EXTI0 << (SYSCFG_EXTICR1_EXTI1_Pos * (linepos & 0x03u)));
 178              		.loc 1 200 39 is_stmt 0 view .LVU56
 179 0090 8008     		lsrs	r0, r0, #2
 180              	.LVL8:
 200:Drivers/STM32F7xx_HAL_Driver/Src/stm32f7xx_hal_exti.c ****       regval &= ~(SYSCFG_EXTICR1_EXTI0 << (SYSCFG_EXTICR1_EXTI1_Pos * (linepos & 0x03u)));
 181              		.loc 1 200 14 view .LVU57
 182 0092 114E     		ldr	r6, .L17+4
 183 0094 0230     		adds	r0, r0, #2
 184 0096 56F82050 		ldr	r5, [r6, r0, lsl #2]
 185              	.LVL9:
 201:Drivers/STM32F7xx_HAL_Driver/Src/stm32f7xx_hal_exti.c ****       regval |= (pExtiConfig->GPIOSel << (SYSCFG_EXTICR1_EXTI1_Pos * (linepos & 0x03u)));
 186              		.loc 1 201 7 is_stmt 1 view .LVU58
 201:Drivers/STM32F7xx_HAL_Driver/Src/stm32f7xx_hal_exti.c ****       regval |= (pExtiConfig->GPIOSel << (SYSCFG_EXTICR1_EXTI1_Pos * (linepos & 0x03u)));
 187              		.loc 1 201 80 is_stmt 0 view .LVU59
 188 009a 01F00301 		and	r1, r1, #3
 189              	.LVL10:
 201:Drivers/STM32F7xx_HAL_Driver/Src/stm32f7xx_hal_exti.c ****       regval |= (pExtiConfig->GPIOSel << (SYSCFG_EXTICR1_EXTI1_Pos * (linepos & 0x03u)));
 190              		.loc 1 201 69 view .LVU60
 191 009e 8900     		lsls	r1, r1, #2
 201:Drivers/STM32F7xx_HAL_Driver/Src/stm32f7xx_hal_exti.c ****       regval |= (pExtiConfig->GPIOSel << (SYSCFG_EXTICR1_EXTI1_Pos * (linepos & 0x03u)));
 192              		.loc 1 201 40 view .LVU61
 193 00a0 0F24     		movs	r4, #15
 194 00a2 8C40     		lsls	r4, r4, r1
 201:Drivers/STM32F7xx_HAL_Driver/Src/stm32f7xx_hal_exti.c ****       regval |= (pExtiConfig->GPIOSel << (SYSCFG_EXTICR1_EXTI1_Pos * (linepos & 0x03u)));
 195              		.loc 1 201 14 view .LVU62
 196 00a4 25EA0405 		bic	r5, r5, r4
 197              	.LVL11:
 202:Drivers/STM32F7xx_HAL_Driver/Src/stm32f7xx_hal_exti.c ****       SYSCFG->EXTICR[linepos >> 2u] = regval;
 198              		.loc 1 202 7 is_stmt 1 view .LVU63
 202:Drivers/STM32F7xx_HAL_Driver/Src/stm32f7xx_hal_exti.c ****       SYSCFG->EXTICR[linepos >> 2u] = regval;
 199              		.loc 1 202 29 is_stmt 0 view .LVU64
 200 00a8 DC68     		ldr	r4, [r3, #12]
 202:Drivers/STM32F7xx_HAL_Driver/Src/stm32f7xx_hal_exti.c ****       SYSCFG->EXTICR[linepos >> 2u] = regval;
 201              		.loc 1 202 39 view .LVU65
 202 00aa 04FA01F1 		lsl	r1, r4, r1
 202:Drivers/STM32F7xx_HAL_Driver/Src/stm32f7xx_hal_exti.c ****       SYSCFG->EXTICR[linepos >> 2u] = regval;
 203              		.loc 1 202 14 view .LVU66
 204 00ae 2943     		orrs	r1, r1, r5
 205              	.LVL12:
 203:Drivers/STM32F7xx_HAL_Driver/Src/stm32f7xx_hal_exti.c ****     }
 206              		.loc 1 203 7 is_stmt 1 view .LVU67
 203:Drivers/STM32F7xx_HAL_Driver/Src/stm32f7xx_hal_exti.c ****     }
ARM GAS  C:\Users\Legend\AppData\Local\Temp\ccDp7bOI.s 			page 9


 207              		.loc 1 203 37 is_stmt 0 view .LVU68
 208 00b0 46F82010 		str	r1, [r6, r0, lsl #2]
 209 00b4 CDE7     		b	.L3
 210              	.LVL13:
 211              	.L8:
 215:Drivers/STM32F7xx_HAL_Driver/Src/stm32f7xx_hal_exti.c ****   }
 212              		.loc 1 215 5 is_stmt 1 view .LVU69
 215:Drivers/STM32F7xx_HAL_Driver/Src/stm32f7xx_hal_exti.c ****   }
 213              		.loc 1 215 15 is_stmt 0 view .LVU70
 214 00b6 0748     		ldr	r0, .L17
 215 00b8 0168     		ldr	r1, [r0]
 216 00ba 21EA0201 		bic	r1, r1, r2
 217 00be 0160     		str	r1, [r0]
 218 00c0 CFE7     		b	.L9
 219              	.LVL14:
 220              	.L10:
 226:Drivers/STM32F7xx_HAL_Driver/Src/stm32f7xx_hal_exti.c ****   }
 221              		.loc 1 226 5 is_stmt 1 view .LVU71
 226:Drivers/STM32F7xx_HAL_Driver/Src/stm32f7xx_hal_exti.c ****   }
 222              		.loc 1 226 15 is_stmt 0 view .LVU72
 223 00c2 0449     		ldr	r1, .L17
 224 00c4 4B68     		ldr	r3, [r1, #4]
 225 00c6 23EA0202 		bic	r2, r3, r2
 226              	.LVL15:
 226:Drivers/STM32F7xx_HAL_Driver/Src/stm32f7xx_hal_exti.c ****   }
 227              		.loc 1 226 15 view .LVU73
 228 00ca 4A60     		str	r2, [r1, #4]
 229:Drivers/STM32F7xx_HAL_Driver/Src/stm32f7xx_hal_exti.c **** }
 229              		.loc 1 229 10 view .LVU74
 230 00cc 0020     		movs	r0, #0
 231 00ce D1E7     		b	.L2
 232              	.LVL16:
 233              	.L11:
 234              	.LCFI3:
 235              		.cfi_def_cfa_offset 0
 236              		.cfi_restore 4
 237              		.cfi_restore 5
 238              		.cfi_restore 6
 152:Drivers/STM32F7xx_HAL_Driver/Src/stm32f7xx_hal_exti.c ****   }
 239              		.loc 1 152 12 view .LVU75
 240 00d0 0120     		movs	r0, #1
 241              	.LVL17:
 242              		.loc 1 230 1 view .LVU76
 243 00d2 7047     		bx	lr
 244              	.L18:
 245              		.align	2
 246              	.L17:
 247 00d4 003C0140 		.word	1073822720
 248 00d8 00380140 		.word	1073821696
 249              		.cfi_endproc
 250              	.LFE141:
 252              		.section	.text.HAL_EXTI_GetConfigLine,"ax",%progbits
 253              		.align	1
 254              		.global	HAL_EXTI_GetConfigLine
 255              		.syntax unified
 256              		.thumb
 257              		.thumb_func
ARM GAS  C:\Users\Legend\AppData\Local\Temp\ccDp7bOI.s 			page 10


 258              		.fpu fpv5-d16
 260              	HAL_EXTI_GetConfigLine:
 261              	.LVL18:
 262              	.LFB142:
 231:Drivers/STM32F7xx_HAL_Driver/Src/stm32f7xx_hal_exti.c **** 
 232:Drivers/STM32F7xx_HAL_Driver/Src/stm32f7xx_hal_exti.c **** /**
 233:Drivers/STM32F7xx_HAL_Driver/Src/stm32f7xx_hal_exti.c ****   * @brief  Get configuration of a dedicated Exti line.
 234:Drivers/STM32F7xx_HAL_Driver/Src/stm32f7xx_hal_exti.c ****   * @param  hexti Exti handle.
 235:Drivers/STM32F7xx_HAL_Driver/Src/stm32f7xx_hal_exti.c ****   * @param  pExtiConfig Pointer on structure to store Exti configuration.
 236:Drivers/STM32F7xx_HAL_Driver/Src/stm32f7xx_hal_exti.c ****   * @retval HAL Status.
 237:Drivers/STM32F7xx_HAL_Driver/Src/stm32f7xx_hal_exti.c ****   */
 238:Drivers/STM32F7xx_HAL_Driver/Src/stm32f7xx_hal_exti.c **** HAL_StatusTypeDef HAL_EXTI_GetConfigLine(EXTI_HandleTypeDef *hexti, EXTI_ConfigTypeDef *pExtiConfig
 239:Drivers/STM32F7xx_HAL_Driver/Src/stm32f7xx_hal_exti.c **** {
 263              		.loc 1 239 1 is_stmt 1 view -0
 264              		.cfi_startproc
 265              		@ args = 0, pretend = 0, frame = 0
 266              		@ frame_needed = 0, uses_anonymous_args = 0
 267              		@ link register save eliminated.
 240:Drivers/STM32F7xx_HAL_Driver/Src/stm32f7xx_hal_exti.c ****   uint32_t regval;
 268              		.loc 1 240 3 view .LVU78
 241:Drivers/STM32F7xx_HAL_Driver/Src/stm32f7xx_hal_exti.c ****   uint32_t linepos;
 269              		.loc 1 241 3 view .LVU79
 242:Drivers/STM32F7xx_HAL_Driver/Src/stm32f7xx_hal_exti.c ****   uint32_t maskline;
 270              		.loc 1 242 3 view .LVU80
 243:Drivers/STM32F7xx_HAL_Driver/Src/stm32f7xx_hal_exti.c **** 
 244:Drivers/STM32F7xx_HAL_Driver/Src/stm32f7xx_hal_exti.c ****   /* Check null pointer */
 245:Drivers/STM32F7xx_HAL_Driver/Src/stm32f7xx_hal_exti.c ****   if ((hexti == NULL) || (pExtiConfig == NULL))
 271              		.loc 1 245 3 view .LVU81
 272              		.loc 1 245 39 is_stmt 0 view .LVU82
 273 0000 0B46     		mov	r3, r1
 274 0002 B1FA81F1 		clz	r1, r1
 275              	.LVL19:
 276              		.loc 1 245 39 view .LVU83
 277 0006 4909     		lsrs	r1, r1, #5
 278              		.loc 1 245 23 view .LVU84
 279 0008 0028     		cmp	r0, #0
 280 000a 08BF     		it	eq
 281 000c 0121     		moveq	r1, #1
 282              		.loc 1 245 6 view .LVU85
 283 000e 0029     		cmp	r1, #0
 284 0010 48D1     		bne	.L29
 239:Drivers/STM32F7xx_HAL_Driver/Src/stm32f7xx_hal_exti.c ****   uint32_t regval;
 285              		.loc 1 239 1 view .LVU86
 286 0012 10B4     		push	{r4}
 287              	.LCFI4:
 288              		.cfi_def_cfa_offset 4
 289              		.cfi_offset 4, -4
 246:Drivers/STM32F7xx_HAL_Driver/Src/stm32f7xx_hal_exti.c ****   {
 247:Drivers/STM32F7xx_HAL_Driver/Src/stm32f7xx_hal_exti.c ****     return HAL_ERROR;
 248:Drivers/STM32F7xx_HAL_Driver/Src/stm32f7xx_hal_exti.c ****   }
 249:Drivers/STM32F7xx_HAL_Driver/Src/stm32f7xx_hal_exti.c **** 
 250:Drivers/STM32F7xx_HAL_Driver/Src/stm32f7xx_hal_exti.c ****   /* Check the parameter */
 251:Drivers/STM32F7xx_HAL_Driver/Src/stm32f7xx_hal_exti.c ****   assert_param(IS_EXTI_LINE(hexti->Line));
 290              		.loc 1 251 3 is_stmt 1 view .LVU87
 252:Drivers/STM32F7xx_HAL_Driver/Src/stm32f7xx_hal_exti.c **** 
 253:Drivers/STM32F7xx_HAL_Driver/Src/stm32f7xx_hal_exti.c ****   /* Store handle line number to configuration structure */
 254:Drivers/STM32F7xx_HAL_Driver/Src/stm32f7xx_hal_exti.c ****   pExtiConfig->Line = hexti->Line;
ARM GAS  C:\Users\Legend\AppData\Local\Temp\ccDp7bOI.s 			page 11


 291              		.loc 1 254 3 view .LVU88
 292              		.loc 1 254 28 is_stmt 0 view .LVU89
 293 0014 0068     		ldr	r0, [r0]
 294              	.LVL20:
 295              		.loc 1 254 21 view .LVU90
 296 0016 1860     		str	r0, [r3]
 255:Drivers/STM32F7xx_HAL_Driver/Src/stm32f7xx_hal_exti.c **** 
 256:Drivers/STM32F7xx_HAL_Driver/Src/stm32f7xx_hal_exti.c ****   /* Compute line mask */
 257:Drivers/STM32F7xx_HAL_Driver/Src/stm32f7xx_hal_exti.c ****   linepos = (pExtiConfig->Line & EXTI_PIN_MASK);
 297              		.loc 1 257 3 is_stmt 1 view .LVU91
 298              		.loc 1 257 11 is_stmt 0 view .LVU92
 299 0018 00F01F04 		and	r4, r0, #31
 300              	.LVL21:
 258:Drivers/STM32F7xx_HAL_Driver/Src/stm32f7xx_hal_exti.c ****   maskline = (1uL << linepos);
 301              		.loc 1 258 3 is_stmt 1 view .LVU93
 302              		.loc 1 258 12 is_stmt 0 view .LVU94
 303 001c 0122     		movs	r2, #1
 304 001e A240     		lsls	r2, r2, r4
 305              	.LVL22:
 259:Drivers/STM32F7xx_HAL_Driver/Src/stm32f7xx_hal_exti.c **** 
 260:Drivers/STM32F7xx_HAL_Driver/Src/stm32f7xx_hal_exti.c ****   /* 1] Get core mode : interrupt */
 261:Drivers/STM32F7xx_HAL_Driver/Src/stm32f7xx_hal_exti.c **** 
 262:Drivers/STM32F7xx_HAL_Driver/Src/stm32f7xx_hal_exti.c ****   /* Check if selected line is enable */
 263:Drivers/STM32F7xx_HAL_Driver/Src/stm32f7xx_hal_exti.c ****   if ((EXTI->IMR & maskline) != 0x00u)
 306              		.loc 1 263 3 is_stmt 1 view .LVU95
 307              		.loc 1 263 12 is_stmt 0 view .LVU96
 308 0020 2149     		ldr	r1, .L35
 309 0022 0968     		ldr	r1, [r1]
 310              		.loc 1 263 6 view .LVU97
 311 0024 1142     		tst	r1, r2
 312 0026 22D0     		beq	.L21
 264:Drivers/STM32F7xx_HAL_Driver/Src/stm32f7xx_hal_exti.c ****   {
 265:Drivers/STM32F7xx_HAL_Driver/Src/stm32f7xx_hal_exti.c ****     pExtiConfig->Mode = EXTI_MODE_INTERRUPT;
 313              		.loc 1 265 5 is_stmt 1 view .LVU98
 314              		.loc 1 265 23 is_stmt 0 view .LVU99
 315 0028 0121     		movs	r1, #1
 316 002a 5960     		str	r1, [r3, #4]
 317              	.L22:
 266:Drivers/STM32F7xx_HAL_Driver/Src/stm32f7xx_hal_exti.c ****   }
 267:Drivers/STM32F7xx_HAL_Driver/Src/stm32f7xx_hal_exti.c ****   else
 268:Drivers/STM32F7xx_HAL_Driver/Src/stm32f7xx_hal_exti.c ****   {
 269:Drivers/STM32F7xx_HAL_Driver/Src/stm32f7xx_hal_exti.c ****     pExtiConfig->Mode = EXTI_MODE_NONE;
 270:Drivers/STM32F7xx_HAL_Driver/Src/stm32f7xx_hal_exti.c ****   }
 271:Drivers/STM32F7xx_HAL_Driver/Src/stm32f7xx_hal_exti.c **** 
 272:Drivers/STM32F7xx_HAL_Driver/Src/stm32f7xx_hal_exti.c ****   /* Get event mode */
 273:Drivers/STM32F7xx_HAL_Driver/Src/stm32f7xx_hal_exti.c ****   /* Check if selected line is enable */
 274:Drivers/STM32F7xx_HAL_Driver/Src/stm32f7xx_hal_exti.c ****   if ((EXTI->EMR & maskline) != 0x00u)
 318              		.loc 1 274 3 is_stmt 1 view .LVU100
 319              		.loc 1 274 12 is_stmt 0 view .LVU101
 320 002c 1E49     		ldr	r1, .L35
 321 002e 4968     		ldr	r1, [r1, #4]
 322              		.loc 1 274 6 view .LVU102
 323 0030 1142     		tst	r1, r2
 324 0032 03D0     		beq	.L23
 275:Drivers/STM32F7xx_HAL_Driver/Src/stm32f7xx_hal_exti.c ****   {
 276:Drivers/STM32F7xx_HAL_Driver/Src/stm32f7xx_hal_exti.c ****     pExtiConfig->Mode |= EXTI_MODE_EVENT;
 325              		.loc 1 276 5 is_stmt 1 view .LVU103
ARM GAS  C:\Users\Legend\AppData\Local\Temp\ccDp7bOI.s 			page 12


 326              		.loc 1 276 23 is_stmt 0 view .LVU104
 327 0034 5968     		ldr	r1, [r3, #4]
 328 0036 41F00201 		orr	r1, r1, #2
 329 003a 5960     		str	r1, [r3, #4]
 330              	.L23:
 277:Drivers/STM32F7xx_HAL_Driver/Src/stm32f7xx_hal_exti.c ****   }
 278:Drivers/STM32F7xx_HAL_Driver/Src/stm32f7xx_hal_exti.c **** 
 279:Drivers/STM32F7xx_HAL_Driver/Src/stm32f7xx_hal_exti.c ****   /* 2] Get trigger for configurable lines : rising */
 280:Drivers/STM32F7xx_HAL_Driver/Src/stm32f7xx_hal_exti.c ****   if ((pExtiConfig->Line & EXTI_CONFIG) != 0x00u)
 331              		.loc 1 280 3 is_stmt 1 view .LVU105
 332              		.loc 1 280 6 is_stmt 0 view .LVU106
 333 003c 10F0007F 		tst	r0, #33554432
 334 0040 2AD0     		beq	.L24
 281:Drivers/STM32F7xx_HAL_Driver/Src/stm32f7xx_hal_exti.c ****   {
 282:Drivers/STM32F7xx_HAL_Driver/Src/stm32f7xx_hal_exti.c ****     /* Check if configuration of selected line is enable */
 283:Drivers/STM32F7xx_HAL_Driver/Src/stm32f7xx_hal_exti.c ****     if ((EXTI->RTSR & maskline) != 0x00u)
 335              		.loc 1 283 5 is_stmt 1 view .LVU107
 336              		.loc 1 283 14 is_stmt 0 view .LVU108
 337 0042 1949     		ldr	r1, .L35
 338 0044 8968     		ldr	r1, [r1, #8]
 339              		.loc 1 283 8 view .LVU109
 340 0046 1142     		tst	r1, r2
 341 0048 14D0     		beq	.L25
 284:Drivers/STM32F7xx_HAL_Driver/Src/stm32f7xx_hal_exti.c ****     {
 285:Drivers/STM32F7xx_HAL_Driver/Src/stm32f7xx_hal_exti.c ****       pExtiConfig->Trigger = EXTI_TRIGGER_RISING;
 342              		.loc 1 285 7 is_stmt 1 view .LVU110
 343              		.loc 1 285 28 is_stmt 0 view .LVU111
 344 004a 0121     		movs	r1, #1
 345 004c 9960     		str	r1, [r3, #8]
 346              	.L26:
 286:Drivers/STM32F7xx_HAL_Driver/Src/stm32f7xx_hal_exti.c ****     }
 287:Drivers/STM32F7xx_HAL_Driver/Src/stm32f7xx_hal_exti.c ****     else
 288:Drivers/STM32F7xx_HAL_Driver/Src/stm32f7xx_hal_exti.c ****     {
 289:Drivers/STM32F7xx_HAL_Driver/Src/stm32f7xx_hal_exti.c ****       pExtiConfig->Trigger = EXTI_TRIGGER_NONE;
 290:Drivers/STM32F7xx_HAL_Driver/Src/stm32f7xx_hal_exti.c ****     }
 291:Drivers/STM32F7xx_HAL_Driver/Src/stm32f7xx_hal_exti.c **** 
 292:Drivers/STM32F7xx_HAL_Driver/Src/stm32f7xx_hal_exti.c ****     /* Get falling configuration */
 293:Drivers/STM32F7xx_HAL_Driver/Src/stm32f7xx_hal_exti.c ****     /* Check if configuration of selected line is enable */
 294:Drivers/STM32F7xx_HAL_Driver/Src/stm32f7xx_hal_exti.c ****     if ((EXTI->FTSR & maskline) != 0x00u)
 347              		.loc 1 294 5 is_stmt 1 view .LVU112
 348              		.loc 1 294 14 is_stmt 0 view .LVU113
 349 004e 1649     		ldr	r1, .L35
 350 0050 C968     		ldr	r1, [r1, #12]
 351              		.loc 1 294 8 view .LVU114
 352 0052 1142     		tst	r1, r2
 353 0054 03D0     		beq	.L27
 295:Drivers/STM32F7xx_HAL_Driver/Src/stm32f7xx_hal_exti.c ****     {
 296:Drivers/STM32F7xx_HAL_Driver/Src/stm32f7xx_hal_exti.c ****       pExtiConfig->Trigger |= EXTI_TRIGGER_FALLING;
 354              		.loc 1 296 7 is_stmt 1 view .LVU115
 355              		.loc 1 296 28 is_stmt 0 view .LVU116
 356 0056 9A68     		ldr	r2, [r3, #8]
 357              	.LVL23:
 358              		.loc 1 296 28 view .LVU117
 359 0058 42F00202 		orr	r2, r2, #2
 360 005c 9A60     		str	r2, [r3, #8]
 361              	.L27:
 297:Drivers/STM32F7xx_HAL_Driver/Src/stm32f7xx_hal_exti.c ****     }
ARM GAS  C:\Users\Legend\AppData\Local\Temp\ccDp7bOI.s 			page 13


 298:Drivers/STM32F7xx_HAL_Driver/Src/stm32f7xx_hal_exti.c **** 
 299:Drivers/STM32F7xx_HAL_Driver/Src/stm32f7xx_hal_exti.c ****     /* Get Gpio port selection for gpio lines */
 300:Drivers/STM32F7xx_HAL_Driver/Src/stm32f7xx_hal_exti.c ****     if ((pExtiConfig->Line & EXTI_GPIO) == EXTI_GPIO)
 362              		.loc 1 300 5 is_stmt 1 view .LVU118
 363              		.loc 1 300 28 is_stmt 0 view .LVU119
 364 005e 00F0C062 		and	r2, r0, #100663296
 365              		.loc 1 300 8 view .LVU120
 366 0062 B2F1C06F 		cmp	r2, #100663296
 367 0066 08D0     		beq	.L34
 301:Drivers/STM32F7xx_HAL_Driver/Src/stm32f7xx_hal_exti.c ****     {
 302:Drivers/STM32F7xx_HAL_Driver/Src/stm32f7xx_hal_exti.c ****       assert_param(IS_EXTI_GPIO_PIN(linepos));
 303:Drivers/STM32F7xx_HAL_Driver/Src/stm32f7xx_hal_exti.c **** 
 304:Drivers/STM32F7xx_HAL_Driver/Src/stm32f7xx_hal_exti.c ****       regval = SYSCFG->EXTICR[linepos >> 2u];
 305:Drivers/STM32F7xx_HAL_Driver/Src/stm32f7xx_hal_exti.c ****       pExtiConfig->GPIOSel = ((regval << (SYSCFG_EXTICR1_EXTI1_Pos * (3uL - (linepos & 0x03u)))) >>
 306:Drivers/STM32F7xx_HAL_Driver/Src/stm32f7xx_hal_exti.c ****     }
 307:Drivers/STM32F7xx_HAL_Driver/Src/stm32f7xx_hal_exti.c ****     else
 308:Drivers/STM32F7xx_HAL_Driver/Src/stm32f7xx_hal_exti.c ****     {
 309:Drivers/STM32F7xx_HAL_Driver/Src/stm32f7xx_hal_exti.c ****       pExtiConfig->GPIOSel = 0x00u;
 368              		.loc 1 309 7 is_stmt 1 view .LVU121
 369              		.loc 1 309 28 is_stmt 0 view .LVU122
 370 0068 0020     		movs	r0, #0
 371 006a D860     		str	r0, [r3, #12]
 372 006c 17E0     		b	.L20
 373              	.LVL24:
 374              	.L21:
 269:Drivers/STM32F7xx_HAL_Driver/Src/stm32f7xx_hal_exti.c ****   }
 375              		.loc 1 269 5 is_stmt 1 view .LVU123
 269:Drivers/STM32F7xx_HAL_Driver/Src/stm32f7xx_hal_exti.c ****   }
 376              		.loc 1 269 23 is_stmt 0 view .LVU124
 377 006e 0021     		movs	r1, #0
 378 0070 5960     		str	r1, [r3, #4]
 379 0072 DBE7     		b	.L22
 380              	.L25:
 289:Drivers/STM32F7xx_HAL_Driver/Src/stm32f7xx_hal_exti.c ****     }
 381              		.loc 1 289 7 is_stmt 1 view .LVU125
 289:Drivers/STM32F7xx_HAL_Driver/Src/stm32f7xx_hal_exti.c ****     }
 382              		.loc 1 289 28 is_stmt 0 view .LVU126
 383 0074 0021     		movs	r1, #0
 384 0076 9960     		str	r1, [r3, #8]
 385 0078 E9E7     		b	.L26
 386              	.LVL25:
 387              	.L34:
 302:Drivers/STM32F7xx_HAL_Driver/Src/stm32f7xx_hal_exti.c **** 
 388              		.loc 1 302 7 is_stmt 1 view .LVU127
 304:Drivers/STM32F7xx_HAL_Driver/Src/stm32f7xx_hal_exti.c ****       pExtiConfig->GPIOSel = ((regval << (SYSCFG_EXTICR1_EXTI1_Pos * (3uL - (linepos & 0x03u)))) >>
 389              		.loc 1 304 7 view .LVU128
 304:Drivers/STM32F7xx_HAL_Driver/Src/stm32f7xx_hal_exti.c ****       pExtiConfig->GPIOSel = ((regval << (SYSCFG_EXTICR1_EXTI1_Pos * (3uL - (linepos & 0x03u)))) >>
 390              		.loc 1 304 39 is_stmt 0 view .LVU129
 391 007a A208     		lsrs	r2, r4, #2
 304:Drivers/STM32F7xx_HAL_Driver/Src/stm32f7xx_hal_exti.c ****       pExtiConfig->GPIOSel = ((regval << (SYSCFG_EXTICR1_EXTI1_Pos * (3uL - (linepos & 0x03u)))) >>
 392              		.loc 1 304 14 view .LVU130
 393 007c 0232     		adds	r2, r2, #2
 394 007e 0B49     		ldr	r1, .L35+4
 395 0080 51F82210 		ldr	r1, [r1, r2, lsl #2]
 396              	.LVL26:
 305:Drivers/STM32F7xx_HAL_Driver/Src/stm32f7xx_hal_exti.c ****     }
 397              		.loc 1 305 7 is_stmt 1 view .LVU131
ARM GAS  C:\Users\Legend\AppData\Local\Temp\ccDp7bOI.s 			page 14


 305:Drivers/STM32F7xx_HAL_Driver/Src/stm32f7xx_hal_exti.c ****     }
 398              		.loc 1 305 75 is_stmt 0 view .LVU132
 399 0084 E243     		mvns	r2, r4
 400 0086 02F00302 		and	r2, r2, #3
 305:Drivers/STM32F7xx_HAL_Driver/Src/stm32f7xx_hal_exti.c ****     }
 401              		.loc 1 305 68 view .LVU133
 402 008a 9200     		lsls	r2, r2, #2
 305:Drivers/STM32F7xx_HAL_Driver/Src/stm32f7xx_hal_exti.c ****     }
 403              		.loc 1 305 39 view .LVU134
 404 008c 01FA02F2 		lsl	r2, r1, r2
 305:Drivers/STM32F7xx_HAL_Driver/Src/stm32f7xx_hal_exti.c ****     }
 405              		.loc 1 305 98 view .LVU135
 406 0090 120E     		lsrs	r2, r2, #24
 305:Drivers/STM32F7xx_HAL_Driver/Src/stm32f7xx_hal_exti.c ****     }
 407              		.loc 1 305 28 view .LVU136
 408 0092 DA60     		str	r2, [r3, #12]
 310:Drivers/STM32F7xx_HAL_Driver/Src/stm32f7xx_hal_exti.c ****     }
 311:Drivers/STM32F7xx_HAL_Driver/Src/stm32f7xx_hal_exti.c ****   }
 312:Drivers/STM32F7xx_HAL_Driver/Src/stm32f7xx_hal_exti.c ****   else
 313:Drivers/STM32F7xx_HAL_Driver/Src/stm32f7xx_hal_exti.c ****   {
 314:Drivers/STM32F7xx_HAL_Driver/Src/stm32f7xx_hal_exti.c ****     /* No Trigger selected */
 315:Drivers/STM32F7xx_HAL_Driver/Src/stm32f7xx_hal_exti.c ****     pExtiConfig->Trigger = EXTI_TRIGGER_NONE;
 316:Drivers/STM32F7xx_HAL_Driver/Src/stm32f7xx_hal_exti.c ****     pExtiConfig->GPIOSel = 0x00u;
 317:Drivers/STM32F7xx_HAL_Driver/Src/stm32f7xx_hal_exti.c ****   }
 318:Drivers/STM32F7xx_HAL_Driver/Src/stm32f7xx_hal_exti.c **** 
 319:Drivers/STM32F7xx_HAL_Driver/Src/stm32f7xx_hal_exti.c ****   return HAL_OK;
 409              		.loc 1 319 10 view .LVU137
 410 0094 0020     		movs	r0, #0
 411 0096 02E0     		b	.L20
 412              	.LVL27:
 413              	.L24:
 315:Drivers/STM32F7xx_HAL_Driver/Src/stm32f7xx_hal_exti.c ****     pExtiConfig->GPIOSel = 0x00u;
 414              		.loc 1 315 5 is_stmt 1 view .LVU138
 315:Drivers/STM32F7xx_HAL_Driver/Src/stm32f7xx_hal_exti.c ****     pExtiConfig->GPIOSel = 0x00u;
 415              		.loc 1 315 26 is_stmt 0 view .LVU139
 416 0098 0020     		movs	r0, #0
 417 009a 9860     		str	r0, [r3, #8]
 316:Drivers/STM32F7xx_HAL_Driver/Src/stm32f7xx_hal_exti.c ****   }
 418              		.loc 1 316 5 is_stmt 1 view .LVU140
 316:Drivers/STM32F7xx_HAL_Driver/Src/stm32f7xx_hal_exti.c ****   }
 419              		.loc 1 316 26 is_stmt 0 view .LVU141
 420 009c D860     		str	r0, [r3, #12]
 421              	.LVL28:
 422              	.L20:
 320:Drivers/STM32F7xx_HAL_Driver/Src/stm32f7xx_hal_exti.c **** }
 423              		.loc 1 320 1 view .LVU142
 424 009e 5DF8044B 		ldr	r4, [sp], #4
 425              	.LCFI5:
 426              		.cfi_restore 4
 427              		.cfi_def_cfa_offset 0
 428              	.LVL29:
 429              		.loc 1 320 1 view .LVU143
 430 00a2 7047     		bx	lr
 431              	.LVL30:
 432              	.L29:
 247:Drivers/STM32F7xx_HAL_Driver/Src/stm32f7xx_hal_exti.c ****   }
 433              		.loc 1 247 12 view .LVU144
ARM GAS  C:\Users\Legend\AppData\Local\Temp\ccDp7bOI.s 			page 15


 434 00a4 0120     		movs	r0, #1
 435              	.LVL31:
 436              		.loc 1 320 1 view .LVU145
 437 00a6 7047     		bx	lr
 438              	.L36:
 439              		.align	2
 440              	.L35:
 441 00a8 003C0140 		.word	1073822720
 442 00ac 00380140 		.word	1073821696
 443              		.cfi_endproc
 444              	.LFE142:
 446              		.section	.text.HAL_EXTI_ClearConfigLine,"ax",%progbits
 447              		.align	1
 448              		.global	HAL_EXTI_ClearConfigLine
 449              		.syntax unified
 450              		.thumb
 451              		.thumb_func
 452              		.fpu fpv5-d16
 454              	HAL_EXTI_ClearConfigLine:
 455              	.LVL32:
 456              	.LFB143:
 321:Drivers/STM32F7xx_HAL_Driver/Src/stm32f7xx_hal_exti.c **** 
 322:Drivers/STM32F7xx_HAL_Driver/Src/stm32f7xx_hal_exti.c **** /**
 323:Drivers/STM32F7xx_HAL_Driver/Src/stm32f7xx_hal_exti.c ****   * @brief  Clear whole configuration of a dedicated Exti line.
 324:Drivers/STM32F7xx_HAL_Driver/Src/stm32f7xx_hal_exti.c ****   * @param  hexti Exti handle.
 325:Drivers/STM32F7xx_HAL_Driver/Src/stm32f7xx_hal_exti.c ****   * @retval HAL Status.
 326:Drivers/STM32F7xx_HAL_Driver/Src/stm32f7xx_hal_exti.c ****   */
 327:Drivers/STM32F7xx_HAL_Driver/Src/stm32f7xx_hal_exti.c **** HAL_StatusTypeDef HAL_EXTI_ClearConfigLine(EXTI_HandleTypeDef *hexti)
 328:Drivers/STM32F7xx_HAL_Driver/Src/stm32f7xx_hal_exti.c **** {
 457              		.loc 1 328 1 is_stmt 1 view -0
 458              		.cfi_startproc
 459              		@ args = 0, pretend = 0, frame = 0
 460              		@ frame_needed = 0, uses_anonymous_args = 0
 461              		@ link register save eliminated.
 329:Drivers/STM32F7xx_HAL_Driver/Src/stm32f7xx_hal_exti.c ****   uint32_t regval;
 462              		.loc 1 329 3 view .LVU147
 330:Drivers/STM32F7xx_HAL_Driver/Src/stm32f7xx_hal_exti.c ****   uint32_t linepos;
 463              		.loc 1 330 3 view .LVU148
 331:Drivers/STM32F7xx_HAL_Driver/Src/stm32f7xx_hal_exti.c ****   uint32_t maskline;
 464              		.loc 1 331 3 view .LVU149
 332:Drivers/STM32F7xx_HAL_Driver/Src/stm32f7xx_hal_exti.c **** 
 333:Drivers/STM32F7xx_HAL_Driver/Src/stm32f7xx_hal_exti.c ****   /* Check null pointer */
 334:Drivers/STM32F7xx_HAL_Driver/Src/stm32f7xx_hal_exti.c ****   if (hexti == NULL)
 465              		.loc 1 334 3 view .LVU150
 466              		.loc 1 334 6 is_stmt 0 view .LVU151
 467 0000 0028     		cmp	r0, #0
 468 0002 34D0     		beq	.L39
 328:Drivers/STM32F7xx_HAL_Driver/Src/stm32f7xx_hal_exti.c ****   uint32_t regval;
 469              		.loc 1 328 1 view .LVU152
 470 0004 70B4     		push	{r4, r5, r6}
 471              	.LCFI6:
 472              		.cfi_def_cfa_offset 12
 473              		.cfi_offset 4, -12
 474              		.cfi_offset 5, -8
 475              		.cfi_offset 6, -4
 476 0006 0446     		mov	r4, r0
 335:Drivers/STM32F7xx_HAL_Driver/Src/stm32f7xx_hal_exti.c ****   {
ARM GAS  C:\Users\Legend\AppData\Local\Temp\ccDp7bOI.s 			page 16


 336:Drivers/STM32F7xx_HAL_Driver/Src/stm32f7xx_hal_exti.c ****     return HAL_ERROR;
 337:Drivers/STM32F7xx_HAL_Driver/Src/stm32f7xx_hal_exti.c ****   }
 338:Drivers/STM32F7xx_HAL_Driver/Src/stm32f7xx_hal_exti.c **** 
 339:Drivers/STM32F7xx_HAL_Driver/Src/stm32f7xx_hal_exti.c ****   /* Check the parameter */
 340:Drivers/STM32F7xx_HAL_Driver/Src/stm32f7xx_hal_exti.c ****   assert_param(IS_EXTI_LINE(hexti->Line));
 477              		.loc 1 340 3 is_stmt 1 view .LVU153
 341:Drivers/STM32F7xx_HAL_Driver/Src/stm32f7xx_hal_exti.c **** 
 342:Drivers/STM32F7xx_HAL_Driver/Src/stm32f7xx_hal_exti.c ****   /* compute line mask */
 343:Drivers/STM32F7xx_HAL_Driver/Src/stm32f7xx_hal_exti.c ****   linepos = (hexti->Line & EXTI_PIN_MASK);
 478              		.loc 1 343 3 view .LVU154
 479              		.loc 1 343 19 is_stmt 0 view .LVU155
 480 0008 0668     		ldr	r6, [r0]
 481              		.loc 1 343 11 view .LVU156
 482 000a 06F01F00 		and	r0, r6, #31
 483              	.LVL33:
 344:Drivers/STM32F7xx_HAL_Driver/Src/stm32f7xx_hal_exti.c ****   maskline = (1uL << linepos);
 484              		.loc 1 344 3 is_stmt 1 view .LVU157
 485              		.loc 1 344 12 is_stmt 0 view .LVU158
 486 000e 0123     		movs	r3, #1
 487 0010 8340     		lsls	r3, r3, r0
 488              	.LVL34:
 345:Drivers/STM32F7xx_HAL_Driver/Src/stm32f7xx_hal_exti.c **** 
 346:Drivers/STM32F7xx_HAL_Driver/Src/stm32f7xx_hal_exti.c ****   /* 1] Clear interrupt mode */
 347:Drivers/STM32F7xx_HAL_Driver/Src/stm32f7xx_hal_exti.c ****   EXTI->IMR = (EXTI->IMR & ~maskline);
 489              		.loc 1 347 3 is_stmt 1 view .LVU159
 490              		.loc 1 347 20 is_stmt 0 view .LVU160
 491 0012 194A     		ldr	r2, .L47
 492 0014 1168     		ldr	r1, [r2]
 493              		.loc 1 347 28 view .LVU161
 494 0016 DD43     		mvns	r5, r3
 495              		.loc 1 347 26 view .LVU162
 496 0018 21EA0301 		bic	r1, r1, r3
 497              		.loc 1 347 13 view .LVU163
 498 001c 1160     		str	r1, [r2]
 348:Drivers/STM32F7xx_HAL_Driver/Src/stm32f7xx_hal_exti.c **** 
 349:Drivers/STM32F7xx_HAL_Driver/Src/stm32f7xx_hal_exti.c ****   /* 2] Clear event mode */
 350:Drivers/STM32F7xx_HAL_Driver/Src/stm32f7xx_hal_exti.c ****   EXTI->EMR = (EXTI->EMR & ~maskline);
 499              		.loc 1 350 3 is_stmt 1 view .LVU164
 500              		.loc 1 350 20 is_stmt 0 view .LVU165
 501 001e 5168     		ldr	r1, [r2, #4]
 502              		.loc 1 350 26 view .LVU166
 503 0020 21EA0303 		bic	r3, r1, r3
 504              	.LVL35:
 505              		.loc 1 350 13 view .LVU167
 506 0024 5360     		str	r3, [r2, #4]
 351:Drivers/STM32F7xx_HAL_Driver/Src/stm32f7xx_hal_exti.c **** 
 352:Drivers/STM32F7xx_HAL_Driver/Src/stm32f7xx_hal_exti.c ****   /* 3] Clear triggers in case of configurable lines */
 353:Drivers/STM32F7xx_HAL_Driver/Src/stm32f7xx_hal_exti.c ****   if ((hexti->Line & EXTI_CONFIG) != 0x00u)
 507              		.loc 1 353 3 is_stmt 1 view .LVU168
 508              		.loc 1 353 13 is_stmt 0 view .LVU169
 509 0026 2368     		ldr	r3, [r4]
 510              		.loc 1 353 6 view .LVU170
 511 0028 13F0007F 		tst	r3, #33554432
 512 002c 21D0     		beq	.L40
 354:Drivers/STM32F7xx_HAL_Driver/Src/stm32f7xx_hal_exti.c ****   {
 355:Drivers/STM32F7xx_HAL_Driver/Src/stm32f7xx_hal_exti.c ****     EXTI->RTSR = (EXTI->RTSR & ~maskline);
 513              		.loc 1 355 5 is_stmt 1 view .LVU171
ARM GAS  C:\Users\Legend\AppData\Local\Temp\ccDp7bOI.s 			page 17


 514              		.loc 1 355 23 is_stmt 0 view .LVU172
 515 002e 1346     		mov	r3, r2
 516 0030 9268     		ldr	r2, [r2, #8]
 517              		.loc 1 355 30 view .LVU173
 518 0032 2A40     		ands	r2, r2, r5
 519              		.loc 1 355 16 view .LVU174
 520 0034 9A60     		str	r2, [r3, #8]
 356:Drivers/STM32F7xx_HAL_Driver/Src/stm32f7xx_hal_exti.c ****     EXTI->FTSR = (EXTI->FTSR & ~maskline);
 521              		.loc 1 356 5 is_stmt 1 view .LVU175
 522              		.loc 1 356 23 is_stmt 0 view .LVU176
 523 0036 DA68     		ldr	r2, [r3, #12]
 524              		.loc 1 356 30 view .LVU177
 525 0038 1540     		ands	r5, r5, r2
 526              	.LVL36:
 527              		.loc 1 356 16 view .LVU178
 528 003a DD60     		str	r5, [r3, #12]
 357:Drivers/STM32F7xx_HAL_Driver/Src/stm32f7xx_hal_exti.c **** 
 358:Drivers/STM32F7xx_HAL_Driver/Src/stm32f7xx_hal_exti.c ****     /* Get Gpio port selection for gpio lines */
 359:Drivers/STM32F7xx_HAL_Driver/Src/stm32f7xx_hal_exti.c ****     if ((hexti->Line & EXTI_GPIO) == EXTI_GPIO)
 529              		.loc 1 359 5 is_stmt 1 view .LVU179
 530              		.loc 1 359 15 is_stmt 0 view .LVU180
 531 003c 2368     		ldr	r3, [r4]
 532              		.loc 1 359 22 view .LVU181
 533 003e 03F0C063 		and	r3, r3, #100663296
 534              		.loc 1 359 8 view .LVU182
 535 0042 B3F1C06F 		cmp	r3, #100663296
 536 0046 01D0     		beq	.L46
 360:Drivers/STM32F7xx_HAL_Driver/Src/stm32f7xx_hal_exti.c ****     {
 361:Drivers/STM32F7xx_HAL_Driver/Src/stm32f7xx_hal_exti.c ****       assert_param(IS_EXTI_GPIO_PIN(linepos));
 362:Drivers/STM32F7xx_HAL_Driver/Src/stm32f7xx_hal_exti.c **** 
 363:Drivers/STM32F7xx_HAL_Driver/Src/stm32f7xx_hal_exti.c ****       regval = SYSCFG->EXTICR[linepos >> 2u];
 364:Drivers/STM32F7xx_HAL_Driver/Src/stm32f7xx_hal_exti.c ****       regval &= ~(SYSCFG_EXTICR1_EXTI0 << (SYSCFG_EXTICR1_EXTI1_Pos * (linepos & 0x03u)));
 365:Drivers/STM32F7xx_HAL_Driver/Src/stm32f7xx_hal_exti.c ****       SYSCFG->EXTICR[linepos >> 2u] = regval;
 366:Drivers/STM32F7xx_HAL_Driver/Src/stm32f7xx_hal_exti.c ****     }
 367:Drivers/STM32F7xx_HAL_Driver/Src/stm32f7xx_hal_exti.c ****   }
 368:Drivers/STM32F7xx_HAL_Driver/Src/stm32f7xx_hal_exti.c **** 
 369:Drivers/STM32F7xx_HAL_Driver/Src/stm32f7xx_hal_exti.c ****   return HAL_OK;
 537              		.loc 1 369 10 view .LVU183
 538 0048 0020     		movs	r0, #0
 539              	.LVL37:
 540              		.loc 1 369 10 view .LVU184
 541 004a 13E0     		b	.L38
 542              	.LVL38:
 543              	.L46:
 361:Drivers/STM32F7xx_HAL_Driver/Src/stm32f7xx_hal_exti.c **** 
 544              		.loc 1 361 7 is_stmt 1 view .LVU185
 363:Drivers/STM32F7xx_HAL_Driver/Src/stm32f7xx_hal_exti.c ****       regval &= ~(SYSCFG_EXTICR1_EXTI0 << (SYSCFG_EXTICR1_EXTI1_Pos * (linepos & 0x03u)));
 545              		.loc 1 363 7 view .LVU186
 363:Drivers/STM32F7xx_HAL_Driver/Src/stm32f7xx_hal_exti.c ****       regval &= ~(SYSCFG_EXTICR1_EXTI0 << (SYSCFG_EXTICR1_EXTI1_Pos * (linepos & 0x03u)));
 546              		.loc 1 363 39 is_stmt 0 view .LVU187
 547 004c 8008     		lsrs	r0, r0, #2
 548              	.LVL39:
 363:Drivers/STM32F7xx_HAL_Driver/Src/stm32f7xx_hal_exti.c ****       regval &= ~(SYSCFG_EXTICR1_EXTI0 << (SYSCFG_EXTICR1_EXTI1_Pos * (linepos & 0x03u)));
 549              		.loc 1 363 14 view .LVU188
 550 004e 0B49     		ldr	r1, .L47+4
 551 0050 0230     		adds	r0, r0, #2
 552 0052 51F82030 		ldr	r3, [r1, r0, lsl #2]
ARM GAS  C:\Users\Legend\AppData\Local\Temp\ccDp7bOI.s 			page 18


 553              	.LVL40:
 364:Drivers/STM32F7xx_HAL_Driver/Src/stm32f7xx_hal_exti.c ****       SYSCFG->EXTICR[linepos >> 2u] = regval;
 554              		.loc 1 364 7 is_stmt 1 view .LVU189
 364:Drivers/STM32F7xx_HAL_Driver/Src/stm32f7xx_hal_exti.c ****       SYSCFG->EXTICR[linepos >> 2u] = regval;
 555              		.loc 1 364 80 is_stmt 0 view .LVU190
 556 0056 06F00306 		and	r6, r6, #3
 557              	.LVL41:
 364:Drivers/STM32F7xx_HAL_Driver/Src/stm32f7xx_hal_exti.c ****       SYSCFG->EXTICR[linepos >> 2u] = regval;
 558              		.loc 1 364 69 view .LVU191
 559 005a B600     		lsls	r6, r6, #2
 364:Drivers/STM32F7xx_HAL_Driver/Src/stm32f7xx_hal_exti.c ****       SYSCFG->EXTICR[linepos >> 2u] = regval;
 560              		.loc 1 364 40 view .LVU192
 561 005c 0F22     		movs	r2, #15
 562 005e 02FA06F6 		lsl	r6, r2, r6
 364:Drivers/STM32F7xx_HAL_Driver/Src/stm32f7xx_hal_exti.c ****       SYSCFG->EXTICR[linepos >> 2u] = regval;
 563              		.loc 1 364 14 view .LVU193
 564 0062 23EA0606 		bic	r6, r3, r6
 565              	.LVL42:
 365:Drivers/STM32F7xx_HAL_Driver/Src/stm32f7xx_hal_exti.c ****     }
 566              		.loc 1 365 7 is_stmt 1 view .LVU194
 365:Drivers/STM32F7xx_HAL_Driver/Src/stm32f7xx_hal_exti.c ****     }
 567              		.loc 1 365 37 is_stmt 0 view .LVU195
 568 0066 41F82060 		str	r6, [r1, r0, lsl #2]
 569              		.loc 1 369 10 view .LVU196
 570 006a 0020     		movs	r0, #0
 571 006c 02E0     		b	.L38
 572              	.LVL43:
 573              	.L39:
 574              	.LCFI7:
 575              		.cfi_def_cfa_offset 0
 576              		.cfi_restore 4
 577              		.cfi_restore 5
 578              		.cfi_restore 6
 336:Drivers/STM32F7xx_HAL_Driver/Src/stm32f7xx_hal_exti.c ****   }
 579              		.loc 1 336 12 view .LVU197
 580 006e 0120     		movs	r0, #1
 581              	.LVL44:
 370:Drivers/STM32F7xx_HAL_Driver/Src/stm32f7xx_hal_exti.c **** }
 582              		.loc 1 370 1 view .LVU198
 583 0070 7047     		bx	lr
 584              	.LVL45:
 585              	.L40:
 586              	.LCFI8:
 587              		.cfi_def_cfa_offset 12
 588              		.cfi_offset 4, -12
 589              		.cfi_offset 5, -8
 590              		.cfi_offset 6, -4
 369:Drivers/STM32F7xx_HAL_Driver/Src/stm32f7xx_hal_exti.c **** }
 591              		.loc 1 369 10 view .LVU199
 592 0072 0020     		movs	r0, #0
 593              	.LVL46:
 594              	.L38:
 595              		.loc 1 370 1 view .LVU200
 596 0074 70BC     		pop	{r4, r5, r6}
 597              	.LCFI9:
 598              		.cfi_restore 6
 599              		.cfi_restore 5
ARM GAS  C:\Users\Legend\AppData\Local\Temp\ccDp7bOI.s 			page 19


 600              		.cfi_restore 4
 601              		.cfi_def_cfa_offset 0
 602              	.LVL47:
 603              		.loc 1 370 1 view .LVU201
 604 0076 7047     		bx	lr
 605              	.L48:
 606              		.align	2
 607              	.L47:
 608 0078 003C0140 		.word	1073822720
 609 007c 00380140 		.word	1073821696
 610              		.cfi_endproc
 611              	.LFE143:
 613              		.section	.text.HAL_EXTI_RegisterCallback,"ax",%progbits
 614              		.align	1
 615              		.global	HAL_EXTI_RegisterCallback
 616              		.syntax unified
 617              		.thumb
 618              		.thumb_func
 619              		.fpu fpv5-d16
 621              	HAL_EXTI_RegisterCallback:
 622              	.LVL48:
 623              	.LFB144:
 371:Drivers/STM32F7xx_HAL_Driver/Src/stm32f7xx_hal_exti.c **** 
 372:Drivers/STM32F7xx_HAL_Driver/Src/stm32f7xx_hal_exti.c **** /**
 373:Drivers/STM32F7xx_HAL_Driver/Src/stm32f7xx_hal_exti.c ****   * @brief  Register callback for a dedicated Exti line.
 374:Drivers/STM32F7xx_HAL_Driver/Src/stm32f7xx_hal_exti.c ****   * @param  hexti Exti handle.
 375:Drivers/STM32F7xx_HAL_Driver/Src/stm32f7xx_hal_exti.c ****   * @param  CallbackID User callback identifier.
 376:Drivers/STM32F7xx_HAL_Driver/Src/stm32f7xx_hal_exti.c ****   *         This parameter can be one of @arg @ref EXTI_CallbackIDTypeDef values.
 377:Drivers/STM32F7xx_HAL_Driver/Src/stm32f7xx_hal_exti.c ****   * @param  pPendingCbfn function pointer to be stored as callback.
 378:Drivers/STM32F7xx_HAL_Driver/Src/stm32f7xx_hal_exti.c ****   * @retval HAL Status.
 379:Drivers/STM32F7xx_HAL_Driver/Src/stm32f7xx_hal_exti.c ****   */
 380:Drivers/STM32F7xx_HAL_Driver/Src/stm32f7xx_hal_exti.c **** HAL_StatusTypeDef HAL_EXTI_RegisterCallback(EXTI_HandleTypeDef *hexti, EXTI_CallbackIDTypeDef Callb
 381:Drivers/STM32F7xx_HAL_Driver/Src/stm32f7xx_hal_exti.c **** {
 624              		.loc 1 381 1 is_stmt 1 view -0
 625              		.cfi_startproc
 626              		@ args = 0, pretend = 0, frame = 0
 627              		@ frame_needed = 0, uses_anonymous_args = 0
 628              		@ link register save eliminated.
 629              		.loc 1 381 1 is_stmt 0 view .LVU203
 630 0000 0346     		mov	r3, r0
 382:Drivers/STM32F7xx_HAL_Driver/Src/stm32f7xx_hal_exti.c ****   HAL_StatusTypeDef status = HAL_OK;
 631              		.loc 1 382 3 is_stmt 1 view .LVU204
 632              	.LVL49:
 383:Drivers/STM32F7xx_HAL_Driver/Src/stm32f7xx_hal_exti.c **** 
 384:Drivers/STM32F7xx_HAL_Driver/Src/stm32f7xx_hal_exti.c ****   switch (CallbackID)
 633              		.loc 1 384 3 view .LVU205
 634 0002 0846     		mov	r0, r1
 635              	.LVL50:
 636              		.loc 1 384 3 is_stmt 0 view .LVU206
 637 0004 09B9     		cbnz	r1, .L51
 385:Drivers/STM32F7xx_HAL_Driver/Src/stm32f7xx_hal_exti.c ****   {
 386:Drivers/STM32F7xx_HAL_Driver/Src/stm32f7xx_hal_exti.c ****     case  HAL_EXTI_COMMON_CB_ID:
 387:Drivers/STM32F7xx_HAL_Driver/Src/stm32f7xx_hal_exti.c ****       hexti->PendingCallback = pPendingCbfn;
 638              		.loc 1 387 7 is_stmt 1 view .LVU207
 639              		.loc 1 387 30 is_stmt 0 view .LVU208
 640 0006 5A60     		str	r2, [r3, #4]
 388:Drivers/STM32F7xx_HAL_Driver/Src/stm32f7xx_hal_exti.c ****       break;
ARM GAS  C:\Users\Legend\AppData\Local\Temp\ccDp7bOI.s 			page 20


 641              		.loc 1 388 7 is_stmt 1 view .LVU209
 642 0008 7047     		bx	lr
 643              	.L51:
 389:Drivers/STM32F7xx_HAL_Driver/Src/stm32f7xx_hal_exti.c **** 
 390:Drivers/STM32F7xx_HAL_Driver/Src/stm32f7xx_hal_exti.c ****     default:
 391:Drivers/STM32F7xx_HAL_Driver/Src/stm32f7xx_hal_exti.c ****       status = HAL_ERROR;
 644              		.loc 1 391 14 is_stmt 0 view .LVU210
 645 000a 0120     		movs	r0, #1
 646              	.LVL51:
 392:Drivers/STM32F7xx_HAL_Driver/Src/stm32f7xx_hal_exti.c ****       break;
 393:Drivers/STM32F7xx_HAL_Driver/Src/stm32f7xx_hal_exti.c ****   }
 394:Drivers/STM32F7xx_HAL_Driver/Src/stm32f7xx_hal_exti.c **** 
 395:Drivers/STM32F7xx_HAL_Driver/Src/stm32f7xx_hal_exti.c ****   return status;
 647              		.loc 1 395 3 is_stmt 1 view .LVU211
 396:Drivers/STM32F7xx_HAL_Driver/Src/stm32f7xx_hal_exti.c **** }
 648              		.loc 1 396 1 is_stmt 0 view .LVU212
 649 000c 7047     		bx	lr
 650              		.cfi_endproc
 651              	.LFE144:
 653              		.section	.text.HAL_EXTI_GetHandle,"ax",%progbits
 654              		.align	1
 655              		.global	HAL_EXTI_GetHandle
 656              		.syntax unified
 657              		.thumb
 658              		.thumb_func
 659              		.fpu fpv5-d16
 661              	HAL_EXTI_GetHandle:
 662              	.LVL52:
 663              	.LFB145:
 397:Drivers/STM32F7xx_HAL_Driver/Src/stm32f7xx_hal_exti.c **** 
 398:Drivers/STM32F7xx_HAL_Driver/Src/stm32f7xx_hal_exti.c **** /**
 399:Drivers/STM32F7xx_HAL_Driver/Src/stm32f7xx_hal_exti.c ****   * @brief  Store line number as handle private field.
 400:Drivers/STM32F7xx_HAL_Driver/Src/stm32f7xx_hal_exti.c ****   * @param  hexti Exti handle.
 401:Drivers/STM32F7xx_HAL_Driver/Src/stm32f7xx_hal_exti.c ****   * @param  ExtiLine Exti line number.
 402:Drivers/STM32F7xx_HAL_Driver/Src/stm32f7xx_hal_exti.c ****   *         This parameter can be from 0 to @ref EXTI_LINE_NB.
 403:Drivers/STM32F7xx_HAL_Driver/Src/stm32f7xx_hal_exti.c ****   * @retval HAL Status.
 404:Drivers/STM32F7xx_HAL_Driver/Src/stm32f7xx_hal_exti.c ****   */
 405:Drivers/STM32F7xx_HAL_Driver/Src/stm32f7xx_hal_exti.c **** HAL_StatusTypeDef HAL_EXTI_GetHandle(EXTI_HandleTypeDef *hexti, uint32_t ExtiLine)
 406:Drivers/STM32F7xx_HAL_Driver/Src/stm32f7xx_hal_exti.c **** {
 664              		.loc 1 406 1 is_stmt 1 view -0
 665              		.cfi_startproc
 666              		@ args = 0, pretend = 0, frame = 0
 667              		@ frame_needed = 0, uses_anonymous_args = 0
 668              		@ link register save eliminated.
 407:Drivers/STM32F7xx_HAL_Driver/Src/stm32f7xx_hal_exti.c ****   /* Check the parameters */
 408:Drivers/STM32F7xx_HAL_Driver/Src/stm32f7xx_hal_exti.c ****   assert_param(IS_EXTI_LINE(ExtiLine));
 669              		.loc 1 408 3 view .LVU214
 409:Drivers/STM32F7xx_HAL_Driver/Src/stm32f7xx_hal_exti.c **** 
 410:Drivers/STM32F7xx_HAL_Driver/Src/stm32f7xx_hal_exti.c ****   /* Check null pointer */
 411:Drivers/STM32F7xx_HAL_Driver/Src/stm32f7xx_hal_exti.c ****   if (hexti == NULL)
 670              		.loc 1 411 3 view .LVU215
 671              		.loc 1 411 6 is_stmt 0 view .LVU216
 672 0000 10B1     		cbz	r0, .L54
 412:Drivers/STM32F7xx_HAL_Driver/Src/stm32f7xx_hal_exti.c ****   {
 413:Drivers/STM32F7xx_HAL_Driver/Src/stm32f7xx_hal_exti.c ****     return HAL_ERROR;
 414:Drivers/STM32F7xx_HAL_Driver/Src/stm32f7xx_hal_exti.c ****   }
 415:Drivers/STM32F7xx_HAL_Driver/Src/stm32f7xx_hal_exti.c ****   else
ARM GAS  C:\Users\Legend\AppData\Local\Temp\ccDp7bOI.s 			page 21


 416:Drivers/STM32F7xx_HAL_Driver/Src/stm32f7xx_hal_exti.c ****   {
 417:Drivers/STM32F7xx_HAL_Driver/Src/stm32f7xx_hal_exti.c ****     /* Store line number as handle private field */
 418:Drivers/STM32F7xx_HAL_Driver/Src/stm32f7xx_hal_exti.c ****     hexti->Line = ExtiLine;
 673              		.loc 1 418 5 is_stmt 1 view .LVU217
 674              		.loc 1 418 17 is_stmt 0 view .LVU218
 675 0002 0160     		str	r1, [r0]
 419:Drivers/STM32F7xx_HAL_Driver/Src/stm32f7xx_hal_exti.c **** 
 420:Drivers/STM32F7xx_HAL_Driver/Src/stm32f7xx_hal_exti.c ****     return HAL_OK;
 676              		.loc 1 420 5 is_stmt 1 view .LVU219
 677              		.loc 1 420 12 is_stmt 0 view .LVU220
 678 0004 0020     		movs	r0, #0
 679              	.LVL53:
 680              		.loc 1 420 12 view .LVU221
 681 0006 7047     		bx	lr
 682              	.LVL54:
 683              	.L54:
 413:Drivers/STM32F7xx_HAL_Driver/Src/stm32f7xx_hal_exti.c ****   }
 684              		.loc 1 413 12 view .LVU222
 685 0008 0120     		movs	r0, #1
 686              	.LVL55:
 421:Drivers/STM32F7xx_HAL_Driver/Src/stm32f7xx_hal_exti.c ****   }
 422:Drivers/STM32F7xx_HAL_Driver/Src/stm32f7xx_hal_exti.c **** }
 687              		.loc 1 422 1 view .LVU223
 688 000a 7047     		bx	lr
 689              		.cfi_endproc
 690              	.LFE145:
 692              		.section	.text.HAL_EXTI_IRQHandler,"ax",%progbits
 693              		.align	1
 694              		.global	HAL_EXTI_IRQHandler
 695              		.syntax unified
 696              		.thumb
 697              		.thumb_func
 698              		.fpu fpv5-d16
 700              	HAL_EXTI_IRQHandler:
 701              	.LVL56:
 702              	.LFB146:
 423:Drivers/STM32F7xx_HAL_Driver/Src/stm32f7xx_hal_exti.c **** 
 424:Drivers/STM32F7xx_HAL_Driver/Src/stm32f7xx_hal_exti.c **** /**
 425:Drivers/STM32F7xx_HAL_Driver/Src/stm32f7xx_hal_exti.c ****   * @}
 426:Drivers/STM32F7xx_HAL_Driver/Src/stm32f7xx_hal_exti.c ****   */
 427:Drivers/STM32F7xx_HAL_Driver/Src/stm32f7xx_hal_exti.c **** 
 428:Drivers/STM32F7xx_HAL_Driver/Src/stm32f7xx_hal_exti.c **** /** @addtogroup EXTI_Exported_Functions_Group2
 429:Drivers/STM32F7xx_HAL_Driver/Src/stm32f7xx_hal_exti.c ****   *  @brief EXTI IO functions.
 430:Drivers/STM32F7xx_HAL_Driver/Src/stm32f7xx_hal_exti.c ****   *
 431:Drivers/STM32F7xx_HAL_Driver/Src/stm32f7xx_hal_exti.c **** @verbatim
 432:Drivers/STM32F7xx_HAL_Driver/Src/stm32f7xx_hal_exti.c ****  ===============================================================================
 433:Drivers/STM32F7xx_HAL_Driver/Src/stm32f7xx_hal_exti.c ****                        ##### IO operation functions #####
 434:Drivers/STM32F7xx_HAL_Driver/Src/stm32f7xx_hal_exti.c ****  ===============================================================================
 435:Drivers/STM32F7xx_HAL_Driver/Src/stm32f7xx_hal_exti.c **** 
 436:Drivers/STM32F7xx_HAL_Driver/Src/stm32f7xx_hal_exti.c **** @endverbatim
 437:Drivers/STM32F7xx_HAL_Driver/Src/stm32f7xx_hal_exti.c ****   * @{
 438:Drivers/STM32F7xx_HAL_Driver/Src/stm32f7xx_hal_exti.c ****   */
 439:Drivers/STM32F7xx_HAL_Driver/Src/stm32f7xx_hal_exti.c **** 
 440:Drivers/STM32F7xx_HAL_Driver/Src/stm32f7xx_hal_exti.c **** /**
 441:Drivers/STM32F7xx_HAL_Driver/Src/stm32f7xx_hal_exti.c ****   * @brief  Handle EXTI interrupt request.
 442:Drivers/STM32F7xx_HAL_Driver/Src/stm32f7xx_hal_exti.c ****   * @param  hexti Exti handle.
 443:Drivers/STM32F7xx_HAL_Driver/Src/stm32f7xx_hal_exti.c ****   * @retval none.
ARM GAS  C:\Users\Legend\AppData\Local\Temp\ccDp7bOI.s 			page 22


 444:Drivers/STM32F7xx_HAL_Driver/Src/stm32f7xx_hal_exti.c ****   */
 445:Drivers/STM32F7xx_HAL_Driver/Src/stm32f7xx_hal_exti.c **** void HAL_EXTI_IRQHandler(EXTI_HandleTypeDef *hexti)
 446:Drivers/STM32F7xx_HAL_Driver/Src/stm32f7xx_hal_exti.c **** {
 703              		.loc 1 446 1 is_stmt 1 view -0
 704              		.cfi_startproc
 705              		@ args = 0, pretend = 0, frame = 0
 706              		@ frame_needed = 0, uses_anonymous_args = 0
 707              		.loc 1 446 1 is_stmt 0 view .LVU225
 708 0000 08B5     		push	{r3, lr}
 709              	.LCFI10:
 710              		.cfi_def_cfa_offset 8
 711              		.cfi_offset 3, -8
 712              		.cfi_offset 14, -4
 447:Drivers/STM32F7xx_HAL_Driver/Src/stm32f7xx_hal_exti.c ****   uint32_t regval;
 713              		.loc 1 447 3 is_stmt 1 view .LVU226
 448:Drivers/STM32F7xx_HAL_Driver/Src/stm32f7xx_hal_exti.c ****   uint32_t maskline;
 714              		.loc 1 448 3 view .LVU227
 449:Drivers/STM32F7xx_HAL_Driver/Src/stm32f7xx_hal_exti.c **** 
 450:Drivers/STM32F7xx_HAL_Driver/Src/stm32f7xx_hal_exti.c ****   /* Compute line mask */
 451:Drivers/STM32F7xx_HAL_Driver/Src/stm32f7xx_hal_exti.c ****   maskline = (1uL << (hexti->Line & EXTI_PIN_MASK));
 715              		.loc 1 451 3 view .LVU228
 716              		.loc 1 451 28 is_stmt 0 view .LVU229
 717 0002 0368     		ldr	r3, [r0]
 718              		.loc 1 451 35 view .LVU230
 719 0004 03F01F02 		and	r2, r3, #31
 720              		.loc 1 451 12 view .LVU231
 721 0008 0123     		movs	r3, #1
 722 000a 9340     		lsls	r3, r3, r2
 723              	.LVL57:
 452:Drivers/STM32F7xx_HAL_Driver/Src/stm32f7xx_hal_exti.c **** 
 453:Drivers/STM32F7xx_HAL_Driver/Src/stm32f7xx_hal_exti.c ****   /* Get pending bit  */
 454:Drivers/STM32F7xx_HAL_Driver/Src/stm32f7xx_hal_exti.c ****   regval = (EXTI->PR & maskline);
 724              		.loc 1 454 3 is_stmt 1 view .LVU232
 725              		.loc 1 454 17 is_stmt 0 view .LVU233
 726 000c 044A     		ldr	r2, .L58
 727 000e 5269     		ldr	r2, [r2, #20]
 728              	.LVL58:
 455:Drivers/STM32F7xx_HAL_Driver/Src/stm32f7xx_hal_exti.c ****   if (regval != 0x00u)
 729              		.loc 1 455 3 is_stmt 1 view .LVU234
 730              		.loc 1 455 6 is_stmt 0 view .LVU235
 731 0010 1A42     		tst	r2, r3
 732 0012 04D0     		beq	.L55
 456:Drivers/STM32F7xx_HAL_Driver/Src/stm32f7xx_hal_exti.c ****   {
 457:Drivers/STM32F7xx_HAL_Driver/Src/stm32f7xx_hal_exti.c ****     /* Clear pending bit */
 458:Drivers/STM32F7xx_HAL_Driver/Src/stm32f7xx_hal_exti.c ****     EXTI->PR = maskline;
 733              		.loc 1 458 5 is_stmt 1 view .LVU236
 734              		.loc 1 458 14 is_stmt 0 view .LVU237
 735 0014 024A     		ldr	r2, .L58
 736              	.LVL59:
 737              		.loc 1 458 14 view .LVU238
 738 0016 5361     		str	r3, [r2, #20]
 459:Drivers/STM32F7xx_HAL_Driver/Src/stm32f7xx_hal_exti.c **** 
 460:Drivers/STM32F7xx_HAL_Driver/Src/stm32f7xx_hal_exti.c ****     /* Call callback */
 461:Drivers/STM32F7xx_HAL_Driver/Src/stm32f7xx_hal_exti.c ****     if (hexti->PendingCallback != NULL)
 739              		.loc 1 461 5 is_stmt 1 view .LVU239
 740              		.loc 1 461 14 is_stmt 0 view .LVU240
 741 0018 4368     		ldr	r3, [r0, #4]
ARM GAS  C:\Users\Legend\AppData\Local\Temp\ccDp7bOI.s 			page 23


 742              	.LVL60:
 743              		.loc 1 461 8 view .LVU241
 744 001a 03B1     		cbz	r3, .L55
 462:Drivers/STM32F7xx_HAL_Driver/Src/stm32f7xx_hal_exti.c ****     {
 463:Drivers/STM32F7xx_HAL_Driver/Src/stm32f7xx_hal_exti.c ****       hexti->PendingCallback();
 745              		.loc 1 463 7 is_stmt 1 view .LVU242
 746 001c 9847     		blx	r3
 747              	.LVL61:
 748              	.L55:
 464:Drivers/STM32F7xx_HAL_Driver/Src/stm32f7xx_hal_exti.c ****     }
 465:Drivers/STM32F7xx_HAL_Driver/Src/stm32f7xx_hal_exti.c ****   }
 466:Drivers/STM32F7xx_HAL_Driver/Src/stm32f7xx_hal_exti.c **** }
 749              		.loc 1 466 1 is_stmt 0 view .LVU243
 750 001e 08BD     		pop	{r3, pc}
 751              	.L59:
 752              		.align	2
 753              	.L58:
 754 0020 003C0140 		.word	1073822720
 755              		.cfi_endproc
 756              	.LFE146:
 758              		.section	.text.HAL_EXTI_GetPending,"ax",%progbits
 759              		.align	1
 760              		.global	HAL_EXTI_GetPending
 761              		.syntax unified
 762              		.thumb
 763              		.thumb_func
 764              		.fpu fpv5-d16
 766              	HAL_EXTI_GetPending:
 767              	.LVL62:
 768              	.LFB147:
 467:Drivers/STM32F7xx_HAL_Driver/Src/stm32f7xx_hal_exti.c **** 
 468:Drivers/STM32F7xx_HAL_Driver/Src/stm32f7xx_hal_exti.c **** /**
 469:Drivers/STM32F7xx_HAL_Driver/Src/stm32f7xx_hal_exti.c ****   * @brief  Get interrupt pending bit of a dedicated line.
 470:Drivers/STM32F7xx_HAL_Driver/Src/stm32f7xx_hal_exti.c ****   * @param  hexti Exti handle.
 471:Drivers/STM32F7xx_HAL_Driver/Src/stm32f7xx_hal_exti.c ****   * @param  Edge Specify which pending edge as to be checked.
 472:Drivers/STM32F7xx_HAL_Driver/Src/stm32f7xx_hal_exti.c ****   *         This parameter can be one of the following values:
 473:Drivers/STM32F7xx_HAL_Driver/Src/stm32f7xx_hal_exti.c ****   *           @arg @ref EXTI_TRIGGER_RISING_FALLING
 474:Drivers/STM32F7xx_HAL_Driver/Src/stm32f7xx_hal_exti.c ****   *         This parameter is kept for compatibility with other series.
 475:Drivers/STM32F7xx_HAL_Driver/Src/stm32f7xx_hal_exti.c ****   * @retval 1 if interrupt is pending else 0.
 476:Drivers/STM32F7xx_HAL_Driver/Src/stm32f7xx_hal_exti.c ****   */
 477:Drivers/STM32F7xx_HAL_Driver/Src/stm32f7xx_hal_exti.c **** uint32_t HAL_EXTI_GetPending(EXTI_HandleTypeDef *hexti, uint32_t Edge)
 478:Drivers/STM32F7xx_HAL_Driver/Src/stm32f7xx_hal_exti.c **** {
 769              		.loc 1 478 1 is_stmt 1 view -0
 770              		.cfi_startproc
 771              		@ args = 0, pretend = 0, frame = 0
 772              		@ frame_needed = 0, uses_anonymous_args = 0
 773              		@ link register save eliminated.
 479:Drivers/STM32F7xx_HAL_Driver/Src/stm32f7xx_hal_exti.c ****   uint32_t regval;
 774              		.loc 1 479 3 view .LVU245
 480:Drivers/STM32F7xx_HAL_Driver/Src/stm32f7xx_hal_exti.c ****   uint32_t linepos;
 775              		.loc 1 480 3 view .LVU246
 481:Drivers/STM32F7xx_HAL_Driver/Src/stm32f7xx_hal_exti.c ****   uint32_t maskline;
 776              		.loc 1 481 3 view .LVU247
 482:Drivers/STM32F7xx_HAL_Driver/Src/stm32f7xx_hal_exti.c **** 
 483:Drivers/STM32F7xx_HAL_Driver/Src/stm32f7xx_hal_exti.c ****   /* Check parameters */
 484:Drivers/STM32F7xx_HAL_Driver/Src/stm32f7xx_hal_exti.c ****   assert_param(IS_EXTI_LINE(hexti->Line));
 777              		.loc 1 484 3 view .LVU248
ARM GAS  C:\Users\Legend\AppData\Local\Temp\ccDp7bOI.s 			page 24


 485:Drivers/STM32F7xx_HAL_Driver/Src/stm32f7xx_hal_exti.c ****   assert_param(IS_EXTI_CONFIG_LINE(hexti->Line));
 778              		.loc 1 485 3 view .LVU249
 486:Drivers/STM32F7xx_HAL_Driver/Src/stm32f7xx_hal_exti.c ****   assert_param(IS_EXTI_PENDING_EDGE(Edge));
 779              		.loc 1 486 3 view .LVU250
 487:Drivers/STM32F7xx_HAL_Driver/Src/stm32f7xx_hal_exti.c **** 
 488:Drivers/STM32F7xx_HAL_Driver/Src/stm32f7xx_hal_exti.c ****   /* Compute line mask */
 489:Drivers/STM32F7xx_HAL_Driver/Src/stm32f7xx_hal_exti.c ****   linepos = (hexti->Line & EXTI_PIN_MASK);
 780              		.loc 1 489 3 view .LVU251
 781              		.loc 1 489 19 is_stmt 0 view .LVU252
 782 0000 0368     		ldr	r3, [r0]
 783              		.loc 1 489 11 view .LVU253
 784 0002 03F01F03 		and	r3, r3, #31
 785              	.LVL63:
 490:Drivers/STM32F7xx_HAL_Driver/Src/stm32f7xx_hal_exti.c ****   maskline = (1uL << linepos);
 786              		.loc 1 490 3 is_stmt 1 view .LVU254
 787              		.loc 1 490 12 is_stmt 0 view .LVU255
 788 0006 0120     		movs	r0, #1
 789              	.LVL64:
 790              		.loc 1 490 12 view .LVU256
 791 0008 00FA03F2 		lsl	r2, r0, r3
 792              	.LVL65:
 491:Drivers/STM32F7xx_HAL_Driver/Src/stm32f7xx_hal_exti.c **** 
 492:Drivers/STM32F7xx_HAL_Driver/Src/stm32f7xx_hal_exti.c ****   /* return 1 if bit is set else 0 */
 493:Drivers/STM32F7xx_HAL_Driver/Src/stm32f7xx_hal_exti.c ****   regval = ((EXTI->PR & maskline) >> linepos);
 793              		.loc 1 493 3 is_stmt 1 view .LVU257
 794              		.loc 1 493 18 is_stmt 0 view .LVU258
 795 000c 0249     		ldr	r1, .L61
 796              	.LVL66:
 797              		.loc 1 493 18 view .LVU259
 798 000e 4869     		ldr	r0, [r1, #20]
 799              		.loc 1 493 23 view .LVU260
 800 0010 1040     		ands	r0, r0, r2
 801              	.LVL67:
 494:Drivers/STM32F7xx_HAL_Driver/Src/stm32f7xx_hal_exti.c ****   return regval;
 802              		.loc 1 494 3 is_stmt 1 view .LVU261
 495:Drivers/STM32F7xx_HAL_Driver/Src/stm32f7xx_hal_exti.c **** }
 803              		.loc 1 495 1 is_stmt 0 view .LVU262
 804 0012 D840     		lsrs	r0, r0, r3
 805              	.LVL68:
 806              		.loc 1 495 1 view .LVU263
 807 0014 7047     		bx	lr
 808              	.L62:
 809 0016 00BF     		.align	2
 810              	.L61:
 811 0018 003C0140 		.word	1073822720
 812              		.cfi_endproc
 813              	.LFE147:
 815              		.section	.text.HAL_EXTI_ClearPending,"ax",%progbits
 816              		.align	1
 817              		.global	HAL_EXTI_ClearPending
 818              		.syntax unified
 819              		.thumb
 820              		.thumb_func
 821              		.fpu fpv5-d16
 823              	HAL_EXTI_ClearPending:
 824              	.LVL69:
 825              	.LFB148:
ARM GAS  C:\Users\Legend\AppData\Local\Temp\ccDp7bOI.s 			page 25


 496:Drivers/STM32F7xx_HAL_Driver/Src/stm32f7xx_hal_exti.c **** 
 497:Drivers/STM32F7xx_HAL_Driver/Src/stm32f7xx_hal_exti.c **** /**
 498:Drivers/STM32F7xx_HAL_Driver/Src/stm32f7xx_hal_exti.c ****   * @brief  Clear interrupt pending bit of a dedicated line.
 499:Drivers/STM32F7xx_HAL_Driver/Src/stm32f7xx_hal_exti.c ****   * @param  hexti Exti handle.
 500:Drivers/STM32F7xx_HAL_Driver/Src/stm32f7xx_hal_exti.c ****   * @param  Edge Specify which pending edge as to be clear.
 501:Drivers/STM32F7xx_HAL_Driver/Src/stm32f7xx_hal_exti.c ****   *         This parameter can be one of the following values:
 502:Drivers/STM32F7xx_HAL_Driver/Src/stm32f7xx_hal_exti.c ****   *           @arg @ref EXTI_TRIGGER_RISING_FALLING
 503:Drivers/STM32F7xx_HAL_Driver/Src/stm32f7xx_hal_exti.c ****   *         This parameter is kept for compatibility with other series.
 504:Drivers/STM32F7xx_HAL_Driver/Src/stm32f7xx_hal_exti.c ****   * @retval None.
 505:Drivers/STM32F7xx_HAL_Driver/Src/stm32f7xx_hal_exti.c ****   */
 506:Drivers/STM32F7xx_HAL_Driver/Src/stm32f7xx_hal_exti.c **** void HAL_EXTI_ClearPending(EXTI_HandleTypeDef *hexti, uint32_t Edge)
 507:Drivers/STM32F7xx_HAL_Driver/Src/stm32f7xx_hal_exti.c **** {
 826              		.loc 1 507 1 is_stmt 1 view -0
 827              		.cfi_startproc
 828              		@ args = 0, pretend = 0, frame = 0
 829              		@ frame_needed = 0, uses_anonymous_args = 0
 830              		@ link register save eliminated.
 508:Drivers/STM32F7xx_HAL_Driver/Src/stm32f7xx_hal_exti.c ****   uint32_t maskline;
 831              		.loc 1 508 3 view .LVU265
 509:Drivers/STM32F7xx_HAL_Driver/Src/stm32f7xx_hal_exti.c **** 
 510:Drivers/STM32F7xx_HAL_Driver/Src/stm32f7xx_hal_exti.c ****   /* Check parameters */
 511:Drivers/STM32F7xx_HAL_Driver/Src/stm32f7xx_hal_exti.c ****   assert_param(IS_EXTI_LINE(hexti->Line));
 832              		.loc 1 511 3 view .LVU266
 512:Drivers/STM32F7xx_HAL_Driver/Src/stm32f7xx_hal_exti.c ****   assert_param(IS_EXTI_CONFIG_LINE(hexti->Line));
 833              		.loc 1 512 3 view .LVU267
 513:Drivers/STM32F7xx_HAL_Driver/Src/stm32f7xx_hal_exti.c ****   assert_param(IS_EXTI_PENDING_EDGE(Edge));
 834              		.loc 1 513 3 view .LVU268
 514:Drivers/STM32F7xx_HAL_Driver/Src/stm32f7xx_hal_exti.c **** 
 515:Drivers/STM32F7xx_HAL_Driver/Src/stm32f7xx_hal_exti.c ****   /* Compute line mask */
 516:Drivers/STM32F7xx_HAL_Driver/Src/stm32f7xx_hal_exti.c ****   maskline = (1uL << (hexti->Line & EXTI_PIN_MASK));
 835              		.loc 1 516 3 view .LVU269
 836              		.loc 1 516 28 is_stmt 0 view .LVU270
 837 0000 0268     		ldr	r2, [r0]
 838              		.loc 1 516 35 view .LVU271
 839 0002 02F01F02 		and	r2, r2, #31
 840              		.loc 1 516 12 view .LVU272
 841 0006 0123     		movs	r3, #1
 842 0008 9340     		lsls	r3, r3, r2
 843              	.LVL70:
 517:Drivers/STM32F7xx_HAL_Driver/Src/stm32f7xx_hal_exti.c **** 
 518:Drivers/STM32F7xx_HAL_Driver/Src/stm32f7xx_hal_exti.c ****   /* Clear Pending bit */
 519:Drivers/STM32F7xx_HAL_Driver/Src/stm32f7xx_hal_exti.c ****   EXTI->PR =  maskline;
 844              		.loc 1 519 3 is_stmt 1 view .LVU273
 845              		.loc 1 519 12 is_stmt 0 view .LVU274
 846 000a 014A     		ldr	r2, .L64
 847 000c 5361     		str	r3, [r2, #20]
 520:Drivers/STM32F7xx_HAL_Driver/Src/stm32f7xx_hal_exti.c **** }
 848              		.loc 1 520 1 view .LVU275
 849 000e 7047     		bx	lr
 850              	.L65:
 851              		.align	2
 852              	.L64:
 853 0010 003C0140 		.word	1073822720
 854              		.cfi_endproc
 855              	.LFE148:
 857              		.section	.text.HAL_EXTI_GenerateSWI,"ax",%progbits
 858              		.align	1
ARM GAS  C:\Users\Legend\AppData\Local\Temp\ccDp7bOI.s 			page 26


 859              		.global	HAL_EXTI_GenerateSWI
 860              		.syntax unified
 861              		.thumb
 862              		.thumb_func
 863              		.fpu fpv5-d16
 865              	HAL_EXTI_GenerateSWI:
 866              	.LVL71:
 867              	.LFB149:
 521:Drivers/STM32F7xx_HAL_Driver/Src/stm32f7xx_hal_exti.c **** 
 522:Drivers/STM32F7xx_HAL_Driver/Src/stm32f7xx_hal_exti.c **** /**
 523:Drivers/STM32F7xx_HAL_Driver/Src/stm32f7xx_hal_exti.c ****   * @brief  Generate a software interrupt for a dedicated line.
 524:Drivers/STM32F7xx_HAL_Driver/Src/stm32f7xx_hal_exti.c ****   * @param  hexti Exti handle.
 525:Drivers/STM32F7xx_HAL_Driver/Src/stm32f7xx_hal_exti.c ****   * @retval None.
 526:Drivers/STM32F7xx_HAL_Driver/Src/stm32f7xx_hal_exti.c ****   */
 527:Drivers/STM32F7xx_HAL_Driver/Src/stm32f7xx_hal_exti.c **** void HAL_EXTI_GenerateSWI(EXTI_HandleTypeDef *hexti)
 528:Drivers/STM32F7xx_HAL_Driver/Src/stm32f7xx_hal_exti.c **** {
 868              		.loc 1 528 1 is_stmt 1 view -0
 869              		.cfi_startproc
 870              		@ args = 0, pretend = 0, frame = 0
 871              		@ frame_needed = 0, uses_anonymous_args = 0
 872              		@ link register save eliminated.
 529:Drivers/STM32F7xx_HAL_Driver/Src/stm32f7xx_hal_exti.c ****   uint32_t maskline;
 873              		.loc 1 529 3 view .LVU277
 530:Drivers/STM32F7xx_HAL_Driver/Src/stm32f7xx_hal_exti.c **** 
 531:Drivers/STM32F7xx_HAL_Driver/Src/stm32f7xx_hal_exti.c ****   /* Check parameters */
 532:Drivers/STM32F7xx_HAL_Driver/Src/stm32f7xx_hal_exti.c ****   assert_param(IS_EXTI_LINE(hexti->Line));
 874              		.loc 1 532 3 view .LVU278
 533:Drivers/STM32F7xx_HAL_Driver/Src/stm32f7xx_hal_exti.c ****   assert_param(IS_EXTI_CONFIG_LINE(hexti->Line));
 875              		.loc 1 533 3 view .LVU279
 534:Drivers/STM32F7xx_HAL_Driver/Src/stm32f7xx_hal_exti.c **** 
 535:Drivers/STM32F7xx_HAL_Driver/Src/stm32f7xx_hal_exti.c ****   /* Compute line mask */
 536:Drivers/STM32F7xx_HAL_Driver/Src/stm32f7xx_hal_exti.c ****   maskline = (1uL << (hexti->Line & EXTI_PIN_MASK));
 876              		.loc 1 536 3 view .LVU280
 877              		.loc 1 536 28 is_stmt 0 view .LVU281
 878 0000 0268     		ldr	r2, [r0]
 879              		.loc 1 536 35 view .LVU282
 880 0002 02F01F02 		and	r2, r2, #31
 881              		.loc 1 536 12 view .LVU283
 882 0006 0123     		movs	r3, #1
 883 0008 9340     		lsls	r3, r3, r2
 884              	.LVL72:
 537:Drivers/STM32F7xx_HAL_Driver/Src/stm32f7xx_hal_exti.c **** 
 538:Drivers/STM32F7xx_HAL_Driver/Src/stm32f7xx_hal_exti.c ****   /* Generate Software interrupt */
 539:Drivers/STM32F7xx_HAL_Driver/Src/stm32f7xx_hal_exti.c ****   EXTI->SWIER = maskline;
 885              		.loc 1 539 3 is_stmt 1 view .LVU284
 886              		.loc 1 539 15 is_stmt 0 view .LVU285
 887 000a 014A     		ldr	r2, .L67
 888 000c 1361     		str	r3, [r2, #16]
 540:Drivers/STM32F7xx_HAL_Driver/Src/stm32f7xx_hal_exti.c **** }
 889              		.loc 1 540 1 view .LVU286
 890 000e 7047     		bx	lr
 891              	.L68:
 892              		.align	2
 893              	.L67:
 894 0010 003C0140 		.word	1073822720
 895              		.cfi_endproc
 896              	.LFE149:
ARM GAS  C:\Users\Legend\AppData\Local\Temp\ccDp7bOI.s 			page 27


 898              		.text
 899              	.Letext0:
 900              		.file 2 "f:\\prosoft\\gcc_arm_none\\2019q4\\9 2019-q4-major\\arm-none-eabi\\include\\machine\\_def
 901              		.file 3 "f:\\prosoft\\gcc_arm_none\\2019q4\\9 2019-q4-major\\arm-none-eabi\\include\\sys\\_stdint.
 902              		.file 4 "Drivers/CMSIS/Include/core_cm7.h"
 903              		.file 5 "Drivers/CMSIS/Device/ST/STM32F7xx/Include/system_stm32f7xx.h"
 904              		.file 6 "Drivers/CMSIS/Device/ST/STM32F7xx/Include/stm32f767xx.h"
 905              		.file 7 "Drivers/STM32F7xx_HAL_Driver/Inc/stm32f7xx_hal_def.h"
 906              		.file 8 "Drivers/STM32F7xx_HAL_Driver/Inc/stm32f7xx_hal_exti.h"
 907              		.file 9 "Drivers/STM32F7xx_HAL_Driver/Inc/stm32f7xx_hal.h"
ARM GAS  C:\Users\Legend\AppData\Local\Temp\ccDp7bOI.s 			page 28

