ARM GAS  C:\Users\Legend\AppData\Local\Temp\ccvZbhxg.s 			page 1


   1              		.cpu cortex-m7
   2              		.eabi_attribute 28, 1
   3              		.eabi_attribute 20, 1
   4              		.eabi_attribute 21, 1
   5              		.eabi_attribute 23, 3
   6              		.eabi_attribute 24, 1
   7              		.eabi_attribute 25, 1
   8              		.eabi_attribute 26, 1
   9              		.eabi_attribute 30, 1
  10              		.eabi_attribute 34, 1
  11              		.eabi_attribute 18, 4
  12              		.file	"usart.c"
  13              		.text
  14              	.Ltext0:
  15              		.cfi_sections	.debug_frame
  16              		.section	.text.MX_UART5_Init,"ax",%progbits
  17              		.align	1
  18              		.global	MX_UART5_Init
  19              		.arch armv7e-m
  20              		.syntax unified
  21              		.thumb
  22              		.thumb_func
  23              		.fpu fpv5-d16
  25              	MX_UART5_Init:
  26              	.LFB141:
  27              		.file 1 "Src/usart.c"
   1:Src/usart.c   **** /**
   2:Src/usart.c   ****   ******************************************************************************
   3:Src/usart.c   ****   * File Name          : USART.c
   4:Src/usart.c   ****   * Description        : This file provides code for the configuration
   5:Src/usart.c   ****   *                      of the USART instances.
   6:Src/usart.c   ****   ******************************************************************************
   7:Src/usart.c   ****   * @attention
   8:Src/usart.c   ****   *
   9:Src/usart.c   ****   * <h2><center>&copy; Copyright (c) 2020 STMicroelectronics.
  10:Src/usart.c   ****   * All rights reserved.</center></h2>
  11:Src/usart.c   ****   *
  12:Src/usart.c   ****   * This software component is licensed by ST under Ultimate Liberty license
  13:Src/usart.c   ****   * SLA0044, the "License"; You may not use this file except in compliance with
  14:Src/usart.c   ****   * the License. You may obtain a copy of the License at:
  15:Src/usart.c   ****   *                             www.st.com/SLA0044
  16:Src/usart.c   ****   *
  17:Src/usart.c   ****   ******************************************************************************
  18:Src/usart.c   ****   */
  19:Src/usart.c   **** 
  20:Src/usart.c   **** /* Includes ------------------------------------------------------------------*/
  21:Src/usart.c   **** #include "usart.h"
  22:Src/usart.c   **** 
  23:Src/usart.c   **** /* USER CODE BEGIN 0 */
  24:Src/usart.c   **** 
  25:Src/usart.c   **** /* USER CODE END 0 */
  26:Src/usart.c   **** 
  27:Src/usart.c   **** UART_HandleTypeDef huart5;
  28:Src/usart.c   **** 
  29:Src/usart.c   **** /* UART5 init function */
  30:Src/usart.c   **** void MX_UART5_Init(void)
  31:Src/usart.c   **** {
ARM GAS  C:\Users\Legend\AppData\Local\Temp\ccvZbhxg.s 			page 2


  28              		.loc 1 31 1 view -0
  29              		.cfi_startproc
  30              		@ args = 0, pretend = 0, frame = 0
  31              		@ frame_needed = 0, uses_anonymous_args = 0
  32 0000 08B5     		push	{r3, lr}
  33              	.LCFI0:
  34              		.cfi_def_cfa_offset 8
  35              		.cfi_offset 3, -8
  36              		.cfi_offset 14, -4
  32:Src/usart.c   **** 
  33:Src/usart.c   ****   huart5.Instance = UART5;
  37              		.loc 1 33 3 view .LVU1
  38              		.loc 1 33 19 is_stmt 0 view .LVU2
  39 0002 0B48     		ldr	r0, .L5
  40 0004 0B4B     		ldr	r3, .L5+4
  41 0006 0360     		str	r3, [r0]
  34:Src/usart.c   ****   huart5.Init.BaudRate = 115200;
  42              		.loc 1 34 3 is_stmt 1 view .LVU3
  43              		.loc 1 34 24 is_stmt 0 view .LVU4
  44 0008 4FF4E133 		mov	r3, #115200
  45 000c 4360     		str	r3, [r0, #4]
  35:Src/usart.c   ****   huart5.Init.WordLength = UART_WORDLENGTH_8B;
  46              		.loc 1 35 3 is_stmt 1 view .LVU5
  47              		.loc 1 35 26 is_stmt 0 view .LVU6
  48 000e 0023     		movs	r3, #0
  49 0010 8360     		str	r3, [r0, #8]
  36:Src/usart.c   ****   huart5.Init.StopBits = UART_STOPBITS_1;
  50              		.loc 1 36 3 is_stmt 1 view .LVU7
  51              		.loc 1 36 24 is_stmt 0 view .LVU8
  52 0012 C360     		str	r3, [r0, #12]
  37:Src/usart.c   ****   huart5.Init.Parity = UART_PARITY_NONE;
  53              		.loc 1 37 3 is_stmt 1 view .LVU9
  54              		.loc 1 37 22 is_stmt 0 view .LVU10
  55 0014 0361     		str	r3, [r0, #16]
  38:Src/usart.c   ****   huart5.Init.Mode = UART_MODE_TX_RX;
  56              		.loc 1 38 3 is_stmt 1 view .LVU11
  57              		.loc 1 38 20 is_stmt 0 view .LVU12
  58 0016 0C22     		movs	r2, #12
  59 0018 4261     		str	r2, [r0, #20]
  39:Src/usart.c   ****   huart5.Init.HwFlowCtl = UART_HWCONTROL_NONE;
  60              		.loc 1 39 3 is_stmt 1 view .LVU13
  61              		.loc 1 39 25 is_stmt 0 view .LVU14
  62 001a 8361     		str	r3, [r0, #24]
  40:Src/usart.c   ****   huart5.Init.OverSampling = UART_OVERSAMPLING_16;
  63              		.loc 1 40 3 is_stmt 1 view .LVU15
  64              		.loc 1 40 28 is_stmt 0 view .LVU16
  65 001c C361     		str	r3, [r0, #28]
  41:Src/usart.c   ****   huart5.Init.OneBitSampling = UART_ONE_BIT_SAMPLE_DISABLE;
  66              		.loc 1 41 3 is_stmt 1 view .LVU17
  67              		.loc 1 41 30 is_stmt 0 view .LVU18
  68 001e 0362     		str	r3, [r0, #32]
  42:Src/usart.c   ****   huart5.AdvancedInit.AdvFeatureInit = UART_ADVFEATURE_NO_INIT;
  69              		.loc 1 42 3 is_stmt 1 view .LVU19
  70              		.loc 1 42 38 is_stmt 0 view .LVU20
  71 0020 4362     		str	r3, [r0, #36]
  43:Src/usart.c   ****   if (HAL_UART_Init(&huart5) != HAL_OK)
  72              		.loc 1 43 3 is_stmt 1 view .LVU21
ARM GAS  C:\Users\Legend\AppData\Local\Temp\ccvZbhxg.s 			page 3


  73              		.loc 1 43 7 is_stmt 0 view .LVU22
  74 0022 FFF7FEFF 		bl	HAL_UART_Init
  75              	.LVL0:
  76              		.loc 1 43 6 view .LVU23
  77 0026 00B9     		cbnz	r0, .L4
  78              	.L1:
  44:Src/usart.c   ****   {
  45:Src/usart.c   ****     Error_Handler();
  46:Src/usart.c   ****   }
  47:Src/usart.c   **** 
  48:Src/usart.c   **** }
  79              		.loc 1 48 1 view .LVU24
  80 0028 08BD     		pop	{r3, pc}
  81              	.L4:
  45:Src/usart.c   ****   }
  82              		.loc 1 45 5 is_stmt 1 view .LVU25
  83 002a FFF7FEFF 		bl	Error_Handler
  84              	.LVL1:
  85              		.loc 1 48 1 is_stmt 0 view .LVU26
  86 002e FBE7     		b	.L1
  87              	.L6:
  88              		.align	2
  89              	.L5:
  90 0030 00000000 		.word	huart5
  91 0034 00500040 		.word	1073762304
  92              		.cfi_endproc
  93              	.LFE141:
  95              		.section	.text.HAL_UART_MspInit,"ax",%progbits
  96              		.align	1
  97              		.global	HAL_UART_MspInit
  98              		.syntax unified
  99              		.thumb
 100              		.thumb_func
 101              		.fpu fpv5-d16
 103              	HAL_UART_MspInit:
 104              	.LVL2:
 105              	.LFB142:
  49:Src/usart.c   **** 
  50:Src/usart.c   **** void HAL_UART_MspInit(UART_HandleTypeDef* uartHandle)
  51:Src/usart.c   **** {
 106              		.loc 1 51 1 is_stmt 1 view -0
 107              		.cfi_startproc
 108              		@ args = 0, pretend = 0, frame = 32
 109              		@ frame_needed = 0, uses_anonymous_args = 0
 110              		.loc 1 51 1 is_stmt 0 view .LVU28
 111 0000 F0B5     		push	{r4, r5, r6, r7, lr}
 112              	.LCFI1:
 113              		.cfi_def_cfa_offset 20
 114              		.cfi_offset 4, -20
 115              		.cfi_offset 5, -16
 116              		.cfi_offset 6, -12
 117              		.cfi_offset 7, -8
 118              		.cfi_offset 14, -4
 119 0002 89B0     		sub	sp, sp, #36
 120              	.LCFI2:
 121              		.cfi_def_cfa_offset 56
  52:Src/usart.c   **** 
ARM GAS  C:\Users\Legend\AppData\Local\Temp\ccvZbhxg.s 			page 4


  53:Src/usart.c   ****   GPIO_InitTypeDef GPIO_InitStruct = {0};
 122              		.loc 1 53 3 is_stmt 1 view .LVU29
 123              		.loc 1 53 20 is_stmt 0 view .LVU30
 124 0004 0023     		movs	r3, #0
 125 0006 0393     		str	r3, [sp, #12]
 126 0008 0493     		str	r3, [sp, #16]
 127 000a 0593     		str	r3, [sp, #20]
 128 000c 0693     		str	r3, [sp, #24]
 129 000e 0793     		str	r3, [sp, #28]
  54:Src/usart.c   ****   if(uartHandle->Instance==UART5)
 130              		.loc 1 54 3 is_stmt 1 view .LVU31
 131              		.loc 1 54 16 is_stmt 0 view .LVU32
 132 0010 0268     		ldr	r2, [r0]
 133              		.loc 1 54 5 view .LVU33
 134 0012 1E4B     		ldr	r3, .L11
 135 0014 9A42     		cmp	r2, r3
 136 0016 01D0     		beq	.L10
 137              	.LVL3:
 138              	.L7:
  55:Src/usart.c   ****   {
  56:Src/usart.c   ****   /* USER CODE BEGIN UART5_MspInit 0 */
  57:Src/usart.c   **** 
  58:Src/usart.c   ****   /* USER CODE END UART5_MspInit 0 */
  59:Src/usart.c   ****     /* UART5 clock enable */
  60:Src/usart.c   ****     __HAL_RCC_UART5_CLK_ENABLE();
  61:Src/usart.c   ****   
  62:Src/usart.c   ****     __HAL_RCC_GPIOC_CLK_ENABLE();
  63:Src/usart.c   ****     __HAL_RCC_GPIOD_CLK_ENABLE();
  64:Src/usart.c   ****     /**UART5 GPIO Configuration    
  65:Src/usart.c   ****     PC12     ------> UART5_TX
  66:Src/usart.c   ****     PD2     ------> UART5_RX 
  67:Src/usart.c   ****     */
  68:Src/usart.c   ****     GPIO_InitStruct.Pin = GPIO_PIN_12;
  69:Src/usart.c   ****     GPIO_InitStruct.Mode = GPIO_MODE_AF_PP;
  70:Src/usart.c   ****     GPIO_InitStruct.Pull = GPIO_NOPULL;
  71:Src/usart.c   ****     GPIO_InitStruct.Speed = GPIO_SPEED_FREQ_VERY_HIGH;
  72:Src/usart.c   ****     GPIO_InitStruct.Alternate = GPIO_AF8_UART5;
  73:Src/usart.c   ****     HAL_GPIO_Init(GPIOC, &GPIO_InitStruct);
  74:Src/usart.c   **** 
  75:Src/usart.c   ****     GPIO_InitStruct.Pin = GPIO_PIN_2;
  76:Src/usart.c   ****     GPIO_InitStruct.Mode = GPIO_MODE_AF_PP;
  77:Src/usart.c   ****     GPIO_InitStruct.Pull = GPIO_NOPULL;
  78:Src/usart.c   ****     GPIO_InitStruct.Speed = GPIO_SPEED_FREQ_VERY_HIGH;
  79:Src/usart.c   ****     GPIO_InitStruct.Alternate = GPIO_AF8_UART5;
  80:Src/usart.c   ****     HAL_GPIO_Init(GPIOD, &GPIO_InitStruct);
  81:Src/usart.c   **** 
  82:Src/usart.c   ****   /* USER CODE BEGIN UART5_MspInit 1 */
  83:Src/usart.c   **** 
  84:Src/usart.c   ****   /* USER CODE END UART5_MspInit 1 */
  85:Src/usart.c   ****   }
  86:Src/usart.c   **** }
 139              		.loc 1 86 1 view .LVU34
 140 0018 09B0     		add	sp, sp, #36
 141              	.LCFI3:
 142              		.cfi_remember_state
 143              		.cfi_def_cfa_offset 20
 144              		@ sp needed
ARM GAS  C:\Users\Legend\AppData\Local\Temp\ccvZbhxg.s 			page 5


 145 001a F0BD     		pop	{r4, r5, r6, r7, pc}
 146              	.LVL4:
 147              	.L10:
 148              	.LCFI4:
 149              		.cfi_restore_state
  60:Src/usart.c   ****   
 150              		.loc 1 60 5 is_stmt 1 view .LVU35
 151              	.LBB2:
  60:Src/usart.c   ****   
 152              		.loc 1 60 5 view .LVU36
  60:Src/usart.c   ****   
 153              		.loc 1 60 5 view .LVU37
 154 001c 03F5F433 		add	r3, r3, #124928
 155 0020 1A6C     		ldr	r2, [r3, #64]
 156 0022 42F48012 		orr	r2, r2, #1048576
 157 0026 1A64     		str	r2, [r3, #64]
  60:Src/usart.c   ****   
 158              		.loc 1 60 5 view .LVU38
 159 0028 1A6C     		ldr	r2, [r3, #64]
 160 002a 02F48012 		and	r2, r2, #1048576
 161 002e 0092     		str	r2, [sp]
  60:Src/usart.c   ****   
 162              		.loc 1 60 5 view .LVU39
 163 0030 009A     		ldr	r2, [sp]
 164              	.LBE2:
  60:Src/usart.c   ****   
 165              		.loc 1 60 5 view .LVU40
  62:Src/usart.c   ****     __HAL_RCC_GPIOD_CLK_ENABLE();
 166              		.loc 1 62 5 view .LVU41
 167              	.LBB3:
  62:Src/usart.c   ****     __HAL_RCC_GPIOD_CLK_ENABLE();
 168              		.loc 1 62 5 view .LVU42
  62:Src/usart.c   ****     __HAL_RCC_GPIOD_CLK_ENABLE();
 169              		.loc 1 62 5 view .LVU43
 170 0032 1A6B     		ldr	r2, [r3, #48]
 171 0034 42F00402 		orr	r2, r2, #4
 172 0038 1A63     		str	r2, [r3, #48]
  62:Src/usart.c   ****     __HAL_RCC_GPIOD_CLK_ENABLE();
 173              		.loc 1 62 5 view .LVU44
 174 003a 1A6B     		ldr	r2, [r3, #48]
 175 003c 02F00402 		and	r2, r2, #4
 176 0040 0192     		str	r2, [sp, #4]
  62:Src/usart.c   ****     __HAL_RCC_GPIOD_CLK_ENABLE();
 177              		.loc 1 62 5 view .LVU45
 178 0042 019A     		ldr	r2, [sp, #4]
 179              	.LBE3:
  62:Src/usart.c   ****     __HAL_RCC_GPIOD_CLK_ENABLE();
 180              		.loc 1 62 5 view .LVU46
  63:Src/usart.c   ****     /**UART5 GPIO Configuration    
 181              		.loc 1 63 5 view .LVU47
 182              	.LBB4:
  63:Src/usart.c   ****     /**UART5 GPIO Configuration    
 183              		.loc 1 63 5 view .LVU48
  63:Src/usart.c   ****     /**UART5 GPIO Configuration    
 184              		.loc 1 63 5 view .LVU49
 185 0044 1A6B     		ldr	r2, [r3, #48]
 186 0046 42F00802 		orr	r2, r2, #8
ARM GAS  C:\Users\Legend\AppData\Local\Temp\ccvZbhxg.s 			page 6


 187 004a 1A63     		str	r2, [r3, #48]
  63:Src/usart.c   ****     /**UART5 GPIO Configuration    
 188              		.loc 1 63 5 view .LVU50
 189 004c 1B6B     		ldr	r3, [r3, #48]
 190 004e 03F00803 		and	r3, r3, #8
 191 0052 0293     		str	r3, [sp, #8]
  63:Src/usart.c   ****     /**UART5 GPIO Configuration    
 192              		.loc 1 63 5 view .LVU51
 193 0054 029B     		ldr	r3, [sp, #8]
 194              	.LBE4:
  63:Src/usart.c   ****     /**UART5 GPIO Configuration    
 195              		.loc 1 63 5 view .LVU52
  68:Src/usart.c   ****     GPIO_InitStruct.Mode = GPIO_MODE_AF_PP;
 196              		.loc 1 68 5 view .LVU53
  68:Src/usart.c   ****     GPIO_InitStruct.Mode = GPIO_MODE_AF_PP;
 197              		.loc 1 68 25 is_stmt 0 view .LVU54
 198 0056 4FF48053 		mov	r3, #4096
 199 005a 0393     		str	r3, [sp, #12]
  69:Src/usart.c   ****     GPIO_InitStruct.Pull = GPIO_NOPULL;
 200              		.loc 1 69 5 is_stmt 1 view .LVU55
  69:Src/usart.c   ****     GPIO_InitStruct.Pull = GPIO_NOPULL;
 201              		.loc 1 69 26 is_stmt 0 view .LVU56
 202 005c 0227     		movs	r7, #2
 203 005e 0497     		str	r7, [sp, #16]
  70:Src/usart.c   ****     GPIO_InitStruct.Speed = GPIO_SPEED_FREQ_VERY_HIGH;
 204              		.loc 1 70 5 is_stmt 1 view .LVU57
  70:Src/usart.c   ****     GPIO_InitStruct.Speed = GPIO_SPEED_FREQ_VERY_HIGH;
 205              		.loc 1 70 26 is_stmt 0 view .LVU58
 206 0060 0026     		movs	r6, #0
 207 0062 0596     		str	r6, [sp, #20]
  71:Src/usart.c   ****     GPIO_InitStruct.Alternate = GPIO_AF8_UART5;
 208              		.loc 1 71 5 is_stmt 1 view .LVU59
  71:Src/usart.c   ****     GPIO_InitStruct.Alternate = GPIO_AF8_UART5;
 209              		.loc 1 71 27 is_stmt 0 view .LVU60
 210 0064 0325     		movs	r5, #3
 211 0066 0695     		str	r5, [sp, #24]
  72:Src/usart.c   ****     HAL_GPIO_Init(GPIOC, &GPIO_InitStruct);
 212              		.loc 1 72 5 is_stmt 1 view .LVU61
  72:Src/usart.c   ****     HAL_GPIO_Init(GPIOC, &GPIO_InitStruct);
 213              		.loc 1 72 31 is_stmt 0 view .LVU62
 214 0068 0824     		movs	r4, #8
 215 006a 0794     		str	r4, [sp, #28]
  73:Src/usart.c   **** 
 216              		.loc 1 73 5 is_stmt 1 view .LVU63
 217 006c 03A9     		add	r1, sp, #12
 218 006e 0848     		ldr	r0, .L11+4
 219              	.LVL5:
  73:Src/usart.c   **** 
 220              		.loc 1 73 5 is_stmt 0 view .LVU64
 221 0070 FFF7FEFF 		bl	HAL_GPIO_Init
 222              	.LVL6:
  75:Src/usart.c   ****     GPIO_InitStruct.Mode = GPIO_MODE_AF_PP;
 223              		.loc 1 75 5 is_stmt 1 view .LVU65
  75:Src/usart.c   ****     GPIO_InitStruct.Mode = GPIO_MODE_AF_PP;
 224              		.loc 1 75 25 is_stmt 0 view .LVU66
 225 0074 0423     		movs	r3, #4
 226 0076 0393     		str	r3, [sp, #12]
ARM GAS  C:\Users\Legend\AppData\Local\Temp\ccvZbhxg.s 			page 7


  76:Src/usart.c   ****     GPIO_InitStruct.Pull = GPIO_NOPULL;
 227              		.loc 1 76 5 is_stmt 1 view .LVU67
  76:Src/usart.c   ****     GPIO_InitStruct.Pull = GPIO_NOPULL;
 228              		.loc 1 76 26 is_stmt 0 view .LVU68
 229 0078 0497     		str	r7, [sp, #16]
  77:Src/usart.c   ****     GPIO_InitStruct.Speed = GPIO_SPEED_FREQ_VERY_HIGH;
 230              		.loc 1 77 5 is_stmt 1 view .LVU69
  77:Src/usart.c   ****     GPIO_InitStruct.Speed = GPIO_SPEED_FREQ_VERY_HIGH;
 231              		.loc 1 77 26 is_stmt 0 view .LVU70
 232 007a 0596     		str	r6, [sp, #20]
  78:Src/usart.c   ****     GPIO_InitStruct.Alternate = GPIO_AF8_UART5;
 233              		.loc 1 78 5 is_stmt 1 view .LVU71
  78:Src/usart.c   ****     GPIO_InitStruct.Alternate = GPIO_AF8_UART5;
 234              		.loc 1 78 27 is_stmt 0 view .LVU72
 235 007c 0695     		str	r5, [sp, #24]
  79:Src/usart.c   ****     HAL_GPIO_Init(GPIOD, &GPIO_InitStruct);
 236              		.loc 1 79 5 is_stmt 1 view .LVU73
  79:Src/usart.c   ****     HAL_GPIO_Init(GPIOD, &GPIO_InitStruct);
 237              		.loc 1 79 31 is_stmt 0 view .LVU74
 238 007e 0794     		str	r4, [sp, #28]
  80:Src/usart.c   **** 
 239              		.loc 1 80 5 is_stmt 1 view .LVU75
 240 0080 03A9     		add	r1, sp, #12
 241 0082 0448     		ldr	r0, .L11+8
 242 0084 FFF7FEFF 		bl	HAL_GPIO_Init
 243              	.LVL7:
 244              		.loc 1 86 1 is_stmt 0 view .LVU76
 245 0088 C6E7     		b	.L7
 246              	.L12:
 247 008a 00BF     		.align	2
 248              	.L11:
 249 008c 00500040 		.word	1073762304
 250 0090 00080240 		.word	1073874944
 251 0094 000C0240 		.word	1073875968
 252              		.cfi_endproc
 253              	.LFE142:
 255              		.section	.text.HAL_UART_MspDeInit,"ax",%progbits
 256              		.align	1
 257              		.global	HAL_UART_MspDeInit
 258              		.syntax unified
 259              		.thumb
 260              		.thumb_func
 261              		.fpu fpv5-d16
 263              	HAL_UART_MspDeInit:
 264              	.LVL8:
 265              	.LFB143:
  87:Src/usart.c   **** 
  88:Src/usart.c   **** void HAL_UART_MspDeInit(UART_HandleTypeDef* uartHandle)
  89:Src/usart.c   **** {
 266              		.loc 1 89 1 is_stmt 1 view -0
 267              		.cfi_startproc
 268              		@ args = 0, pretend = 0, frame = 0
 269              		@ frame_needed = 0, uses_anonymous_args = 0
 270              		.loc 1 89 1 is_stmt 0 view .LVU78
 271 0000 08B5     		push	{r3, lr}
 272              	.LCFI5:
 273              		.cfi_def_cfa_offset 8
ARM GAS  C:\Users\Legend\AppData\Local\Temp\ccvZbhxg.s 			page 8


 274              		.cfi_offset 3, -8
 275              		.cfi_offset 14, -4
  90:Src/usart.c   **** 
  91:Src/usart.c   ****   if(uartHandle->Instance==UART5)
 276              		.loc 1 91 3 is_stmt 1 view .LVU79
 277              		.loc 1 91 16 is_stmt 0 view .LVU80
 278 0002 0268     		ldr	r2, [r0]
 279              		.loc 1 91 5 view .LVU81
 280 0004 094B     		ldr	r3, .L17
 281 0006 9A42     		cmp	r2, r3
 282 0008 00D0     		beq	.L16
 283              	.LVL9:
 284              	.L13:
  92:Src/usart.c   ****   {
  93:Src/usart.c   ****   /* USER CODE BEGIN UART5_MspDeInit 0 */
  94:Src/usart.c   **** 
  95:Src/usart.c   ****   /* USER CODE END UART5_MspDeInit 0 */
  96:Src/usart.c   ****     /* Peripheral clock disable */
  97:Src/usart.c   ****     __HAL_RCC_UART5_CLK_DISABLE();
  98:Src/usart.c   ****   
  99:Src/usart.c   ****     /**UART5 GPIO Configuration    
 100:Src/usart.c   ****     PC12     ------> UART5_TX
 101:Src/usart.c   ****     PD2     ------> UART5_RX 
 102:Src/usart.c   ****     */
 103:Src/usart.c   ****     HAL_GPIO_DeInit(GPIOC, GPIO_PIN_12);
 104:Src/usart.c   **** 
 105:Src/usart.c   ****     HAL_GPIO_DeInit(GPIOD, GPIO_PIN_2);
 106:Src/usart.c   **** 
 107:Src/usart.c   ****   /* USER CODE BEGIN UART5_MspDeInit 1 */
 108:Src/usart.c   **** 
 109:Src/usart.c   ****   /* USER CODE END UART5_MspDeInit 1 */
 110:Src/usart.c   ****   }
 111:Src/usart.c   **** } 
 285              		.loc 1 111 1 view .LVU82
 286 000a 08BD     		pop	{r3, pc}
 287              	.LVL10:
 288              	.L16:
  97:Src/usart.c   ****   
 289              		.loc 1 97 5 is_stmt 1 view .LVU83
 290 000c 084A     		ldr	r2, .L17+4
 291 000e 136C     		ldr	r3, [r2, #64]
 292 0010 23F48013 		bic	r3, r3, #1048576
 293 0014 1364     		str	r3, [r2, #64]
 103:Src/usart.c   **** 
 294              		.loc 1 103 5 view .LVU84
 295 0016 4FF48051 		mov	r1, #4096
 296 001a 0648     		ldr	r0, .L17+8
 297              	.LVL11:
 103:Src/usart.c   **** 
 298              		.loc 1 103 5 is_stmt 0 view .LVU85
 299 001c FFF7FEFF 		bl	HAL_GPIO_DeInit
 300              	.LVL12:
 105:Src/usart.c   **** 
 301              		.loc 1 105 5 is_stmt 1 view .LVU86
 302 0020 0421     		movs	r1, #4
 303 0022 0548     		ldr	r0, .L17+12
 304 0024 FFF7FEFF 		bl	HAL_GPIO_DeInit
ARM GAS  C:\Users\Legend\AppData\Local\Temp\ccvZbhxg.s 			page 9


 305              	.LVL13:
 306              		.loc 1 111 1 is_stmt 0 view .LVU87
 307 0028 EFE7     		b	.L13
 308              	.L18:
 309 002a 00BF     		.align	2
 310              	.L17:
 311 002c 00500040 		.word	1073762304
 312 0030 00380240 		.word	1073887232
 313 0034 00080240 		.word	1073874944
 314 0038 000C0240 		.word	1073875968
 315              		.cfi_endproc
 316              	.LFE143:
 318              		.comm	huart5,128,4
 319              		.text
 320              	.Letext0:
 321              		.file 2 "f:\\prosoft\\gcc_arm_none\\2019q4\\9 2019-q4-major\\arm-none-eabi\\include\\machine\\_def
 322              		.file 3 "f:\\prosoft\\gcc_arm_none\\2019q4\\9 2019-q4-major\\arm-none-eabi\\include\\sys\\_stdint.
 323              		.file 4 "Drivers/CMSIS/Include/core_cm7.h"
 324              		.file 5 "Drivers/CMSIS/Device/ST/STM32F7xx/Include/system_stm32f7xx.h"
 325              		.file 6 "Drivers/CMSIS/Device/ST/STM32F7xx/Include/stm32f767xx.h"
 326              		.file 7 "Drivers/STM32F7xx_HAL_Driver/Inc/stm32f7xx_hal_def.h"
 327              		.file 8 "Drivers/STM32F7xx_HAL_Driver/Inc/stm32f7xx_hal_gpio.h"
 328              		.file 9 "Drivers/STM32F7xx_HAL_Driver/Inc/stm32f7xx_hal_dma.h"
 329              		.file 10 "Drivers/STM32F7xx_HAL_Driver/Inc/stm32f7xx_hal_uart.h"
 330              		.file 11 "Drivers/STM32F7xx_HAL_Driver/Inc/stm32f7xx_hal.h"
 331              		.file 12 "Inc/usart.h"
 332              		.file 13 "Inc/main.h"
ARM GAS  C:\Users\Legend\AppData\Local\Temp\ccvZbhxg.s 			page 10

